(lp0
(lp1
(cnumpy.core.multiarray
scalar
p2
(cnumpy
dtype
p3
(S'f8'
p4
I0
I1
tp5
Rp6
(I3
S'<'
p7
NNNI-1
I-1
I0
tp8
bS'\x08(\xc19z\xab\xea?'
p9
tp10
Rp11
F-0.0004882795632000368
tp12
ag2
(g6
S'\xd2\xe9\xbb\xe1Qm\xbf<'
p13
tp14
Rp15
aI31250000000
aF1.0
aF10.722521237585815
ag2
(g6
S'H\xbc\x13\xdd}\xab\xea?'
p16
tp17
Rp18
a(g2
(g6
S'\x88Pf\x80\x81\xab\xea?'
p19
tp20
Rp21
g11
tp22
a(g21
F-0.0004746502612305901
tp23
aa(lp24
(g21
F-0.0004746502612305901
tp25
ag2
(g6
S'E\x99\x0c\xe4xm\xbf<'
p26
tp27
Rp28
aI31250000000
aF1.0
aF10.722927336171415
ag2
(g6
S'\xc8\xe4\xb8#\x85\xab\xea?'
p29
tp30
Rp31
a(g2
(g6
S'\x08y\x0b\xc7\x88\xab\xea?'
p32
tp33
Rp34
g21
tp35
a(g34
F-0.0004610207011209463
tp36
aa(lp37
(g34
F-0.0004610207011209463
tp38
ag2
(g6
S'6\x1d\xbe\xe6\x9fm\xbf<'
p39
tp40
Rp41
aI31250000000
aF1.0
aF10.72333348880021
ag2
(g6
S'H\r^j\x8c\xab\xea?'
p42
tp43
Rp44
a(g2
(g6
S'\x88\xa1\xb0\r\x90\xab\xea?'
p45
tp46
Rp47
g34
tp48
a(g47
F-0.0004473908828613282
tp49
aa(lp50
(g47
F-0.0004473908828613282
tp51
ag2
(g6
S'wv\xd0\xe9\xc6m\xbf<'
p52
tp53
Rp54
aI31250000000
aF1.0
aF10.723739641429004
ag2
(g6
S'\xc85\x03\xb1\x93\xab\xea?'
p55
tp56
Rp57
a(g2
(g6
S'\x08\xcaUT\x97\xab\xea?'
p58
tp59
Rp60
g47
tp61
a(g60
F-0.000433760806441958
tp62
aa(lp63
(g60
F-0.000433760806441958
tp64
ag2
(g6
S'\xf5\xa6C\xed\xedm\xbf<'
p65
tp66
Rp67
aI31250000000
aF1.0
aF10.724145848100994
ag2
(g6
S'H^\xa8\xf7\x9a\xab\xea?'
p68
tp69
Rp70
a(g2
(g6
S'\x88\xf2\xfa\x9a\x9e\xab\xea?'
p71
tp72
Rp73
g60
tp74
a(g73
F-0.0004201304718530574
tp75
aa(lp76
(g73
F-0.0004201304718530574
tp77
ag2
(g6
S'\x10\xb0\x17\xf1\x14n\xbf<'
p78
tp79
Rp80
aI31250000000
aF1.0
aF10.724552054772984
ag2
(g6
S'\xc8\x86M>\xa2\xab\xea?'
p81
tp82
Rp83
a(g2
(g6
S'\x08\x1b\xa0\xe1\xa5\xab\xea?'
p84
tp85
Rp86
g73
tp87
a(g86
F-0.00040649987908484734
tp88
aa(lp89
(g86
F-0.00040649987908484734
tp90
ag2
(g6
S'o\x93L\xf5;n\xbf<'
p91
tp92
Rp93
aI31250000000
aF1.0
aF10.724958279459374
ag2
(g6
S'H\xaf\xf2\x84\xa9\xab\xea?'
p94
tp95
Rp96
a(g2
(g6
S'\x88CE(\xad\xab\xea?'
p97
tp98
Rp99
g86
tp100
a(g99
F-0.00039286902812754826
tp101
aa(lp102
(g99
F-0.00039286902812754826
tp103
ag2
(g6
S'MR\xe2\xf9bn\xbf<'
p104
tp105
Rp106
aI31250000000
aF1.0
aF10.725364558188957
ag2
(g6
S'\xc8\xd7\x97\xcb\xb0\xab\xea?'
p107
tp108
Rp109
a(g2
(g6
S'\x08l\xean\xb4\xab\xea?'
p110
tp111
Rp112
g99
tp113
a(g112
F-0.00037923791897138005
tp114
aa(lp115
(g112
F-0.00037923791897138005
tp116
ag2
(g6
S't\xee\xd8\xfe\x89n\xbf<'
p117
tp118
Rp119
aI31250000000
aF1.0
aF10.725770836918542
ag2
(g6
S'H\x00=\x12\xb8\xab\xea?'
p120
tp121
Rp122
a(g2
(g6
S'\x88\x94\x8f\xb5\xbb\xab\xea?'
p123
tp124
Rp125
g112
tp126
a(g125
F-0.0003656065516065619
tp127
aa(lp128
(g125
F-0.0003656065516065619
tp129
ag2
(g6
S'Di0\x04\xb1n\xbf<'
p130
tp131
Rp132
aI31250000000
aF1.0
aF10.726177151676923
ag2
(g6
S'\xc8(\xe2X\xbf\xab\xea?'
p133
tp134
Rp135
a(g2
(g6
S'\x08\xbd4\xfc\xc2\xab\xea?'
p136
tp137
Rp138
g125
tp139
a(g138
F-0.00035197492602331246
tp140
aa(lp141
(g138
F-0.00035197492602331246
tp142
ag2
(g6
S'c\xc4\xe8\t\xd8n\xbf<'
p143
tp144
Rp145
aI31250000000
aF1.0
aF10.726583502464102
ag2
(g6
S'HQ\x87\x9f\xc6\xab\xea?'
p146
tp147
Rp148
a(g2
(g6
S'\x88\xe5\xd9B\xca\xab\xea?'
p149
tp150
Rp151
g138
tp152
a(g151
F-0.00033834304221184975
tp153
aa(lp154
(g151
F-0.00033834304221184975
tp155
ag2
(g6
S'\x0e\x01\x02\x10\xffn\xbf<'
p156
tp157
Rp158
aI31250000000
aF1.0
aF10.726989871265678
ag2
(g6
S'\xc8y,\xe6\xcd\xab\xea?'
p159
tp160
Rp161
a(g2
(g6
S'\x08\x0e\x7f\x89\xd1\xab\xea?'
p162
tp163
Rp164
g151
tp165
a(g164
F-0.00032471090016239127
tp166
aa(lp167
(g164
F-0.00032471090016239127
tp168
ag2
(g6
S'\xeb |\x16&o\xbf<'
p169
tp170
Rp171
aI31250000000
aF1.0
aF10.727396240067256
ag2
(g6
S'H\xa2\xd1,\xd5\xab\xea?'
p172
tp173
Rp174
a(g2
(g6
S'\x886$\xd0\xd8\xab\xea?'
p175
tp176
Rp177
g164
tp178
a(g177
F-0.0003110784998651539
tp179
aa(lp180
(g177
F-0.0003110784998651539
tp181
ag2
(g6
S'\xc4%W\x1dMo\xbf<'
p182
tp183
Rp184
aI31250000000
aF1.0
aF10.727802662912028
ag2
(g6
S'\xc8\xcavs\xdc\xab\xea?'
p185
tp186
Rp187
a(g2
(g6
S'\x08_\xc9\x16\xe0\xab\xea?'
p188
tp189
Rp190
g177
tp191
a(g190
F-0.00029744584131035376
tp192
aa(lp193
(g190
F-0.00029744584131035376
tp194
ag2
(g6
S'\xb2\x10\x93$to\xbf<'
p195
tp196
Rp197
aI31250000000
aF1.0
aF10.7282090857568
ag2
(g6
S'H\xf3\x1b\xba\xe3\xab\xea?'
p198
tp199
Rp200
a(g2
(g6
S'\x88\x87n]\xe7\xab\xea?'
p201
tp202
Rp203
g190
tp204
a(g203
F-0.0002838129244882066
tp205
aa(lp206
(g203
F-0.0002838129244882066
tp207
ag2
(g6
S'~\xe3/,\x9bo\xbf<'
p208
tp209
Rp210
aI31250000000
aF1.0
aF10.728615562644768
ag2
(g6
S'\xc8\x1b\xc1\x00\xeb\xab\xea?'
p211
tp212
Rp213
a(g2
(g6
S'\x08\xb0\x13\xa4\xee\xab\xea?'
p214
tp215
Rp216
g203
tp217
a(g216
F-0.0002701797493889275
tp218
aa(lp219
(g216
F-0.0002701797493889275
tp220
ag2
(g6
S'\x88\x9f-4\xc2o\xbf<'
p221
tp222
Rp223
aI31250000000
aF1.0
aF10.729022039532737
ag2
(g6
S'HDfG\xf2\xab\xea?'
p224
tp225
Rp226
a(g2
(g6
S'\x88\xd8\xb8\xea\xf5\xab\xea?'
p227
tp228
Rp229
g216
tp230
a(g229
F-0.00025654631600273084
tp231
aa(lp232
(g2
(g6
S'\x08\x01^1\xfd\xab\xea?'
p233
tp234
Rp235
F-0.00024291262431983058
tp236
ag2
(g6
S'BF\x8c<\xe9o\xbf<'
p237
tp238
Rp239
aI31250000000
aF1.0
aF10.7294285704639
ag2
(g6
S'\xc8l\x0b\x8e\xf9\xab\xea?'
p240
tp241
Rp242
a(g235
g229
tp243
a(g229
F-0.00025654631600273084
tp244
aa(lp245
(g235
F-0.00024291262431983058
tp246
ag2
(g6
S'\xe6\xd6\x0f\x83\x06p\xbf<'
p247
tp248
Rp249
aI15625000000
aF1.0
aF10.72973348217307
ag2
(g6
S'(K\x07\x03\xff\xab\xea?'
p250
tp251
Rp252
a(g2
(g6
S'H\x95\xb0\xd4\x00\xac\xea?'
p253
tp254
Rp255
g235
tp256
a(g255
F-0.00023609568161405827
tp257
aa(lp258
(g255
F-0.00023609568161405827
tp259
ag2
(g6
S'\xe0\xdb\x87\x07\x1ap\xbf<'
p260
tp261
Rp262
aI15625000000
aF1.0
aF10.729936720617054
ag2
(g6
S'h\xdfY\xa6\x02\xac\xea?'
p263
tp264
Rp265
a(g2
(g6
S'\x88)\x03x\x04\xac\xea?'
p266
tp267
Rp268
g255
tp269
a(g268
F-0.00022927867433043995
tp270
aa(lp271
(g268
F-0.00022927867433043995
tp272
ag2
(g6
S'K\x1c\x18\x8c-p\xbf<'
p273
tp274
Rp275
aI15625000000
aF1.0
aF10.730140031118633
ag2
(g6
S'\xa8s\xacI\x06\xac\xea?'
p276
tp277
Rp278
a(g2
(g6
S'\xc8\xbdU\x1b\x08\xac\xea?'
p279
tp280
Rp281
g268
tp282
a(g281
F-0.00022246160246775222
tp283
aa(lp284
(g281
F-0.00022246160246775222
tp285
ag2
(g6
S'o\x98\xc0\x10Ap\xbf<'
p286
tp287
Rp288
aI15625000000
aF1.0
aF10.730343305591415
ag2
(g6
S'\xe8\x07\xff\xec\t\xac\xea?'
p289
tp290
Rp291
a(g2
(g6
S'\x08R\xa8\xbe\x0b\xac\xea?'
p292
tp293
Rp294
g281
tp295
a(g294
F-0.0002156444660247716
tp296
aa(lp297
(g294
F-0.0002156444660247716
tp298
ag2
(g6
S'nP\x81\x95Tp\xbf<'
p299
tp300
Rp301
aI15625000000
aF1.0
aF10.730546616092992
ag2
(g6
S'(\x9cQ\x90\r\xac\xea?'
p302
tp303
Rp304
a(g2
(g6
S'H\xe6\xfaa\x0f\xac\xea?'
p305
tp306
Rp307
g294
tp308
a(g307
F-0.00020882726500027462
tp309
aa(lp310
(g307
F-0.00020882726500027462
tp311
ag2
(g6
S'\xd5DZ\x1ahp\xbf<'
p312
tp313
Rp314
aI15625000000
aF1.0
aF10.730749890565773
ag2
(g6
S'h0\xa43\x11\xac\xea?'
p315
tp316
Rp317
a(g2
(g6
S'\x88zM\x05\x13\xac\xea?'
p318
tp319
Rp320
g307
tp321
a(g320
F-0.00020200999939303766
tp322
aa(lp323
(g320
F-0.00020200999939303766
tp324
ag2
(g6
S';uK\x9f{p\xbf<'
p325
tp326
Rp327
aI15625000000
aF1.0
aF10.730953237096148
ag2
(g6
S'\xa8\xc4\xf6\xd6\x14\xac\xea?'
p328
tp329
Rp330
a(g2
(g6
S'\xc8\x0e\xa0\xa8\x16\xac\xea?'
p331
tp332
Rp333
g320
tp334
a(g333
F-0.00019519266920183718
tp335
aa(lp336
(g333
F-0.00019519266920183718
tp337
ag2
(g6
S',\xe2T$\x8fp\xbf<'
p338
tp339
Rp340
aI15625000000
aF1.0
aF10.73115651156893
ag2
(g6
S'\xe8XIz\x18\xac\xea?'
p341
tp342
Rp343
a(g2
(g6
S'\x08\xa3\xf2K\x1a\xac\xea?'
p344
tp345
Rp346
g333
tp347
a(g346
F-0.00018837527442544958
tp348
aa(lp349
(g346
F-0.00018837527442544958
tp350
ag2
(g6
S'\x12\x8cv\xa9\xa2p\xbf<'
p351
tp352
Rp353
aI15625000000
aF1.0
aF10.731359822070507
ag2
(g6
S'(\xed\x9b\x1d\x1c\xac\xea?'
p354
tp355
Rp356
a(g2
(g6
S'H7E\xef\x1d\xac\xea?'
p357
tp358
Rp359
g346
tp360
a(g359
F-0.00018155781506265113
tp361
aa(lp362
(g359
F-0.00018155781506265113
tp363
ag2
(g6
S'\x83r\xb0.\xb6p\xbf<'
p364
tp365
Rp366
aI15625000000
aF1.0
aF10.731563168600882
ag2
(g6
S'h\x81\xee\xc0\x1f\xac\xea?'
p367
tp368
Rp369
a(g2
(g6
S'\x88\xcb\x97\x92!\xac\xea?'
p370
tp371
Rp372
g359
tp373
a(g372
F-0.0001747402911122182
tp374
aa(lp375
(g372
F-0.0001747402911122182
tp376
ag2
(g6
S'/\x96\x02\xb4\xc9p\xbf<'
p377
tp378
Rp379
aI15625000000
aF1.0
aF10.731766515131257
ag2
(g6
S'\xa8\x15Ad#\xac\xea?'
p380
tp381
Rp382
a(g2
(g6
S'\xc8_\xea5%\xac\xea?'
p383
tp384
Rp385
g372
tp386
a(g385
F-0.00016792270257292704
tp387
aa(lp388
(g385
F-0.00016792270257292704
tp389
ag2
(g6
S'\xf4\xf6l9\xddp\xbf<'
p390
tp391
Rp392
aI15625000000
aF1.0
aF10.731969825632834
ag2
(g6
S"\xe8\xa9\x93\x07'\xac\xea?"
p393
tp394
Rp395
a(g2
(g6
S'\x08\xf4<\xd9(\xac\xea?'
p396
tp397
Rp398
g385
tp399
a(g398
F-0.0001611050494435539
tp400
aa(lp401
(g398
F-0.0001611050494435539
tp402
ag2
(g6
S']\x95\xef\xbe\xf0p\xbf<'
p403
tp404
Rp405
aI15625000000
aF1.0
aF10.73217317216321
ag2
(g6
S'(>\xe6\xaa*\xac\xea?'
p406
tp407
Rp408
a(g2
(g6
S'H\x88\x8f|,\xac\xea?'
p409
tp410
Rp411
g398
tp412
a(g411
F-0.0001542873317228749
tp413
aa(lp414
(g411
F-0.0001542873317228749
tp415
ag2
(g6
S'kq\x8aD\x04q\xbf<'
p416
tp417
Rp418
aI15625000000
aF1.0
aF10.732376482664788
ag2
(g6
S'h\xd28N.\xac\xea?'
p419
tp420
Rp421
a(g2
(g6
S'\x88\x1c\xe2\x1f0\xac\xea?'
p422
tp423
Rp424
g411
tp425
a(g424
F-0.00014746954940966626
tp426
aa(lp427
(g424
F-0.00014746954940966626
tp428
ag2
(g6
S'\x1d\x8b=\xca\x17q\xbf<'
p429
tp430
Rp431
aI15625000000
aF1.0
aF10.732579901252757
ag2
(g6
S'\xa8f\x8b\xf11\xac\xea?'
p432
tp433
Rp434
a(g2
(g6
S'\xc8\xb04\xc33\xac\xea?'
p435
tp436
Rp437
g424
tp438
a(g437
F-0.00014065170250270409
tp439
aa(lp440
(g437
F-0.00014065170250270409
tp441
ag2
(g6
S'\x01\xe3\x08P+q\xbf<'
p442
tp443
Rp444
aI15625000000
aF1.0
aF10.732783211754336
ag2
(g6
S'\xe8\xfa\xdd\x945\xac\xea?'
p445
tp446
Rp447
a(g2
(g6
S'\x08E\x87f7\xac\xea?'
p448
tp449
Rp450
g437
tp451
a(g450
F-0.00013383379100076443
tp452
aa(lp453
(g450
F-0.00013383379100076443
tp454
ag2
(g6
S'\xd1x\xec\xd5>q\xbf<'
p455
tp456
Rp457
aI15625000000
aF1.0
aF10.732986594313507
ag2
(g6
S'(\x8f089\xac\xea?'
p458
tp459
Rp460
a(g2
(g6
S'H\xd9\xd9\t;\xac\xea?'
p461
tp462
Rp463
g450
tp464
a(g463
F-0.0001270158149026234
tp465
aa(lp466
(g2
(g6
S'\x88m,\xad>\xac\xea?'
p467
tp468
Rp469
F-0.00012019777420705693
tp470
ag2
(g6
S'MM\xe8[Rq\xbf<'
p471
tp472
Rp473
aI15625000000
aF1.0
aF10.733189940843882
ag2
(g6
S'h#\x83\xdb<\xac\xea?'
p474
tp475
Rp476
a(g469
g463
tp477
a(g463
F-0.0001270158149026234
tp478
aa(lp479
(g469
F-0.00012019777420705693
tp480
ag2
(g6
S'R`\xfc\xe1eq\xbf<'
p481
tp482
Rp483
aI15625000000
aF1.0
aF10.733393359431851
ag2
(g6
S'\xa8\xb7\xd5~@\xac\xea?'
p484
tp485
Rp486
a(g2
(g6
S'\xc8\x01\x7fPB\xac\xea?'
p487
tp488
Rp489
g469
tp490
a(g489
F-0.00011337966891284101
tp491
aa(lp492
(g489
F-0.00011337966891284101
tp493
ag2
(g6
S'\xf3\xb1(hyq\xbf<'
p494
tp495
Rp496
aI15625000000
aF1.0
aF10.733596760005423
ag2
(g6
S'\xe8K("D\xac\xea?'
p497
tp498
Rp499
a(g2
(g6
S'\x08\x96\xd1\xf3E\xac\xea?'
p500
tp501
Rp502
g489
tp503
a(g502
F-0.0001065614990187516
tp504
aa(lp505
(g502
F-0.0001065614990187516
tp506
ag2
(g6
S'\xa9Bm\xee\x8cq\xbf<'
p507
tp508
Rp509
aI15625000000
aF1.0
aF10.733800124550196
ag2
(g6
S'(\xe0z\xc5G\xac\xea?'
p510
tp511
Rp512
a(g2
(g6
S'H*$\x97I\xac\xea?'
p513
tp514
Rp515
g502
tp516
a(g515
F-9.974326452356456e-05
tp517
aa(lp518
(g515
F-9.974326452356456e-05
tp519
ag2
(g6
S'\x88\x12\xcat\xa0q\xbf<'
p520
tp521
Rp522
aI15625000000
aF1.0
aF10.734003525123766
ag2
(g6
S'ht\xcdhK\xac\xea?'
p523
tp524
Rp525
a(g2
(g6
S'\x88\xbev:M\xac\xea?'
p526
tp527
Rp528
g515
tp529
a(g528
F-9.292496542605576e-05
tp530
aa(lp531
(g528
F-9.292496542605576e-05
tp532
ag2
(g6
S'\xa0!?\xfb\xb3q\xbf<'
p533
tp534
Rp535
aI15625000000
aF1.0
aF10.734206943711735
ag2
(g6
S'\xa8\x08 \x0cO\xac\xea?'
p536
tp537
Rp538
a(g2
(g6
S'\xc8R\xc9\xddP\xac\xea?'
p539
tp540
Rp541
g528
tp542
a(g541
F-8.610660172500102e-05
tp543
aa(lp544
(g541
F-8.610660172500102e-05
tp545
ag2
(g6
S'lp\xcc\x81\xc7q\xbf<'
p546
tp547
Rp548
aI15625000000
aF1.0
aF10.734410362299704
ag2
(g6
S'\xe8\x9cr\xafR\xac\xea?'
p549
tp550
Rp551
a(g2
(g6
S'\x08\xe7\x1b\x81T\xac\xea?'
p552
tp553
Rp554
g541
tp555
a(g554
F-7.92881734191761e-05
tp556
aa(lp557
(g554
F-7.92881734191761e-05
tp558
ag2
(g6
S'\xb8\xfeq\x08\xdbq\xbf<'
p559
tp560
Rp561
aI15625000000
aF1.0
aF10.734613762873275
ag2
(g6
S'(1\xc5RV\xac\xea?'
p562
tp563
Rp564
a(g2
(g6
S'H{n$X\xac\xea?'
p565
tp566
Rp567
g554
tp568
a(g567
F-7.246968050735679e-05
tp569
aa(lp570
(g567
F-7.246968050735679e-05
tp571
ag2
(g6
S'\x11\xcd/\x8f\xeeq\xbf<'
p572
tp573
Rp574
aI15625000000
aF1.0
aF10.734817181461244
ag2
(g6
S'h\xc5\x17\xf6Y\xac\xea?'
p575
tp576
Rp577
a(g2
(g6
S'\x88\x0f\xc1\xc7[\xac\xea?'
p578
tp579
Rp580
g567
tp581
a(g580
F-6.565112298831876e-05
tp582
aa(lp583
(g2
(g6
S'\xc8\xa3\x13k_\xac\xea?'
p584
tp585
Rp586
F-5.883250086083768e-05
tp587
ag2
(g6
S'\x7f\xdb\x05\x16\x02r\xbf<'
p588
tp589
Rp590
aI15625000000
aF1.0
aF10.735020618063611
ag2
(g6
S'\xa8Yj\x99]\xac\xea?'
p591
tp592
Rp593
a(g586
g580
tp594
a(g580
F-6.565112298831876e-05
tp595
aa(lp596
(g586
F-5.883250086083768e-05
tp597
ag2
(g6
S'%*\xf4\x9c\x15r\xbf<'
p598
tp599
Rp600
aI15625000000
aF1.0
aF10.73522406367318
ag2
(g6
S'\xe8\xed\xbc<a\xac\xea?'
p601
tp602
Rp603
a(g2
(g6
S'\x088f\x0ec\xac\xea?'
p604
tp605
Rp606
g586
tp607
a(g606
F-5.2013814123689204e-05
tp608
aa(lp609
(g2
(g6
S'\x088f\x0ec\xac\xea?'
p610
tp611
Rp612
F-5.2013814123689204e-05
tp613
ag2
(g6
S'\xe3p\xb1\xaf(r\xbf<'
p614
tp615
Rp616
aI14898078175
aF1.0
aF10.735422770036257
ag2
(g6
S'\xf8\x88e\xcad\xac\xea?'
p617
tp618
Rp619
a(g2
(g6
S'\xe7\xd9d\x86f\xac\xea?'
p620
tp621
Rp622
g612
tp623
a(g622
F-4.5512292955836063e-05
tp624
aa(lp625
(g622
F-4.5512292955836063e-05
tp626
ag2
(g6
S'\xac7<N;r\xbf<'
p627
tp628
Rp629
aI14898078175
aF1.0
aF10.735616751320824
ag2
(g6
S'\xd6*dBh\xac\xea?'
p630
tp631
Rp632
a(g2
(g6
S'\xc6{c\xfei\xac\xea?'
p633
tp634
Rp635
g622
tp636
a(g635
F-3.901071304797124e-05
tp637
aa(lp638
(g635
F-3.901071304797124e-05
tp639
ag2
(g6
S'\x03\x0b\xdd\xecMr\xbf<'
p640
tp641
Rp642
aI14898078176
aF1.0
aF10.735810750979399
ag2
(g6
S'\xb6\xccb\xbak\xac\xea?'
p643
tp644
Rp645
a(g2
(g6
S'\xa6\x1dbvm\xac\xea?'
p646
tp647
Rp648
g635
tp649
a(g648
F-3.2509074398596926e-05
tp650
aa(lp651
(g2
(g6
S'\x96na2o\xac\xea?'
p652
tp653
Rp654
F-2.9258233045675663e-05
tp655
ag2
(g6
S'uq\xe3\xe3[r\xbf<'
p656
tp657
Rp658
aI7449039088
aF1.0
aF10.73595622455828
ag2
(g6
S'\x1e\xc6aTn\xac\xea?'
p659
tp660
Rp661
a(g654
g648
tp662
a(g648
F-3.2509074398596926e-05
tp663
aa(lp664
(g654
F-2.9258233045675663e-05
tp665
ag2
(g6
S'\xbbdD3er\xbf<'
p666
tp667
Rp668
aI7449039087
aF1.0
aF10.736053242852133
ag2
(g6
S'\x0e\x17a\x10p\xac\xea?'
p669
tp670
Rp671
a(g2
(g6
S'\x85\xbf`\xeep\xac\xea?'
p672
tp673
Rp674
g654
tp675
a(g674
F-2.6007377007524497e-05
tp676
aa(lp677
(g674
F-2.6007377007524497e-05
tp678
ag2
(g6
S';\xdb\xaa\x82nr\xbf<'
p679
tp680
Rp681
aI7449039087
aF1.0
aF10.73615023844824
ag2
(g6
S'\xfcg`\xccq\xac\xea?'
p682
tp683
Rp684
a(g2
(g6
S't\x10`\xaar\xac\xea?'
p685
tp686
Rp687
g674
tp688
a(g687
F-2.2756506283574333e-05
tp689
aa(lp690
(g687
F-2.2756506283574333e-05
tp691
ag2
(g6
S'\xed\xd4\x16\xd2wr\xbf<'
p692
tp693
Rp694
aI7449039088
aF1.0
aF10.736247250977
ag2
(g6
S'\xec\xb8_\x88s\xac\xea?'
p695
tp696
Rp697
a(g2
(g6
S'da_ft\xac\xea?'
p698
tp699
Rp700
g687
tp701
a(g700
F-1.9505620873256074e-05
tp702
aa(lp703
(g700
F-1.9505620873256074e-05
tp704
ag2
(g6
S'\xfaQ\x88!\x81r\xbf<'
p705
tp706
Rp707
aI7449039088
aF1.0
aF10.736344226757842
ag2
(g6
S'\xdc\t_Du\xac\xea?'
p708
tp709
Rp710
a(g2
(g6
S'T\xb2^"v\xac\xea?'
p711
tp712
Rp713
g700
tp714
a(g713
F-1.625472077687344e-05
tp715
aa(lp716
(g2
(g6
S'D\x03^\xdew\xac\xea?'
p717
tp718
Rp719
F-1.300380599429374e-05
tp720
ag2
(g6
S'MR\xffp\x8ar\xbf<'
p721
tp722
Rp723
aI7449039088
aF1.0
aF10.73644125207678
ag2
(g6
S'\xccZ^\x00w\xac\xea?'
p724
tp725
Rp726
a(g719
g713
tp727
a(g713
F-1.625472077687344e-05
tp728
aa(lp729
(g719
F-1.300380599429374e-05
tp730
ag2
(g6
S'\xe9\xd5{\xc0\x93r\xbf<'
p731
tp732
Rp733
aI7449039088
aF1.0
aF10.736538247672861
ag2
(g6
S'\xbc\xab]\xbcx\xac\xea?'
p734
tp735
Rp736
a(g2
(g6
S'4T]\x9ay\xac\xea?'
p737
tp738
Rp739
g719
tp740
a(g739
F-9.752876525384287e-06
tp741
aa(lp742
(g2
(g6
S'#\xa5\\V{\xac\xea?'
p743
tp744
Rp745
F-6.501932370448808e-06
tp746
ag2
(g6
S'\xe5\xdc\xfd\x0f\x9dr\xbf<'
p747
tp748
Rp749
aI7449039087
aF1.0
aF10.736635256059252
ag2
(g6
S'\xac\xfc\\xz\xac\xea?'
p750
tp751
Rp752
a(g745
g739
tp753
a(g739
F-9.752876525384287e-06
tp754
aa(lp755
(g745
F-6.501932370448808e-06
tp756
ag2
(g6
S'6\xd4\xa2\x0b\xa4r\xbf<'
p757
tp758
Rp759
aI3724519543
aF1.0
aF10.736708000685232
ag2
(g6
S'^y\\\xc5{\xac\xea?'
p760
tp761
Rp762
a(g2
(g6
S'\x9aM\\4|\xac\xea?'
p763
tp764
Rp765
g745
tp766
a(g765
F-4.876454785734397e-06
tp767
aa(lp768
(g2
(g6
S'\x12\xf6[\x12}\xac\xea?'
p769
tp770
Rp771
F-3.250973528918187e-06
tp772
ag2
(g6
S'0\xfag\xb3\xa8r\xbf<'
p773
tp774
Rp775
aI3724519544
aF1.0
aF10.73675652244071
ag2
(g6
S'\xd6!\\\xa3|\xac\xea?'
p776
tp777
Rp778
a(g771
g765
tp779
a(g765
F-4.876454785734397e-06
tp780
aa(lp781
(g2
(g6
S'\x8a\x9e[\xf0}\xac\xea?'
p782
tp783
Rp784
F-1.6254886004200166e-06
tp785
ag2
(g6
S'\x0b\x81.[\xadr\xbf<'
p786
tp787
Rp788
aI3724519544
aF1.0
aF10.736805030146371
ag2
(g6
S'N\xca[\x81}\xac\xea?'
p789
tp790
Rp791
a(g784
g771
tp792
a(g771
F-3.250973528918187e-06
tp793
aa(lp794
(g2
(g6
S'\xc6r[_~\xac\xea?'
p795
tp796
Rp797
F-8.127447592850123e-07
tp798
ag2
(g6
S'\xb8B\x04\xd9\xb0r\xbf<'
p799
tp800
Rp801
aI1862259772
aF1.0
aF10.736841410925615
ag2
(g6
S"\xa8\x88\xdb'~\xac\xea?"
p802
tp803
Rp804
a(g797
g784
tp805
a(g784
F-1.6254886004200166e-06
tp806
aa(lp807
(F0.8335565596009646
F-2.2329760005704676e-16
tp808
ag2
(g6
S'\xc7\x8e\xe8,\xb3r\xbf<'
p809
tp810
Rp811
aI1862259772
aF1.0
aF10.736865654870826
ag2
(g6
S'\xe4\\\xdb\x96~\xac\xea?'
p812
tp813
Rp814
a(F0.8335565596009646
g797
tp815
a(g797
F-8.127447592850123e-07
tp816
aa(lp817
(F0.8335565596009646
F-2.2329760005704676e-16
tp818
ag2
(g6
S'\xa5\x8d\x18j\xb5r\xbf<'
p819
tp820
Rp821
aI1720342528
aF1.0
aF10.736888986757881
ag2
(g6
S'\x02s\xa0\x01\x7f\xac\xea?'
p822
tp823
Rp824
a(g2
(g6
S'\x02\x9f\xe54\x7f\xac\xea?'
p825
tp826
Rp827
F0.8335565596009646
tp828
a(g827
F7.508087287339844e-07
tp829
aa(lp830
(g827
F7.508087287339844e-07
tp831
ag2
(g6
S'\xb16\x94\x90\xb7r\xbf<'
p832
tp833
Rp834
aI1720342529
aF1.0
aF10.736911392554651
ag2
(g6
S'\x02\xcb*h\x7f\xac\xea?'
p835
tp836
Rp837
a(g2
(g6
S'\x03\xf7o\x9b\x7f\xac\xea?'
p838
tp839
Rp840
g827
tp841
a(g840
F1.501618241483783e-06
tp842
aa(lp843
(g840
F1.501618241483783e-06
tp844
ag2
(g6
S'\xd9JN\xca\xbar\xbf<'
p845
tp846
Rp847
aI3440685057
aF1.0
aF10.736944997190191
ag2
(g6
S'\x04O\xfa\x01\x80\xac\xea?'
p848
tp849
Rp850
a(g2
(g6
S'\x04\xa7\x84h\x80\xac\xea?'
p851
tp852
Rp853
g840
tp854
a(g853
F3.0032396166217493e-06
tp855
aa(lp856
(g853
F3.0032396166217493e-06
tp857
ag2
(g6
S'\x18\x82\xc4=\xc1r\xbf<'
p858
tp859
Rp860
aI6881370114
aF1.0
aF10.737012211393488
ag2
(g6
S'\x05W\x995\x81\xac\xea?'
p861
tp862
Rp863
a(g2
(g6
S'\x06\x07\xae\x02\x82\xac\xea?'
p864
tp865
Rp866
g853
tp867
a(g866
F6.0064917672426465e-06
tp868
aa(lp869
(g866
F6.0064917672426465e-06
tp870
ag2
(g6
S'2b\xbb\xd7\xc9r\xbf<'
p871
tp872
Rp873
aI6881370114
aF1.0
aF10.73710183226616
ag2
(g6
S'\x07\xb7\xc2\xcf\x82\xac\xea?'
p874
tp875
Rp876
a(g2
(g6
S'\x08g\xd7\x9c\x83\xac\xea?'
p877
tp878
Rp879
g866
tp880
a(g879
F9.009756451744012e-06
tp881
aa(lp882
(g879
F9.009756451744012e-06
tp883
ag2
(g6
S'\xd0\xf6\xb6q\xd2r\xbf<'
p884
tp885
Rp886
aI6881370114
aF1.0
aF10.737191458943672
ag2
(g6
S'\t\x17\xeci\x84\xac\xea?'
p887
tp888
Rp889
a(g2
(g6
S'\n\xc7\x007\x85\xac\xea?'
p890
tp891
Rp892
g879
tp893
a(g892
F1.2013033670230464e-05
tp894
aa(lp895
(g892
F1.2013033670230464e-05
tp896
ag2
(g6
S'\xf8?\xb7\x0b\xdbr\xbf<'
p897
tp898
Rp899
aI6881370114
aF1.0
aF10.737281062401836
ag2
(g6
S'\x0bw\x15\x04\x86\xac\xea?'
p900
tp901
Rp902
a(g2
(g6
S"\x0c'*\xd1\x86\xac\xea?"
p903
tp904
Rp905
g892
tp906
a(g905
F1.5016323422806625e-05
tp907
aa(lp908
(g905
F1.5016323422806625e-05
tp909
ag2
(g6
S'\xb5=\xbc\xa5\xe3r\xbf<'
p910
tp911
Rp912
aI6881370114
aF1.0
aF10.73737070068902
ag2
(g6
S'\r\xd7>\x9e\x87\xac\xea?'
p913
tp914
Rp915
a(g2
(g6
S'\x0e\x87Sk\x88\xac\xea?'
p916
tp917
Rp918
g905
tp919
a(g918
F1.8019625709577116e-05
tp920
aa(lp921
(g918
F1.8019625709577116e-05
tp922
ag2
(g6
S'y#\xcd\x8c\xf0r\xbf<'
p923
tp924
Rp925
aI13762740228
aF1.0
aF10.737505134900449
ag2
(g6
S'\x10\xe7|\x05\x8a\xac\xea?'
p926
tp927
Rp928
a(g2
(g6
S'\x12G\xa6\x9f\x8b\xac\xea?'
p929
tp930
Rp931
g918
tp932
a(g931
F2.4026267886119588e-05
tp933
aa(lp934
(g931
F2.4026267886119588e-05
tp935
ag2
(g6
S'zZ\xf3\xc0\x01s\xbf<'
p936
tp937
Rp938
aI13762740228
aF1.0
aF10.737684394060306
ag2
(g6
S'\x14\xa7\xcf9\x8d\xac\xea?'
p939
tp940
Rp941
a(g2
(g6
S'\x16\x07\xf9\xd3\x8e\xac\xea?'
p942
tp943
Rp944
g931
tp945
a(g944
F3.003296020069488e-05
tp946
aa(lp947
(g944
F3.003296020069488e-05
tp948
ag2
(g6
S'\x03d,\xf5\x12s\xbf<'
p949
tp950
Rp951
aI13762740228
aF1.0
aF10.737863647415328
ag2
(g6
S'\x18g"n\x90\xac\xea?'
p952
tp953
Rp954
a(g2
(g6
S'\x1a\xc7K\x08\x92\xac\xea?'
p955
tp956
Rp957
g944
tp958
a(g957
F3.6039702654140023e-05
tp959
aa(lp960
(g957
F3.6039702654140023e-05
tp961
ag2
(g6
S'A@x)$s\xbf<'
p962
tp963
Rp964
aI13762740228
aF1.0
aF10.73804291238002
ag2
(g6
S"\x1c'u\xa2\x93\xac\xea?"
p965
tp966
Rp967
a(g2
(g6
S'\x1e\x87\x9e<\x95\xac\xea?'
p968
tp969
Rp970
g957
tp971
a(g970
F4.204649524729207e-05
tp972
aa(lp973
(g970
F4.204649524729207e-05
tp974
ag2
(g6
S'A\xef\xd6]5s\xbf<'
p975
tp976
Rp977
aI13762740229
aF1.0
aF10.738222199003584
ag2
(g6
S' \xe7\xc7\xd6\x96\xac\xea?'
p978
tp979
Rp980
a(g2
(g6
S'#G\xf1p\x98\xac\xea?'
p981
tp982
Rp983
g970
tp984
a(g983
F4.8053337981424554e-05
tp985
aa(lp986
(g983
F4.8053337981424554e-05
tp987
ag2
(g6
S'2qH\x92Fs\xbf<'
p988
tp989
Rp990
aI13762740229
aF1.0
aF10.738401475577925
ag2
(g6
S'&\xa7\x1a\x0b\x9a\xac\xea?'
p991
tp992
Rp993
a(g2
(g6
S'(\x07D\xa5\x9b\xac\xea?'
p994
tp995
Rp996
g983
tp997
a(g996
F5.406023085693811e-05
tp998
aa(lp999
(g996
F5.406023085693811e-05
tp1000
ag2
(g6
S'/\xc6\xcc\xc6Ws\xbf<'
p1001
tp1002
Rp1003
aI13762740228
aF1.0
aF10.738580742103123
ag2
(g6
S'*gm?\x9d\xac\xea?'
p1004
tp1005
Rp1006
a(g2
(g6
S',\xc7\x96\xd9\x9e\xac\xea?'
p1007
tp1008
Rp1009
g996
tp1010
a(g1009
F6.0067173874233404e-05
tp1011
aa(lp1012
(g1009
F6.0067173874233404e-05
tp1013
ag2
(g6
S'M\xeec\xfbhs\xbf<'
p1014
tp1015
Rp1016
aI13762740228
aF1.0
aF10.738760030287164
ag2
(g6
S".'\xc0s\xa0\xac\xea?"
p1017
tp1018
Rp1019
a(g2
(g6
S'0\x87\xe9\r\xa2\xac\xea?'
p1020
tp1021
Rp1022
g1009
tp1023
a(g1022
F6.607416703458402e-05
tp1024
aa(lp1025
(g1022
F6.607416703458402e-05
tp1026
ag2
(g6
S'\xc9\xe9\r0zs\xbf<'
p1027
tp1028
Rp1029
aI13762740228
aF1.0
aF10.738939330080878
ag2
(g6
S'2\xe7\x12\xa8\xa3\xac\xea?'
p1030
tp1031
Rp1032
a(g2
(g6
S'4G<B\xa5\xac\xea?'
p1033
tp1034
Rp1035
g1022
tp1036
a(g1035
F7.208121033882713e-05
tp1037
aa(lp1038
(g1035
F7.208121033882713e-05
tp1039
ag2
(g6
S'\xad\xb8\xcad\x8bs\xbf<'
p1040
tp1041
Rp1042
aI13762740228
aF1.0
aF10.739118606655246
ag2
(g6
S'6\xa7e\xdc\xa6\xac\xea?'
p1043
tp1044
Rp1045
a(g2
(g6
S'8\x07\x8fv\xa8\xac\xea?'
p1046
tp1047
Rp1048
g1035
tp1049
a(g1048
F7.808830378779992e-05
tp1050
aa(lp1051
(g1048
F7.808830378779992e-05
tp1052
ag2
(g6
S'"[\x9a\x99\x9cs\xbf<'
p1053
tp1054
Rp1055
aI13762740228
aF1.0
aF10.739297906448959
ag2
(g6
S':g\xb8\x10\xaa\xac\xea?'
p1056
tp1057
Rp1058
a(g2
(g6
S'<\xc7\xe1\xaa\xab\xac\xea?'
p1059
tp1060
Rp1061
g1048
tp1062
a(g1061
F8.409544738233959e-05
tp1063
aa(lp1064
(g1061
F8.409544738233959e-05
tp1065
ag2
(g6
S'O\xd1|\xce\xads\xbf<'
p1066
tp1067
Rp1068
aI13762740228
aF1.0
aF10.739477206242674
ag2
(g6
S">'\x0bE\xad\xac\xea?"
p1069
tp1070
Rp1071
a(g2
(g6
S'@\x874\xdf\xae\xac\xea?'
p1072
tp1073
Rp1074
g1061
tp1075
a(g1074
F9.010264112328338e-05
tp1076
aa(lp1077
(g1074
F9.010264112328338e-05
tp1078
ag2
(g6
S'H\x1br\x03\xbfs\xbf<'
p1079
tp1080
Rp1081
aI13762740228
aF1.0
aF10.739656529255734
ag2
(g6
S'B\xe7]y\xb0\xac\xea?'
p1082
tp1083
Rp1084
a(g2
(g6
S'DG\x87\x13\xb2\xac\xea?'
p1085
tp1086
Rp1087
g1074
tp1088
a(g1087
F9.610988501146854e-05
tp1089
aa(lp1090
(g1087
F9.610988501146854e-05
tp1091
ag2
(g6
S'59z8\xd0s\xbf<'
p1092
tp1093
Rp1094
aI13762740228
aF1.0
aF10.739835829049449
ag2
(g6
S'F\xa7\xb0\xad\xb3\xac\xea?'
p1095
tp1096
Rp1097
a(g2
(g6
S'H\x07\xdaG\xb5\xac\xea?'
p1098
tp1099
Rp1100
g1087
tp1101
a(g1100
F0.00010211717904773234
tp1102
aa(lp1103
(g1100
F0.00010211717904773234
tp1104
ag2
(g6
S'R+\x95m\xe1s\xbf<'
p1105
tp1106
Rp1107
aI13762740228
aF1.0
aF10.740015175281854
ag2
(g6
S'Jg\x03\xe2\xb6\xac\xea?'
p1108
tp1109
Rp1110
a(g2
(g6
S'L\xc7,|\xb8\xac\xea?'
p1111
tp1112
Rp1113
g1100
tp1114
a(g1113
F0.0001081245232329121
tp1115
aa(lp1116
(g1113
F0.0001081245232329121
tp1117
ag2
(g6
S'w\xf1\xc2\xa2\xf2s\xbf<'
p1118
tp1119
Rp1120
aI13762740228
aF1.0
aF10.740194498294915
ag2
(g6
S"N'V\x16\xba\xac\xea?"
p1121
tp1122
Rp1123
a(g2
(g6
S'P\x87\x7f\xb0\xbb\xac\xea?'
p1124
tp1125
Rp1126
g1113
tp1127
a(g1126
F0.0001141319175678451
tp1128
aa(lp1129
(g1126
F0.0001141319175678451
tp1130
ag2
(g6
S'\x1c\x8c\x03\xd8\x03t\xbf<'
p1131
tp1132
Rp1133
aI13762740228
aF1.0
aF10.740373821307976
ag2
(g6
S'R\xe7\xa8J\xbd\xac\xea?'
p1134
tp1135
Rp1136
a(g2
(g6
S'TG\xd2\xe4\xbe\xac\xea?'
p1137
tp1138
Rp1139
g1126
tp1140
a(g1139
F0.00012013936205336873
tp1141
aa(lp1142
(g1139
F0.00012013936205336873
tp1143
ag2
(g6
S'.\xfbV\r\x15t\xbf<'
p1144
tp1145
Rp1146
aI13762740228
aF1.0
aF10.740553144321037
ag2
(g6
S'V\xa7\xfb~\xc0\xac\xea?'
p1147
tp1148
Rp1149
a(g2
(g6
S'X\x07%\x19\xc2\xac\xea?'
p1150
tp1151
Rp1152
g1139
tp1153
a(g1152
F0.00012614685669032032
tp1154
aa(lp1155
(g1152
F0.00012614685669032032
tp1156
ag2
(g6
S'\xd3>\xbdB&t\xbf<'
p1157
tp1158
Rp1159
aI13762740228
aF1.0
aF10.740732536992136
ag2
(g6
S'ZgN\xb3\xc3\xac\xea?'
p1160
tp1161
Rp1162
a(g2
(g6
S'\\\xc7wM\xc5\xac\xea?'
p1163
tp1164
Rp1165
g1152
tp1166
a(g1165
F0.00013215440147953727
tp1167
aa(lp1168
(g1165
F0.00013215440147953727
tp1169
ag2
(g6
S'\xe0M\xfc\x12@t\xbf<'
p1170
tp1171
Rp1172
aI27525480456
aF1.0
aF10.741001509902054
ag2
(g6
S'`\x87\xca\x81\xc8\xac\xea?'
p1173
tp1174
Rp1175
a(g2
(g6
S'dG\x1d\xb6\xcb\xac\xea?'
p1176
tp1177
Rp1178
g1165
tp1179
a(g1178
F0.00014416964151811693
tp1180
aa(lp1181
(g1178
F0.00014416964151811693
tp1182
ag2
(g6
S'm\xd29~bt\xbf<'
p1183
tp1184
Rp1185
aI27525480456
aF1.0
aF10.741360213976542
ag2
(g6
S'h\x07p\xea\xce\xac\xea?'
p1186
tp1187
Rp1188
a(g2
(g6
S'l\xc7\xc2\x1e\xd2\xac\xea?'
p1189
tp1190
Rp1191
g1178
tp1192
a(g1191
F0.00015618508217580724
tp1193
aa(lp1194
(g1191
F0.00015618508217580724
tp1195
ag2
(g6
S'\xb5\xab\xc2\xe9\x84t\xbf<'
p1196
tp1197
Rp1198
aI27525480456
aF1.0
aF10.741718929660701
ag2
(g6
S'p\x87\x15S\xd5\xac\xea?'
p1199
tp1200
Rp1201
a(g2
(g6
S'tGh\x87\xd8\xac\xea?'
p1202
tp1203
Rp1204
g1191
tp1205
a(g1204
F0.0001682007234593081
tp1206
aa(lp1207
(g1204
F0.0001682007234593081
tp1208
ag2
(g6
S'\xe3\xda\x96U\xa7t\xbf<'
p1209
tp1210
Rp1211
aI27525480456
aF1.0
aF10.742077668564209
ag2
(g6
S'x\x07\xbb\xbb\xdb\xac\xea?'
p1212
tp1213
Rp1214
a(g2
(g6
S'|\xc7\r\xf0\xde\xac\xea?'
p1215
tp1216
Rp1217
g1204
tp1218
a(g1217
F0.00018021656537531985
tp1219
aa(lp1220
(g1217
F0.00018021656537531985
tp1221
ag2
(g6
S'\xc8`\xb6\xc1\xc9t\xbf<'
p1222
tp1223
Rp1224
aI27525480457
aF1.0
aF10.742436441516189
ag2
(g6
S'\x80\x87`$\xe2\xac\xea?'
p1225
tp1226
Rp1227
a(g2
(g6
S'\x85G\xb3X\xe5\xac\xea?'
p1228
tp1229
Rp1230
g1217
tp1231
a(g1230
F0.00019223260793097962
tp1232
aa(lp1233
(g1230
F0.00019223260793097962
tp1234
ag2
(g6
S'\xa1>!.\xect\xbf<'
p1235
tp1236
Rp1237
aI27525480457
aF1.0
aF10.742795215248691
ag2
(g6
S'\x8a\x07\x06\x8d\xe8\xac\xea?'
p1238
tp1239
Rp1240
a(g2
(g6
S'\x8e\xc7X\xc1\xeb\xac\xea?'
p1241
tp1242
Rp1243
g1230
tp1244
a(g1243
F0.0002042488511325519
tp1245
aa(lp1246
(g1243
F0.0002042488511325519
tp1247
ag2
(g6
S'Yu\xd7\x9a\x0eu\xbf<'
p1248
tp1249
Rp1250
aI27525480456
aF1.0
aF10.743154012981135
ag2
(g6
S'\x92\x87\xab\xf5\xee\xac\xea?'
p1251
tp1252
Rp1253
a(g2
(g6
S'\x96G\xfe)\xf2\xac\xea?'
p1254
tp1255
Rp1256
g1243
tp1257
a(g1256
F0.00021626529498630146
tp1258
aa(lp1259
(g1256
F0.00021626529498630146
tp1260
ag2
(g6
S'\xf5\x05\xd9\x071u\xbf<'
p1261
tp1262
Rp1263
aI27525480456
aF1.0
aF10.743512844762028
ag2
(g6
S'\x9a\x07Q^\xf5\xac\xea?'
p1264
tp1265
Rp1266
a(g2
(g6
S'\x9e\xc7\xa3\x92\xf8\xac\xea?'
p1267
tp1268
Rp1269
g1256
tp1270
a(g1269
F0.0002282819394993666
tp1271
aa(lp1272
(g1269
F0.0002282819394993666
tp1273
ag2
(g6
S'\x8a\xf1%uSu\xbf<'
p1274
tp1275
Rp1276
aI27525480456
aF1.0
aF10.743871688152595
ag2
(g6
S'\xa2\x87\xf6\xc6\xfb\xac\xea?'
p1277
tp1278
Rp1279
a(g2
(g6
S'\xa6GI\xfb\xfe\xac\xea?'
p1280
tp1281
Rp1282
g1269
tp1283
a(g1282
F0.00024029878467844934
tp1284
aa(lp1285
(g1282
F0.00024029878467844934
tp1286
ag2
(g6
S'\x079\xbe\xe2uu\xbf<'
p1287
tp1288
Rp1289
aI27525480456
aF1.0
aF10.744230531543161
ag2
(g6
S'\xaa\x07\x9c/\x02\xad\xea?'
p1290
tp1291
Rp1292
a(g2
(g6
S'\xae\xc7\xeec\x05\xad\xea?'
p1293
tp1294
Rp1295
g1282
tp1296
a(g1295
F0.00025231583053025213
tp1297
aa(lp1298
(g1295
F0.00025231583053025213
tp1299
ag2
(g6
S'\xe8\xdd\xa1P\x98u\xbf<'
p1300
tp1301
Rp1302
aI27525480456
aF1.0
aF10.744589432982092
ag2
(g6
S'\xb2\x87A\x98\x08\xad\xea?'
p1303
tp1304
Rp1305
a(g2
(g6
S'\xb6G\x94\xcc\x0b\xad\xea?'
p1306
tp1307
Rp1308
g1295
tp1309
a(g1308
F0.00026433307706147786
tp1310
aa(lp1311
(g1308
F0.00026433307706147786
tp1312
ag2
(g6
S'}\xe0\xd0\xbe\xbau\xbf<'
p1313
tp1314
Rp1315
aI27525480456
aF1.0
aF10.744948334421025
ag2
(g6
S'\xba\x07\xe7\x00\x0f\xad\xea?'
p1316
tp1317
Rp1318
a(g2
(g6
S'\xbe\xc795\x12\xad\xea?'
p1319
tp1320
Rp1321
g1308
tp1322
a(g1321
F0.0002763505242788296
tp1323
aa(lp1324
(g1321
F0.0002763505242788296
tp1325
ag2
(g6
S'UBK-\xddu\xbf<'
p1326
tp1327
Rp1328
aI27525480456
aF1.0
aF10.745307235859958
ag2
(g6
S'\xc2\x87\x8ci\x15\xad\xea?'
p1329
tp1330
Rp1331
a(g2
(g6
S'\xc6G\xdf\x9d\x18\xad\xea?'
p1332
tp1333
Rp1334
g1321
tp1335
a(g1334
F0.0002883681721890108
tp1336
aa(lp1337
(g1334
F0.0002883681721890108
tp1338
ag2
(g6
S'7\x04\x11\x9c\xffu\xbf<'
p1339
tp1340
Rp1341
aI27525480456
aF1.0
aF10.745666160518237
ag2
(g6
S'\xca\x072\xd2\x1b\xad\xea?'
p1342
tp1343
Rp1344
a(g2
(g6
S'\xce\xc7\x84\x06\x1f\xad\xea?'
p1345
tp1346
Rp1347
g1334
tp1348
a(g1347
F0.00030038602079872546
tp1349
aa(lp1350
(g1347
F0.00030038602079872546
tp1351
ag2
(g6
S'\x8c\'"\x0b"v\xbf<'
p1352
tp1353
Rp1354
aI27525480456
aF1.0
aF10.746025131615209
ag2
(g6
S'\xd2\x87\xd7:"\xad\xea?'
p1355
tp1356
Rp1357
a(g2
(g6
S'\xd6G*o%\xad\xea?'
p1358
tp1359
Rp1360
g1347
tp1361
a(g1360
F0.0003124040701146778
tp1362
aa(lp1363
(g1360
F0.0003124040701146778
tp1364
ag2
(g6
S'\xf3\xac~zDv\xbf<'
p1365
tp1366
Rp1367
aI27525480456
aF1.0
aF10.746384102712181
ag2
(g6
S'\xda\x07}\xa3(\xad\xea?'
p1368
tp1369
Rp1370
a(g2
(g6
S'\xde\xc7\xcf\xd7+\xad\xea?'
p1371
tp1372
Rp1373
g1360
tp1374
a(g1373
F0.0003244223201435724
tp1375
aa(lp1376
(g1373
F0.0003244223201435724
tp1377
ag2
(g6
S'\xc4\x95&\xeafv\xbf<'
p1378
tp1379
Rp1380
aI27525480457
aF1.0
aF10.746743096247641
ag2
(g6
S'\xe2\x87"\x0c/\xad\xea?'
p1381
tp1382
Rp1383
a(g2
(g6
S'\xe7Gu@2\xad\xea?'
p1384
tp1385
Rp1386
g1373
tp1387
a(g1386
F0.0003364407708925509
tp1388
aa(lp1389
(g1386
F0.0003364407708925509
tp1390
ag2
(g6
S'\x91\xe2\x19Z\x89v\xbf<'
p1391
tp1392
Rp1393
aI27525480457
aF1.0
aF10.74710211378328
ag2
(g6
S'\xec\x07\xc8t5\xad\xea?'
p1394
tp1395
Rp1396
a(g2
(g6
S'\xf0\xc7\x1a\xa98\xad\xea?'
p1397
tp1398
Rp1399
g1386
tp1400
a(g1399
F0.00034845942236788185
tp1401
aa(lp1402
(g1399
F0.00034845942236788185
tp1403
ag2
(g6
S'!\x95X\xca\xabv\xbf<'
p1404
tp1405
Rp1406
aI27525480456
aF1.0
aF10.74746113209983
ag2
(g6
S'\xf4\x87m\xdd;\xad\xea?'
p1407
tp1408
Rp1409
a(g2
(g6
S'\xf8G\xc0\x11?\xad\xea?'
p1410
tp1411
Rp1412
g1399
tp1413
a(g1412
F0.00036047827457583447
tp1414
aa(lp1415
(g1412
F0.00036047827457583447
tp1416
ag2
(g6
S'\xbd\xad\xe2:\xcev\xbf<'
p1417
tp1418
Rp1419
aI27525480456
aF1.0
aF10.747820196074187
ag2
(g6
S'\xfc\x07\x13FB\xad\xea?'
p1420
tp1421
Rp1422
a(g2
(g6
S'\x00\xc8ezE\xad\xea?'
p1423
tp1424
Rp1425
g1412
tp1426
a(g1425
F0.0003724973275235513
tp1427
aa(lp1428
(g1425
F0.0003724973275235513
tp1429
ag2
(g6
S'\xe1-\xb8\xab\xf0v\xbf<'
p1430
tp1431
Rp1432
aI27525480456
aF1.0
aF10.748179260048547
ag2
(g6
S'\x04\x88\xb8\xaeH\xad\xea?'
p1433
tp1434
Rp1435
a(g2
(g6
S'\x08H\x0b\xe3K\xad\xea?'
p1436
tp1437
Rp1438
g1425
tp1439
a(g1438
F0.0003845165812177388
tp1440
aa(lp1441
(g2
(g6
S'\x08H\x0b\xe3K\xad\xea?'
p1442
tp1443
Rp1444
F0.0003845165812177388
tp1445
ag2
(g6
S'\x19`\xeb&\x13w\xbf<'
p1446
tp1447
Rp1448
aI27588361438
aF1.0
aF10.748538771720709
ag2
(g6
S'w\xc6=\x19O\xad\xea?'
p1449
tp1450
Rp1451
a(g2
(g6
S'\xe6DpOR\xad\xea?'
p1452
tp1453
Rp1454
g1444
tp1455
a(g1454
F0.0003965634939115203
tp1456
aa(lp1457
(g1454
F0.0003965634939115203
tp1458
ag2
(g6
S'\xba\x7f|\xac5w\xbf<'
p1459
tp1460
Rp1461
aI27588361437
aF1.0
aF10.748898697812182
ag2
(g6
S'T\xc3\xa2\x85U\xad\xea?'
p1462
tp1463
Rp1464
a(g2
(g6
S'\xc3A\xd5\xbbX\xad\xea?'
p1465
tp1466
Rp1467
g1454
tp1468
a(g1467
F0.00040861060828307035
tp1469
aa(lp1470
(g1467
F0.00040861060828307035
tp1471
ag2
(g6
S'\xa1bY2Xw\xbf<'
p1472
tp1473
Rp1474
aI27588361437
aF1.0
aF10.749258646238067
ag2
(g6
S'2\xc0\x07\xf2[\xad\xea?'
p1475
tp1476
Rp1477
a(g2
(g6
S'\xa0>:(_\xad\xea?'
p1478
tp1479
Rp1480
g1467
tp1481
a(g1480
F0.00042065792433957933
tp1482
aa(lp1483
(g1480
F0.00042065792433957933
tp1484
ag2
(g6
S'\x0e\t\x82\xb8zw\xbf<'
p1485
tp1486
Rp1487
aI27588361438
aF1.0
aF10.749618640111908
ag2
(g6
S'\x0f\xbdl^b\xad\xea?'
p1488
tp1489
Rp1490
a(g2
(g6
S'~;\x9f\x94e\xad\xea?'
p1491
tp1492
Rp1493
g1480
tp1494
a(g1493
F0.00043270544208823773
tp1495
aa(lp1496
(g1493
F0.00043270544208823773
tp1497
ag2
(g6
S'\x8at\xf6>\x9dw\xbf<'
p1498
tp1499
Rp1500
aI27588361438
aF1.0
aF10.74997861165139
ag2
(g6
S'\xed\xb9\xd1\xcah\xad\xea?'
p1501
tp1502
Rp1503
a(g2
(g6
S'\\8\x04\x01l\xad\xea?'
p1504
tp1505
Rp1506
g1493
tp1507
a(g1506
F0.0004447531615353632
tp1508
aa(lp1509
(g1506
F0.0004447531615353632
tp1510
ag2
(g6
S':\xa6\xb6\xc5\xbfw\xbf<'
p1511
tp1512
Rp1513
aI27588361437
aF1.0
aF10.750338607083831
ag2
(g6
S'\xca\xb667o\xad\xea?'
p1514
tp1515
Rp1516
a(g2
(g6
S'95imr\xad\xea?'
p1517
tp1518
Rp1519
g1506
tp1520
a(g1519
F0.00045680108268727376
tp1521
aa(lp1522
(g1519
F0.00045680108268727376
tp1523
ag2
(g6
S'\xaf\x9e\xc2L\xe2w\xbf<'
p1524
tp1525
Rp1526
aI27588361437
aF1.0
aF10.750698624850582
ag2
(g6
S'\xa8\xb3\x9b\xa3u\xad\xea?'
p1527
tp1528
Rp1529
a(g2
(g6
S'\x162\xce\xd9x\xad\xea?'
p1530
tp1531
Rp1532
g1519
tp1533
a(g1532
F0.000468849205551161
tp1534
aa(lp1535
(g1532
F0.000468849205551161
tp1536
ag2
(g6
S'B_\x1a\xd4\x04x\xbf<'
p1537
tp1538
Rp1539
aI27588361438
aF1.0
aF10.751058664951561
ag2
(g6
S'\x85\xb0\x00\x10|\xad\xea?'
p1540
tp1541
Rp1542
a(g2
(g6
S'\xf4.3F\x7f\xad\xea?'
p1543
tp1544
Rp1545
g1532
tp1546
a(g1545
F0.0004808975301342171
tp1547
aa(lp1548
(g1545
F0.0004808975301342171
tp1549
ag2
(g6
S"+\xe9\xbd['x\xbf<"
p1550
tp1551
Rp1552
aI27588361438
aF1.0
aF10.751418752059148
ag2
(g6
S'c\xade|\x82\xad\xea?'
p1553
tp1554
Rp1555
a(g2
(g6
S'\xd2+\x98\xb2\x85\xad\xea?'
p1556
tp1557
Rp1558
g1545
tp1559
a(g1558
F0.0004929460564427611
tp1560
aa(lp1561
(g1558
F0.0004929460564427611
tp1562
ag2
(g6
S'\x1b=\xad\xe3Ix\xbf<'
p1563
tp1564
Rp1565
aI27588361437
aF1.0
aF10.75177883994618
ag2
(g6
S'@\xaa\xca\xe8\x88\xad\xea?'
p1566
tp1567
Rp1568
a(g2
(g6
S'\xaf(\xfd\x1e\x8c\xad\xea?'
p1569
tp1570
Rp1571
g1558
tp1572
a(g1571
F0.0005049947844831124
tp1573
aa(lp1574
(g1571
F0.0005049947844831124
tp1575
ag2
(g6
S'\x18\\\xe8klx\xbf<'
p1576
tp1577
Rp1578
aI27588361437
aF1.0
aF10.752138996394658
ag2
(g6
S'\x1e\xa7/U\x8f\xad\xea?'
p1579
tp1580
Rp1581
a(g2
(g6
S'\x8c%b\x8b\x92\xad\xea?'
p1582
tp1583
Rp1584
g1571
tp1585
a(g1584
F0.0005170437142624641
tp1586
aa(lp1587
(g1584
F0.0005170437142624641
tp1588
ag2
(g6
S'\x9fGo\xf4\x8ex\xbf<'
p1589
tp1590
Rp1591
aI27588361438
aF1.0
aF10.752499059609155
ag2
(g6
S'\xfb\xa3\x94\xc1\x95\xad\xea?'
p1592
tp1593
Rp1594
a(g2
(g6
S'j"\xc7\xf7\x98\xad\xea?'
p1595
tp1596
Rp1597
g1584
tp1598
a(g1597
F0.0005290928457880098
tp1599
aa(lp1600
(g1597
F0.0005290928457880098
tp1601
ag2
(g6
S'(\x00B}\xb1x\xbf<'
p1602
tp1603
Rp1604
aI27588361438
aF1.0
aF10.752859216057608
ag2
(g6
S'\xd9\xa0\xf9-\x9c\xad\xea?'
p1605
tp1606
Rp1607
a(g2
(g6
S'H\x1f,d\x9f\xad\xea?'
p1608
tp1609
Rp1610
g1597
tp1611
a(g1610
F0.00054114217906607
tp1612
aa(lp1613
(g1610
F0.00054114217906607
tp1614
ag2
(g6
S'Q\x87`\x06\xd4x\xbf<'
p1615
tp1616
Rp1617
aI27588361437
aF1.0
aF10.753219373285607
ag2
(g6
S'\xb6\x9d^\x9a\xa2\xad\xea?'
p1618
tp1619
Rp1620
a(g2
(g6
S'%\x1c\x91\xd0\xa5\xad\xea?'
p1621
tp1622
Rp1623
g1610
tp1624
a(g1623
F0.0005531917141029655
tp1625
aa(lp1626
(g1623
F0.0005531917141029655
tp1627
ag2
(g6
S'\xcc\xdd\xca\x8f\xf6x\xbf<'
p1628
tp1629
Rp1630
aI27588361437
aF1.0
aF10.753579575961329
ag2
(g6
S'\x94\x9a\xc3\x06\xa9\xad\xea?'
p1631
tp1632
Rp1633
a(g2
(g6
S'\x02\x19\xf6<\xac\xad\xea?'
p1634
tp1635
Rp1636
g1623
tp1637
a(g1636
F0.000565241450905891
tp1638
aa(lp1639
(g1636
F0.000565241450905891
tp1640
ag2
(g6
S'\xc9\x04\x81\x19\x19y\xbf<'
p1641
tp1642
Rp1643
aI27588361438
aF1.0
aF10.75393977785745
ag2
(g6
S'q\x97(s\xaf\xad\xea?'
p1644
tp1645
Rp1646
a(g2
(g6
S'\xe0\x15[\xa9\xb2\xad\xea?'
p1647
tp1648
Rp1649
g1636
tp1650
a(g1649
F0.0005772913894820416
tp1651
aa(lp1652
(g1649
F0.0005772913894820416
tp1653
ag2
(g6
S'9\xfd\x82\xa3;y\xbf<'
p1654
tp1655
Rp1656
aI27588361438
aF1.0
aF10.754299980533144
ag2
(g6
S'O\x94\x8d\xdf\xb5\xad\xea?'
p1657
tp1658
Rp1659
a(g2
(g6
S'\xbe\x12\xc0\x15\xb9\xad\xea?'
p1660
tp1661
Rp1662
g1649
tp1663
a(g1662
F0.0005893415298377392
tp1664
aa(lp1665
(g1662
F0.0005893415298377392
tp1666
ag2
(g6
S'\x1b\xc8\xd0-^y\xbf<'
p1667
tp1668
Rp1669
aI27588361437
aF1.0
aF10.754660230215734
ag2
(g6
S',\x91\xf2K\xbc\xad\xea?'
p1670
tp1671
Rp1672
a(g2
(g6
S'\x9b\x0f%\x82\xbf\xad\xea?'
p1673
tp1674
Rp1675
g1662
tp1676
a(g1675
F0.0006013918719793059
tp1677
aa(lp1678
(g1675
F0.0006013918719793059
tp1679
ag2
(g6
S'\x95fj\xb8\x80y\xbf<'
p1680
tp1681
Rp1682
aI27588361437
aF1.0
aF10.755020479118699
ag2
(g6
S'\n\x8eW\xb8\xc2\xad\xea?'
p1683
tp1684
Rp1685
a(g2
(g6
S'x\x0c\x8a\xee\xc5\xad\xea?'
p1686
tp1687
Rp1688
g1675
tp1689
a(g1688
F0.0006134424159139379
tp1690
aa(lp1691
(g1688
F0.0006134424159139379
tp1692
ag2
(g6
S'\xd8\xd9OC\xa3y\xbf<'
p1693
tp1694
Rp1695
aI27588361438
aF1.0
aF10.7553807734692
ag2
(g6
S'\xe7\x8a\xbc$\xc9\xad\xea?'
p1696
tp1697
Rp1698
a(g2
(g6
S'V\t\xefZ\xcc\xad\xea?'
p1699
tp1700
Rp1701
g1688
tp1702
a(g1701
F0.0006254931616488319
tp1703
aa(lp1704
(g1701
F0.0006254931616488319
tp1705
ag2
(g6
S'\xaf"\x81\xce\xc5y\xbf<'
p1706
tp1707
Rp1708
aI27588361438
aF1.0
aF10.755741114826623
ag2
(g6
S'\xc5\x87!\x91\xcf\xad\xea?'
p1709
tp1710
Rp1711
a(g2
(g6
S'4\x06T\xc7\xd2\xad\xea?'
p1712
tp1713
Rp1714
g1701
tp1715
a(g1714
F0.0006375441091903111
tp1716
aa(lp1717
(g1714
F0.0006375441091903111
tp1718
ag2
(g6
S'jB\xfeY\xe8y\xbf<'
p1719
tp1720
Rp1721
aI27588361437
aF1.0
aF10.75610141073656
ag2
(g6
S'\xa2\x84\x86\xfd\xd5\xad\xea?'
p1722
tp1723
Rp1724
a(g2
(g6
S'\x11\x03\xb93\xd9\xad\xea?'
p1725
tp1726
Rp1727
g1714
tp1728
a(g1727
F0.0006495952585446992
tp1729
aa(lp1730
(g1727
F0.0006495952585446992
tp1731
ag2
(g6
S'e9\xc7\xe5\nz\xbf<'
p1732
tp1733
Rp1734
aI27588361437
aF1.0
aF10.75646175209401
ag2
(g6
S'\x80\x81\xebi\xdc\xad\xea?'
p1735
tp1736
Rp1737
a(g2
(g6
S'\xee\xff\x1d\xa0\xdf\xad\xea?'
p1738
tp1739
Rp1740
g1727
tp1741
a(g1740
F0.0006616466097191938
tp1742
aa(lp1743
(g1740
F0.0006616466097191938
tp1744
ag2
(g6
S'\x0e\n\xdcq-z\xbf<'
p1745
tp1746
Rp1747
aI27588361438
aF1.0
aF10.75682209267165
ag2
(g6
S']~P\xd6\xe2\xad\xea?'
p1748
tp1749
Rp1750
a(g2
(g6
S'\xcc\xfc\x82\x0c\xe6\xad\xea?'
p1751
tp1752
Rp1753
g1740
tp1754
a(g1753
F0.0006736981627209931
tp1755
aa(lp1756
(g1753
F0.0006736981627209931
tp1757
ag2
(g6
S'\xcd\xb3<\xfeOz\xbf<'
p1758
tp1759
Rp1760
aI27588361438
aF1.0
aF10.757182434029072
ag2
(g6
S';{\xb5B\xe9\xad\xea?'
p1761
tp1762
Rp1763
a(g2
(g6
S'\xaa\xf9\xe7x\xec\xad\xea?'
p1764
tp1765
Rp1766
g1753
tp1767
a(g1766
F0.0006857499175564216
tp1768
aa(lp1769
(g1766
F0.0006857499175564216
tp1770
ag2
(g6
S'\xe18\xe9\x8arz\xbf<'
p1771
tp1772
Rp1773
aI27588361437
aF1.0
aF10.757542868620844
ag2
(g6
S'\x18x\x1a\xaf\xef\xad\xea?'
p1774
tp1775
Rp1776
a(g2
(g6
S'\x87\xf6L\xe5\xf2\xad\xea?'
p1777
tp1778
Rp1779
g1766
tp1780
a(g1779
F0.0006978018742318046
tp1781
aa(lp1782
(g1779
F0.0006978018742318046
tp1783
ag2
(g6
S'\xcc\x99\xe1\x17\x95z\xbf<'
p1784
tp1785
Rp1786
aI27588361437
aF1.0
aF10.757903302432778
ag2
(g6
S'\xf6t\x7f\x1b\xf6\xad\xea?'
p1787
tp1788
Rp1789
a(g2
(g6
S'd\xf3\xb1Q\xf9\xad\xea?'
p1790
tp1791
Rp1792
g1779
tp1793
a(g1792
F0.0007098540327543412
tp1794
aa(lp1795
(g1792
F0.0007098540327543412
tp1796
ag2
(g6
S'\xbb\xd7%\xa5\xb7z\xbf<'
p1797
tp1798
Rp1799
aI27588361438
aF1.0
aF10.7582637354648
ag2
(g6
S'\xd3q\xe4\x87\xfc\xad\xea?'
p1800
tp1801
Rp1802
a(g2
(g6
S'B\xf0\x16\xbe\xff\xad\xea?'
p1803
tp1804
Rp1805
g1792
tp1806
a(g1805
F0.0007219063931312309
tp1807
aa(lp1808
(g1805
F0.0007219063931312309
tp1809
ag2
(g6
S'\x82\xf3\xb52\xdaz\xbf<'
p1810
tp1811
Rp1812
aI27588361438
aF1.0
aF10.758624123049465
ag2
(g6
S'\xb1nI\xf4\x02\xae\xea?'
p1813
tp1814
Rp1815
a(g2
(g6
S' \xed{*\x06\xae\xea?'
p1816
tp1817
Rp1818
g1805
tp1819
a(g1818
F0.0007339589553687999
tp1820
aa(lp1821
(g1818
F0.0007339589553687999
tp1822
ag2
(g6
S'\xe9\xee\x91\xc0\xfcz\xbf<'
p1823
tp1824
Rp1825
aI27588361438
aF1.0
aF10.75898464931586
ag2
(g6
S'\x8fk\xae`\t\xae\xea?'
p1826
tp1827
Rp1828
a(g2
(g6
S'\xfe\xe9\xe0\x96\x0c\xae\xea?'
p1829
tp1830
Rp1831
g1818
tp1832
a(g1831
F0.0007460117194738116
tp1833
aa(lp1834
(g1831
F0.0007460117194738116
tp1835
ag2
(g6
S'>\xca\xb9N\x1f{\xbf<'
p1836
tp1837
Rp1838
aI27588361438
aF1.0
aF10.759345129355012
ag2
(g6
S'mh\x13\xcd\x0f\xae\xea?'
p1839
tp1840
Rp1841
a(g2
(g6
S'\xdc\xe6E\x03\x13\xae\xea?'
p1842
tp1843
Rp1844
g1831
tp1845
a(g1844
F0.0007580646854530298
tp1846
aa(lp1847
(g1844
F0.0007580646854530298
tp1848
ag2
(g6
S'T\x86-\xddA{\xbf<'
p1849
tp1850
Rp1851
aI27588361437
aF1.0
aF10.759705656401422
ag2
(g6
S'Jex9\x16\xae\xea?'
p1852
tp1853
Rp1854
a(g2
(g6
S'\xb9\xe3\xaao\x19\xae\xea?'
p1855
tp1856
Rp1857
g1844
tp1858
a(g1857
F0.0007701178533127815
tp1859
aa.