(lp0
(lp1
(cnumpy.core.multiarray
scalar
p2
(cnumpy
dtype
p3
(S'f8'
p4
I0
I1
tp5
Rp6
(I3
S'<'
p7
NNNI-1
I-1
I0
tp8
bS'b\xbe\x95AQ\xc1\xe0?'
p9
tp10
Rp11
F-0.00048828124999558404
tp12
ag2
(g6
S'>\x14:T\xe6k\xb1<'
p13
tp14
Rp15
aI62500000000
aF1.0
aF-1.5563626286559786
ag2
(g6
S'\xe2\xe6:\x88X\xc1\xe0?'
p16
tp17
Rp18
a(g2
(g6
S'b\x0f\xe0\xce_\xc1\xe0?'
p19
tp20
Rp21
g11
tp22
a(g21
F-0.00047317052196927496
tp23
aa(lp24
(g21
F-0.00047317052196927496
tp25
ag2
(g6
S'a.R\x01\xdbk\xb1<'
p26
tp27
Rp28
aI62500000000
aF1.0
aF-1.5563138276504165
ag2
(g6
S'\xe27\x85\x15g\xc1\xe0?'
p29
tp30
Rp31
a(g2
(g6
S'b`*\\n\xc1\xe0?'
p32
tp33
Rp34
g21
tp35
a(g34
F-0.00045805994381288573
tp36
aa(lp37
(g34
F-0.00045805994381288573
tp38
ag2
(g6
S'\x14\x8e\x81\xae\xcfk\xb1<'
p39
tp40
Rp41
aI62500000000
aF1.0
aF-1.5562650221412546
ag2
(g6
S'\xe2\x88\xcf\xa2u\xc1\xe0?'
p42
tp43
Rp44
a(g2
(g6
S'b\xb1t\xe9|\xc1\xe0?'
p45
tp46
Rp47
g34
tp48
a(g47
F-0.00044294951552171667
tp49
aa(lp50
(g47
F-0.00044294951552171667
tp51
ag2
(g6
S'\x003\xc8[\xc4k\xb1<'
p52
tp53
Rp54
aI62500000000
aF1.0
aF-1.556216216632093
ag2
(g6
S'\xe2\xd9\x190\x84\xc1\xe0?'
p55
tp56
Rp57
a(g2
(g6
S'b\x02\xbfv\x8b\xc1\xe0?'
p58
tp59
Rp60
g47
tp61
a(g60
F-0.00042783923709106836
tp62
aa(lp63
(g60
F-0.00042783923709106836
tp64
ag2
(g6
S'\x02\x1d&\t\xb9k\xb1<'
p65
tp66
Rp67
aI62500000000
aF1.0
aF-1.5561674201301303
ag2
(g6
S'\xe2*d\xbd\x92\xc1\xe0?'
p68
tp69
Rp70
a(g2
(g6
S'bS\t\x04\x9a\xc1\xe0?'
p71
tp72
Rp73
g60
tp74
a(g73
F-0.0004127291085162415
tp75
aa(lp76
(g73
F-0.0004127291085162415
tp77
ag2
(g6
S'\xd4K\x9b\xb6\xadk\xb1<'
p78
tp79
Rp80
aI62500000000
aF1.0
aF-1.5561186236281679
ag2
(g6
S'\xe2{\xaeJ\xa1\xc1\xe0?'
p81
tp82
Rp83
a(g2
(g6
S'b\xa4S\x91\xa8\xc1\xe0?'
p84
tp85
Rp86
g73
tp87
a(g86
F-0.00039761912979253695
tp88
aa(lp89
(g86
F-0.00039761912979253695
tp90
ag2
(g6
S"@\xbf'd\xa2k\xb1<"
p91
tp92
Rp93
aI62500000000
aF1.0
aF-1.5560698271262052
ag2
(g6
S'\xe2\xcc\xf8\xd7\xaf\xc1\xe0?'
p94
tp95
Rp96
a(g2
(g6
S'b\xf5\x9d\x1e\xb7\xc1\xe0?'
p97
tp98
Rp99
g86
tp100
a(g99
F-0.00038250930091525583
tp101
aa(lp102
(g99
F-0.00038250930091525583
tp103
ag2
(g6
S'\x00w\xcb\x11\x97k\xb1<'
p104
tp105
Rp106
aI62500000000
aF1.0
aF-1.5560210351278423
ag2
(g6
S'\xe2\x1dCe\xbe\xc1\xe0?'
p107
tp108
Rp109
a(g2
(g6
S'bF\xe8\xab\xc5\xc1\xe0?'
p110
tp111
Rp112
g99
tp113
a(g112
F-0.0003673996218796994
tp114
aa(lp115
(g112
F-0.0003673996218796994
tp116
ag2
(g6
S'\xe0r\x86\xbf\x8bk\xb1<'
p117
tp118
Rp119
aI62500000000
aF1.0
aF-1.555972247633079
ag2
(g6
S'\xe2n\x8d\xf2\xcc\xc1\xe0?'
p120
tp121
Rp122
a(g2
(g6
S'b\x9729\xd4\xc1\xe0?'
p123
tp124
Rp125
g112
tp126
a(g125
F-0.0003522900926811691
tp127
aa(lp128
(g125
F-0.0003522900926811691
tp129
ag2
(g6
S'\xbd\xb2Xm\x80k\xb1<'
p130
tp131
Rp132
aI62500000000
aF1.0
aF-1.5559234511311164
ag2
(g6
S'\xe2\xbf\xd7\x7f\xdb\xc1\xe0?'
p133
tp134
Rp135
a(g2
(g6
S'b\xe8|\xc6\xe2\xc1\xe0?'
p136
tp137
Rp138
g125
tp139
a(g138
F-0.0003371807133149665
tp140
aa(lp141
(g138
F-0.0003371807133149665
tp142
ag2
(g6
S'\t6B\x1buk\xb1<'
p143
tp144
Rp145
aI62500000000
aF1.0
aF-1.5558746636363532
ag2
(g6
S'\xe2\x10"\r\xea\xc1\xe0?'
p146
tp147
Rp148
a(g2
(g6
S'b9\xc7S\xf1\xc1\xe0?'
p149
tp150
Rp151
g138
tp152
a(g151
F-0.0003220714837763936
tp153
aa(lp154
(g151
F-0.0003220714837763936
tp155
ag2
(g6
S'\xf9\xfcB\xc9ik\xb1<'
p156
tp157
Rp158
aI62500000000
aF1.0
aF-1.5558258806451895
ag2
(g6
S'\xe2al\x9a\xf8\xc1\xe0?'
p159
tp160
Rp161
a(g2
(g6
S'b\x8a\x11\xe1\xff\xc1\xe0?'
p162
tp163
Rp164
g151
tp165
a(g164
F-0.00030696240406075223
tp166
aa(lp167
(g164
F-0.00030696240406075223
tp168
ag2
(g6
S'\xf0\x06[w^k\xb1<'
p169
tp170
Rp171
aI62500000000
aF1.0
aF-1.5557770976540257
ag2
(g6
S"\xe2\xb2\xb6'\x07\xc2\xe0?"
p172
tp173
Rp174
a(g2
(g6
S'b\xdb[n\x0e\xc2\xe0?'
p175
tp176
Rp177
g164
tp178
a(g177
F-0.00029185347416334467
tp179
aa(lp180
(g177
F-0.00029185347416334467
tp181
ag2
(g6
S'\xecS\x8a%Sk\xb1<'
p182
tp183
Rp184
aI62500000000
aF1.0
aF-1.555728314662862
ag2
(g6
S'\xe2\x03\x01\xb5\x15\xc2\xe0?'
p185
tp186
Rp187
a(g2
(g6
S'b,\xa6\xfb\x1c\xc2\xe0?'
p188
tp189
Rp190
g177
tp191
a(g190
F-0.00027674469407947325
tp192
aa(lp193
(g190
F-0.00027674469407947325
tp194
ag2
(g6
S'\xa8\xe3\xd0\xd3Gk\xb1<'
p195
tp196
Rp197
aI62500000000
aF1.0
aF-1.5556795406788977
ag2
(g6
S'\xe2TKB$\xc2\xe0?'
p198
tp199
Rp200
a(g2
(g6
S'b}\xf0\x88+\xc2\xe0?'
p201
tp202
Rp203
g190
tp204
a(g203
F-0.0002616360638044405
tp205
aa(lp206
(g203
F-0.0002616360638044405
tp207
ag2
(g6
S'\xcc\xb5.\x82<k\xb1<'
p208
tp209
Rp210
aI62500000000
aF1.0
aF-1.555630757687734
ag2
(g6
S'\xe2\xa5\x95\xcf2\xc2\xe0?'
p211
tp212
Rp213
a(g2
(g6
S'b\xce:\x16:\xc2\xe0?'
p214
tp215
Rp216
g203
tp217
a(g216
F-0.00024652758333354924
tp218
aa(lp219
(g2
(g6
S'\xe2\xf6\xdf\\A\xc2\xe0?'
p220
tp221
Rp222
F-0.0002389733992731888
tp223
ag2
(g6
S'\xdb\x9c\x03\x054k\xb1<'
p224
tp225
Rp226
aI31250000000
aF1.0
aF-1.555594174947961
ag2
(g6
S'\xa2b\x8d\xb9=\xc2\xe0?'
p227
tp228
Rp229
a(g222
g2
(g6
S'b\xce:\x16:\xc2\xe0?'
p230
tp231
Rp232
tp233
a(g232
F-0.00024652758333354924
tp234
aa(lp235
(g222
F-0.0002389733992731888
tp236
ag2
(g6
S'\xa0\xf7C\\.k\xb1<'
p237
tp238
Rp239
aI31250000000
aF1.0
aF-1.5555697924595784
ag2
(g6
S'"\x8b2\x00E\xc2\xe0?'
p240
tp241
Rp242
a(g2
(g6
S'b\x1f\x85\xa3H\xc2\xe0?'
p243
tp244
Rp245
g222
tp246
a(g245
F-0.00023141925266210233
tp247
aa(lp248
(g245
F-0.00023141925266210233
tp249
ag2
(g6
S'\xcb"\x8a\xb3(k\xb1<'
p250
tp251
Rp252
aI31250000000
aF1.0
aF-1.5555454099711956
ag2
(g6
S'\xa2\xb3\xd7FL\xc2\xe0?'
p253
tp254
Rp255
a(g2
(g6
S'\xe2G*\xeaO\xc2\xe0?'
p256
tp257
Rp258
g245
tp259
a(g258
F-0.00022386514349970275
tp260
aa(lp261
(g258
F-0.00022386514349970275
tp262
ag2
(g6
S'\x8f\x1e\xd6\n#k\xb1<'
p263
tp264
Rp265
aI31250000000
aF1.0
aF-1.5555210184756139
ag2
(g6
S'"\xdc|\x8dS\xc2\xe0?'
p266
tp267
Rp268
a(g2
(g6
S'bp\xcf0W\xc2\xe0?'
p269
tp270
Rp271
g258
tp272
a(g271
F-0.0002163110717854029
tp273
aa(lp274
(g271
F-0.0002163110717854029
tp275
ag2
(g6
S"\xa8\xea'b\x1dk\xb1<"
p276
tp277
Rp278
aI31250000000
aF1.0
aF-1.5554966179728327
ag2
(g6
S'\xa2\x04"\xd4Z\xc2\xe0?'
p279
tp280
Rp281
a(g2
(g6
S'\xe2\x98tw^\xc2\xe0?'
p282
tp283
Rp284
g271
tp285
a(g284
F-0.00020875703751861577
tp286
aa(lp287
(g284
F-0.00020875703751861577
tp288
ag2
(g6
S'%\x87\x7f\xb9\x17k\xb1<'
p289
tp290
Rp291
aI31250000000
aF1.0
aF-1.5554722354844501
ag2
(g6
S'"-\xc7\x1ab\xc2\xe0?'
p292
tp293
Rp294
a(g2
(g6
S'b\xc1\x19\xbee\xc2\xe0?'
p295
tp296
Rp297
g284
tp298
a(g297
F-0.00020120304069875427
tp299
aa(lp300
(g297
F-0.00020120304069875427
tp301
ag2
(g6
S'\x07\xf4\xdc\x10\x12k\xb1<'
p302
tp303
Rp304
aI31250000000
aF1.0
aF-1.5554478529960676
ag2
(g6
S'\xa2Ulai\xc2\xe0?'
p305
tp306
Rp307
a(g2
(g6
S'\xe2\xe9\xbe\x04m\xc2\xe0?'
p308
tp309
Rp310
g297
tp311
a(g310
F-0.00019364908132523133
tp312
aa(lp313
(g310
F-0.00019364908132523133
tp314
ag2
(g6
S'O1@h\x0ck\xb1<'
p315
tp316
Rp317
aI31250000000
aF1.0
aF-1.555423470507685
ag2
(g6
S'"~\x11\xa8p\xc2\xe0?'
p318
tp319
Rp320
a(g2
(g6
S'b\x12dKt\xc2\xe0?'
p321
tp322
Rp323
g310
tp324
a(g323
F-0.00018609515939745988
tp325
aa(lp326
(g323
F-0.00018609515939745988
tp327
ag2
(g6
S'\xd8>\xa9\xbf\x06k\xb1<'
p328
tp329
Rp330
aI31250000000
aF1.0
aF-1.5553990790121033
ag2
(g6
S'\xa2\xa6\xb6\xeew\xc2\xe0?'
p331
tp332
Rp333
a(g2
(g6
S'\xe2:\t\x92{\xc2\xe0?'
p334
tp335
Rp336
g323
tp337
a(g336
F-0.00017854127491485292
tp338
aa(lp339
(g336
F-0.00017854127491485292
tp340
ag2
(g6
S'\xa4\x1c\x18\x17\x01k\xb1<'
p341
tp342
Rp343
aI31250000000
aF1.0
aF-1.55537470553092
ag2
(g6
S'"\xcf[5\x7f\xc2\xe0?'
p344
tp345
Rp346
a(g2
(g6
S'bc\xae\xd8\x82\xc2\xe0?'
p347
tp348
Rp349
g336
tp350
a(g349
F-0.00017098742787682343
tp351
aa(lp352
(g349
F-0.00017098742787682343
tp353
ag2
(g6
S'\xc3\xca\x8cn\xfbj\xb1<'
p354
tp355
Rp356
aI31250000000
aF1.0
aF-1.5553503230425372
ag2
(g6
S'\xa2\xf7\x00|\x86\xc2\xe0?'
p357
tp358
Rp359
a(g2
(g6
S'\xe2\x8bS\x1f\x8a\xc2\xe0?'
p360
tp361
Rp362
g349
tp363
a(g362
F-0.00016343361828278436
tp364
aa(lp365
(g362
F-0.00016343361828278436
tp366
ag2
(g6
S'$I\x07\xc6\xf5j\xb1<'
p367
tp368
Rp369
aI31250000000
aF1.0
aF-1.5553259315469554
ag2
(g6
S'" \xa6\xc2\x8d\xc2\xe0?'
p370
tp371
Rp372
a(g2
(g6
S'b\xb4\xf8e\x91\xc2\xe0?'
p373
tp374
Rp375
g362
tp376
a(g375
F-0.0001558798461321487
tp377
aa(lp378
(g375
F-0.0001558798461321487
tp379
ag2
(g6
S'\x92\x97\x87\x1d\xf0j\xb1<'
p380
tp381
Rp382
aI31250000000
aF1.0
aF-1.5553015490585729
ag2
(g6
S'\xa2HK\t\x95\xc2\xe0?'
p383
tp384
Rp385
a(g2
(g6
S'\xe2\xdc\x9d\xac\x98\xc2\xe0?'
p386
tp387
Rp388
g375
tp389
a(g388
F-0.00014832611142432954
tp390
aa(lp391
(g388
F-0.00014832611142432954
tp392
ag2
(g6
S'T\xb6\ru\xeaj\xb1<'
p393
tp394
Rp395
aI31250000000
aF1.0
aF-1.5552771665701903
ag2
(g6
S'"q\xf0O\x9c\xc2\xe0?'
p396
tp397
Rp398
a(g2
(g6
S'b\x05C\xf3\x9f\xc2\xe0?'
p399
tp400
Rp401
g388
tp402
a(g401
F-0.0001407724141587398
tp403
aa(lp404
(g401
F-0.0001407724141587398
tp405
ag2
(g6
S'#\xa5\x99\xcc\xe4j\xb1<'
p406
tp407
Rp408
aI31250000000
aF1.0
aF-1.5552527840818078
ag2
(g6
S'\xa2\x99\x95\x96\xa3\xc2\xe0?'
p409
tp410
Rp411
a(g2
(g6
S'\xe2-\xe89\xa7\xc2\xe0?'
p412
tp413
Rp414
g401
tp415
a(g414
F-0.00013321875433479257
tp416
aa(lp417
(g414
F-0.00013321875433479257
tp418
ag2
(g6
S'\xffc+$\xdfj\xb1<'
p419
tp420
Rp421
aI31250000000
aF1.0
aF-1.555228401593425
ag2
(g6
S'"\xc2:\xdd\xaa\xc2\xe0?'
p422
tp423
Rp424
a(g2
(g6
S'bV\x8d\x80\xae\xc2\xe0?'
p425
tp426
Rp427
g414
tp428
a(g427
F-0.00012566513195190091
tp429
aa(lp430
(g2
(g6
S'\xe2~2\xc7\xb5\xc2\xe0?'
p431
tp432
Rp433
F-0.00011811154700947782
tp434
ag2
(g6
S'\x1d\xf3\xc2{\xd9j\xb1<'
p435
tp436
Rp437
aI31250000000
aF1.0
aF-1.5552040326158414
ag2
(g6
S'\xa2\xea\xdf#\xb2\xc2\xe0?'
p438
tp439
Rp440
a(g433
g427
tp441
a(g427
F-0.00012566513195190091
tp442
aa(lp443
(g433
F-0.00011811154700947782
tp444
ag2
(g6
S'\x1cR`\xd3\xd3j\xb1<'
p445
tp446
Rp447
aI31250000000
aF1.0
aF-1.5551796501274588
ag2
(g6
S'"\x13\x85j\xb9\xc2\xe0?'
p448
tp449
Rp450
a(g2
(g6
S'b\xa7\xd7\r\xbd\xc2\xe0?'
p451
tp452
Rp453
g433
tp454
a(g453
F-0.00011055799950693641
tp455
aa(lp456
(g453
F-0.00011055799950693641
tp457
ag2
(g6
S';\x81\x03+\xcej\xb1<'
p458
tp459
Rp460
aI31250000000
aF1.0
aF-1.5551552721426758
ag2
(g6
S'\xa2;*\xb1\xc0\xc2\xe0?'
p461
tp462
Rp463
a(g2
(g6
S'\xe2\xcf|T\xc4\xc2\xe0?'
p464
tp465
Rp466
g453
tp467
a(g466
F-0.00010300448944368974
tp468
aa(lp469
(g466
F-0.00010300448944368974
tp470
ag2
(g6
S'K\x80\xac\x82\xc8j\xb1<'
p471
tp472
Rp473
aI31250000000
aF1.0
aF-1.555130894157893
ag2
(g6
S'"d\xcf\xf7\xc7\xc2\xe0?'
p474
tp475
Rp476
a(g2
(g6
S'b\xf8!\x9b\xcb\xc2\xe0?'
p477
tp478
Rp479
g466
tp480
a(g479
F-9.545101681915091e-05
tp481
aa(lp482
(g479
F-9.545101681915091e-05
tp483
ag2
(g6
S'aO[\xda\xc2j\xb1<'
p484
tp485
Rp486
aI31250000000
aF1.0
aF-1.55510651617311
ag2
(g6
S'\xa2\x8ct>\xcf\xc2\xe0?'
p487
tp488
Rp489
a(g2
(g6
S'\xe2 \xc7\xe1\xd2\xc2\xe0?'
p490
tp491
Rp492
g479
tp493
a(g492
F-8.7897581632733e-05
tp494
aa(lp495
(g492
F-8.7897581632733e-05
tp496
ag2
(g6
S'O\xee\x0f2\xbdj\xb1<'
p497
tp498
Rp499
aI31250000000
aF1.0
aF-1.5550821336847274
ag2
(g6
S'"\xb5\x19\x85\xd6\xc2\xe0?'
p500
tp501
Rp502
a(g2
(g6
S'bIl(\xda\xc2\xe0?'
p503
tp504
Rp505
g492
tp506
a(g505
F-8.034418388384916e-05
tp507
aa(lp508
(g505
F-8.034418388384916e-05
tp509
ag2
(g6
S'A]\xca\x89\xb7j\xb1<'
p510
tp511
Rp512
aI31250000000
aF1.0
aF-1.5550577556999443
ag2
(g6
S'\xa2\xdd\xbe\xcb\xdd\xc2\xe0?'
p513
tp514
Rp515
a(g2
(g6
S'\xe2q\x11o\xe1\xc2\xe0?'
p516
tp517
Rp518
g505
tp519
a(g518
F-7.279082357191248e-05
tp520
aa(lp521
(g518
F-7.279082357191248e-05
tp522
ag2
(g6
S'\xfa\x9b\x8a\xe1\xb1j\xb1<'
p523
tp524
Rp525
aI31250000000
aF1.0
aF-1.5550333777151615
ag2
(g6
S'"\x06d\x12\xe5\xc2\xe0?'
p526
tp527
Rp528
a(g2
(g6
S'b\x9a\xb6\xb5\xe8\xc2\xe0?'
p529
tp530
Rp531
g518
tp532
a(g531
F-6.523750069633612e-05
tp533
aa(lp534
(g2
(g6
S'\xe2\xc2[\xfc\xef\xc2\xe0?'
p535
tp536
Rp537
F-5.768421525653322e-05
tp538
ag2
(g6
S'\x94\xaaP9\xacj\xb1<'
p539
tp540
Rp541
aI31250000000
aF1.0
aF-1.5550089997303784
ag2
(g6
S'\xa2.\tY\xec\xc2\xe0?'
p542
tp543
Rp544
a(g537
g531
tp545
a(g531
F-6.523750069633612e-05
tp546
aa(lp547
(g537
F-5.768421525653322e-05
tp548
ag2
(g6
S'\x07\x89\x1c\x91\xa6j\xb1<'
p549
tp550
Rp551
aI31250000000
aF1.0
aF-1.554984628500995
ag2
(g6
S'"W\xae\x9f\xf3\xc2\xe0?'
p552
tp553
Rp554
a(g2
(g6
S'b\xeb\x00C\xf7\xc2\xe0?'
p555
tp556
Rp557
g537
tp558
a(g557
F-5.013096725191693e-05
tp559
aa(lp560
(g557
F-5.013096725191693e-05
tp561
ag2
(g6
S'@7\xee\xe8\xa0j\xb1<'
p562
tp563
Rp564
aI31250000000
aF1.0
aF-1.5549602505162121
ag2
(g6
S'\xa2\x7fS\xe6\xfa\xc2\xe0?'
p565
tp566
Rp567
a(g2
(g6
S'\xe2\x13\xa6\x89\xfe\xc2\xe0?'
p568
tp569
Rp570
g557
tp571
a(g570
F-4.257775668190043e-05
tp572
aa(lp573
(g570
F-4.257775668190043e-05
tp574
ag2
(g6
S'8\xb5\xc5@\x9bj\xb1<'
p575
tp576
Rp577
aI31250000000
aF1.0
aF-1.554935874783229
ag2
(g6
S'"\xa8\xf8,\x02\xc3\xe0?'
p578
tp579
Rp580
a(g2
(g6
S'b<K\xd0\x05\xc3\xe0?'
p581
tp582
Rp583
g570
tp584
a(g583
F-3.50245835458969e-05
tp585
aa(lp586
(g583
F-3.50245835458969e-05
tp587
ag2
(g6
S'\x89\xf5\xaa\x02\x97j\xb1<'
p588
tp589
Rp590
aI15625000000
aF1.0
aF-1.5549175901687418
ag2
(g6
S'\x82\x86\xf4\xa1\x07\xc3\xe0?'
p591
tp592
Rp593
a(g2
(g6
S'\xa2\xd0\x9ds\t\xc3\xe0?'
p594
tp595
Rp596
g583
tp597
a(g596
F-3.1248011015466625e-05
tp598
aa(lp599
(g2
(g6
S'\xe2d\xf0\x16\r\xc3\xe0?'
p600
tp601
Rp602
F-2.747144784331954e-05
tp603
ag2
(g6
S'Q\x10\x9b.\x94j\xb1<'
p604
tp605
Rp606
aI15625000000
aF1.0
aF-1.5549054079317497
ag2
(g6
S'\xc2\x1aGE\x0b\xc3\xe0?'
p607
tp608
Rp609
a(g602
g596
tp610
a(g596
F-3.1248011015466625e-05
tp611
aa(lp612
(g602
F-2.747144784331954e-05
tp613
ag2
(g6
S'\x07\x9f\x8cZ\x91j\xb1<'
p614
tp615
Rp616
aI15625000000
aF1.0
aF-1.5548932166875584
ag2
(g6
S'\x02\xaf\x99\xe8\x0e\xc3\xe0?'
p617
tp618
Rp619
a(g2
(g6
S'"\xf9B\xba\x10\xc3\xe0?'
p620
tp621
Rp622
g602
tp623
a(g622
F-2.3694894029382295e-05
tp624
aa(lp625
(g622
F-2.3694894029382295e-05
tp626
ag2
(g6
S'\xa5\xa1\x7f\x86\x8ej\xb1<'
p627
tp628
Rp629
aI15625000000
aF1.0
aF-1.5548810344505664
ag2
(g6
S'BC\xec\x8b\x12\xc3\xe0?'
p630
tp631
Rp632
a(g2
(g6
S'b\x8d\x95]\x14\xc3\xe0?'
p633
tp634
Rp635
g622
tp636
a(g635
F-1.9918349573581546e-05
tp637
aa(lp638
(g635
F-1.9918349573581546e-05
tp639
ag2
(g6
S'1\x18t\xb2\x8bj\xb1<'
p640
tp641
Rp642
aI15625000000
aF1.0
aF-1.5548688477099748
ag2
(g6
S'\x82\xd7>/\x16\xc3\xe0?'
p643
tp644
Rp645
a(g2
(g6
S'\xa2!\xe8\x00\x18\xc3\xe0?'
p646
tp647
Rp648
g635
tp649
a(g648
F-1.6141814475843943e-05
tp650
aa(lp651
(g2
(g6
S'\xe2\xb5:\xa4\x1b\xc3\xe0?'
p652
tp653
Rp654
F-1.236528873609614e-05
tp655
ag2
(g6
S'\xa5\x02j\xde\x88j\xb1<'
p656
tp657
Rp658
aI15625000000
aF1.0
aF-1.554856660969383
ag2
(g6
S'\xc2k\x91\xd2\x19\xc3\xe0?'
p659
tp660
Rp661
a(g654
g648
tp662
a(g648
F-1.6141814475843943e-05
tp663
aa(lp664
(g654
F-1.236528873609614e-05
tp665
ag2
(g6
S'\x02aa\n\x86j\xb1<'
p666
tp667
Rp668
aI15625000000
aF1.0
aF-1.5548444742287915
ag2
(g6
S'\x02\x00\xe4u\x1d\xc3\xe0?'
p669
tp670
Rp671
a(g2
(g6
S'"J\x8dG\x1f\xc3\xe0?'
p672
tp673
Rp674
g654
tp675
a(g674
F-8.58877235426479e-06
tp676
aa(lp677
(g2
(g6
S'b\xde\xdf\xea"\xc3\xe0?'
p678
tp679
Rp680
F-4.812265330276547e-06
tp681
ag2
(g6
S'H3Z6\x83j\xb1<'
p682
tp683
Rp684
aI15625000000
aF1.0
aF-1.5548322874881997
ag2
(g6
S'B\x946\x19!\xc3\xe0?'
p685
tp686
Rp687
a(g680
g674
tp688
a(g674
F-8.58877235426479e-06
tp689
aa(lp690
(g2
(g6
S'\x11Z@<%\xc3\xe0?'
p691
tp692
Rp693
F-2.4061307658967866e-06
tp694
ag2
(g6
S'\x1b\xed\xb0\xe5\x80j\xb1<'
p695
tp696
Rp697
aI9955212207
aF1.0
aF-1.554822310662675
ag2
(g6
S':\x1c\x90\x13$\xc3\xe0?'
p698
tp699
Rp700
a(g693
g2
(g6
S'b\xde\xdf\xea"\xc3\xe0?'
p701
tp702
Rp703
tp704
a(g703
F-4.812265330276547e-06
tp705
aa(lp706
(g2
(g6
S'\xe8\x97\xf0d&\xc3\xe0?'
p707
tp708
Rp709
F-1.203064908328917e-06
tp710
ag2
(g6
S'\xcf\xe4\xb7\x8b\x7fj\xb1<'
p711
tp712
Rp713
aI4977606103
aF1.0
aF-1.5548164864825955
ag2
(g6
S'\xfcx\x98\xd0%\xc3\xe0?'
p714
tp715
Rp716
a(g709
g693
tp717
a(g693
F-2.4061307658967866e-06
tp718
aa(lp719
(g2
(g6
S'\xd4\xb6H\xf9&\xc3\xe0?'
p720
tp721
Rp722
F-6.015323355483875e-07
tp723
ag2
(g6
S'\xb1\x81\xbb\xde~j\xb1<'
p724
tp725
Rp726
aI2488803052
aF1.0
aF-1.5548135763852184
ag2
(g6
S'^\xa7\x1c\xaf&\xc3\xe0?'
p727
tp728
Rp729
a(g722
g709
tp730
a(g709
F-1.203064908328917e-06
tp731
aa(lp732
(F0.5238225713898643
F-1.836318268327936e-16
tp733
ag2
(g6
S'\x84\xa1hk~j\xb1<'
p734
tp735
Rp736
aI2488803052
aF1.0
aF-1.5548116321141703
ag2
(g6
S"J\xc6tC'\xc3\xe0?"
p737
tp738
Rp739
a(F0.5238225713898643
g722
tp740
a(g722
F-6.015323355483875e-07
tp741
aa(lp742
(F0.5238225713898643
F-1.836318268327936e-16
tp743
ag2
(g6
S'\xaa\x07\x0c\xd9}j\xb1<'
p744
tp745
Rp746
aI3828474904
aF1.0
aF-1.554809171428017
ag2
(g6
S"\xcc\xc7\xb9\xff'\xc3\xe0?"
p747
tp748
Rp749
a(g2
(g6
S'\xd8\xb9\xd2q(\xc3\xe0?'
p750
tp751
Rp752
F0.5238225713898643
tp753
a(g752
F9.253244422093446e-07
tp754
aa(lp755
(g752
F9.253244422093446e-07
tp756
ag2
(g6
S"\xb7\xbc\xa5'}j\xb1<"
p757
tp758
Rp759
aI3828474905
aF1.0
aF-1.554806185252493
ag2
(g6
S'\xe4\xab\xeb\xe3(\xc3\xe0?'
p760
tp761
Rp762
a(g2
(g6
S'\xf1\x9d\x04V)\xc3\xe0?'
p763
tp764
Rp765
g752
tp766
a(g765
F1.8506483230478885e-06
tp767
aa(lp768
(g765
F1.8506483230478885e-06
tp769
ag2
(g6
S'\xf5x\x8c\x1d|j\xb1<'
p770
tp771
Rp772
aI7656949809
aF1.0
aF-1.554801705855509
ag2
(g6
S'\n\x826:*\xc3\xe0?'
p773
tp774
Rp775
a(g2
(g6
S'"fh\x1e+\xc3\xe0?'
p776
tp777
Rp778
g765
tp779
a(g778
F3.7012943990992135e-06
tp780
aa(lp781
(g778
F3.7012943990992135e-06
tp782
ag2
(g6
S'\xb6\x8dZ\tzj\xb1<'
p783
tp784
Rp785
aI15313899619
aF1.0
aF-1.5547927495625808
ag2
(g6
S'T.\xcc\xe6,\xc3\xe0?'
p786
tp787
Rp788
a(g2
(g6
S'\x85\xf6/\xaf.\xc3\xe0?'
p789
tp790
Rp791
g778
tp792
a(g791
F7.402579809937495e-06
tp793
aa(lp794
(g791
F7.402579809937495e-06
tp795
ag2
(g6
S'\x15\xd3\xc3Cwj\xb1<'
p796
tp797
Rp798
aI15313899619
aF1.0
aF-1.554780804593091
ag2
(g6
S'\xb6\xbe\x93w0\xc3\xe0?'
p799
tp800
Rp801
a(g2
(g6
S'\xe8\x86\xf7?2\xc3\xe0?'
p802
tp803
Rp804
g791
tp805
a(g804
F1.1103856232158566e-05
tp806
aa(lp807
(g804
F1.1103856232158566e-05
tp808
ag2
(g6
S'\xab}.~tj\xb1<'
p809
tp810
Rp811
aI15313899618
aF1.0
aF-1.5547688609987644
ag2
(g6
S'\x19O[\x084\xc3\xe0?'
p812
tp813
Rp814
a(g2
(g6
S'J\x17\xbf\xd05\xc3\xe0?'
p815
tp816
Rp817
g804
tp818
a(g817
F1.480512366558978e-05
tp819
aa(lp820
(g817
F1.480512366558978e-05
tp821
ag2
(g6
S'}\x8d\x9a\xb8qj\xb1<'
p822
tp823
Rp824
aI15313899618
aF1.0
aF-1.5547569195456021
ag2
(g6
S'{\xdf"\x997\xc3\xe0?'
p825
tp826
Rp827
a(g2
(g6
S'\xac\xa7\x86a9\xc3\xe0?'
p828
tp829
Rp830
g817
tp831
a(g830
F1.850638211054188e-05
tp832
aa(lp833
(g830
F1.850638211054188e-05
tp834
ag2
(g6
S'\x85\x02\x08\xf3nj\xb1<'
p835
tp836
Rp837
aI15313899619
aF1.0
aF-1.5547449778893896
ag2
(g6
S'\xdeo\xea);\xc3\xe0?'
p838
tp839
Rp840
a(g2
(g6
S'\x0f8N\xf2<\xc3\xe0?'
p841
tp842
Rp843
g830
tp844
a(g843
F2.22076315673256e-05
tp845
aa(lp846
(g843
F2.22076315673256e-05
tp847
ag2
(g6
S'\xc6\xdcv-lj\xb1<'
p848
tp849
Rp850
aI15313899619
aF1.0
aF-1.5547330364362288
ag2
(g6
S'@\x00\xb2\xba>\xc3\xe0?'
p851
tp852
Rp853
a(g2
(g6
S'r\xc8\x15\x83@\xc3\xe0?'
p854
tp855
Rp856
g843
tp857
a(g856
F2.59088720357683e-05
tp858
aa(lp859
(g856
F2.59088720357683e-05
tp860
ag2
(g6
S':\x1c\xe7gij\xb1<'
p861
tp862
Rp863
aI15313899618
aF1.0
aF-1.5547210904976765
ag2
(g6
S'\xa3\x90yKB\xc3\xe0?'
p864
tp865
Rp866
a(g2
(g6
S'\xd4X\xdd\x13D\xc3\xe0?'
p867
tp868
Rp869
g856
tp870
a(g869
F2.9610103515697326e-05
tp871
aa(lp872
(g869
F2.9610103515697326e-05
tp873
ag2
(g6
S'\xe2\xc0X\xa2fj\xb1<'
p874
tp875
Rp876
aI15313899618
aF1.0
aF-1.554709153732953
ag2
(g6
S'\x05!A\xdcE\xc3\xe0?'
p877
tp878
Rp879
a(g2
(g6
S'6\xe9\xa4\xa4G\xc3\xe0?'
p880
tp881
Rp882
g869
tp883
a(g882
F3.3311326007423416e-05
tp884
aa(lp885
(g882
F3.3311326007423416e-05
tp886
ag2
(g6
S'\xc7\xca\xcb\xdccj\xb1<'
p887
tp888
Rp889
aI15313899619
aF1.0
aF-1.554697207388308
ag2
(g6
S'h\xb1\x08mI\xc3\xe0?'
p890
tp891
Rp892
a(g2
(g6
S'\x99yl5K\xc3\xe0?'
p893
tp894
Rp895
g882
tp896
a(g895
F3.701253951125731e-05
tp897
aa(lp898
(g895
F3.701253951125731e-05
tp899
ag2
(g6
S'\xf7#{\xb4_j\xb1<'
p900
tp901
Rp902
aI30627799237
aF1.0
aF-1.5546792929658684
ag2
(g6
S'\xfc\t4\xc6N\xc3\xe0?'
p903
tp904
Rp905
a(g2
(g6
S'^\x9a\xfbVR\xc3\xe0?'
p906
tp907
Rp908
g895
tp909
a(g908
F4.441493955455789e-05
tp910
aa(lp911
(g908
F4.441493955455789e-05
tp912
ag2
(g6
S'\xe5\x96i)Zj\xb1<'
p913
tp914
Rp915
aI30627799237
aF1.0
aF-1.554655407715326
ag2
(g6
S'\xc0*\xc3\xe7U\xc3\xe0?'
p916
tp917
Rp918
a(g2
(g6
S'#\xbb\x8axY\xc3\xe0?'
p919
tp920
Rp921
g908
tp922
a(g921
F5.181730364615142e-05
tp923
aa(lp924
(g921
F5.181730364615142e-05
tp925
ag2
(g6
S'\x96\x9e]\x9eTj\xb1<'
p926
tp927
Rp928
aI30627799237
aF1.0
aF-1.554631524809003
ag2
(g6
S'\x86KR\t]\xc3\xe0?'
p929
tp930
Rp931
a(g2
(g6
S'\xe8\xdb\x19\x9a`\xc3\xe0?'
p932
tp933
Rp934
g921
tp935
a(g934
F5.921963178659021e-05
tp936
aa(lp937
(g934
F5.921963178659021e-05
tp938
ag2
(g6
S'\xfc:W\x13Oj\xb1<'
p939
tp940
Rp941
aI30627799237
aF1.0
aF-1.5546076395584607
ag2
(g6
S'Jl\xe1*d\xc3\xe0?'
p942
tp943
Rp944
a(g2
(g6
S'\xad\xfc\xa8\xbbg\xc3\xe0?'
p945
tp946
Rp947
g934
tp948
a(g947
F6.662192397642658e-05
tp949
aa(lp950
(g947
F6.662192397642658e-05
tp951
ag2
(g6
S'\x0flV\x88Ij\xb1<'
p952
tp953
Rp954
aI30627799237
aF1.0
aF-1.5545837566521377
ag2
(g6
S'\x10\x8dpLk\xc3\xe0?'
p955
tp956
Rp957
a(g2
(g6
S'r\x1d8\xddn\xc3\xe0?'
p958
tp959
Rp960
g947
tp961
a(g960
F7.402418021621281e-05
tp962
aa(lp963
(g960
F7.402418021621281e-05
tp964
ag2
(g6
S'\xe11[\xfdCj\xb1<'
p965
tp966
Rp967
aI30627799237
aF1.0
aF-1.5545598784342534
ag2
(g6
S'\xd4\xad\xffmr\xc3\xe0?'
p968
tp969
Rp970
a(g2
(g6
S'7>\xc7\xfeu\xc3\xe0?'
p971
tp972
Rp973
g960
tp974
a(g973
F8.142640050650123e-05
tp975
aa(lp976
(g973
F8.142640050650123e-05
tp977
ag2
(g6
S'L\x8cer>j\xb1<'
p978
tp979
Rp980
aI30627799237
aF1.0
aF-1.5545359908394916
ag2
(g6
S'\x9a\xce\x8e\x8fy\xc3\xe0?'
p981
tp982
Rp983
a(g2
(g6
S'\xfc^V }\xc3\xe0?'
p984
tp985
Rp986
g973
tp987
a(g986
F8.88285848478441e-05
tp988
aa(lp989
(g986
F8.88285848478441e-05
tp990
ag2
(g6
S'S{u\xe78j\xb1<'
p991
tp992
Rp993
aI30627799237
aF1.0
aF-1.5545121079331685
ag2
(g6
S'^\xef\x1d\xb1\x80\xc3\xe0?'
p994
tp995
Rp996
a(g2
(g6
S'\xc1\x7f\xe5A\x84\xc3\xe0?'
p997
tp998
Rp999
g986
tp1000
a(g999
F9.623073324079369e-05
tp1001
aa(lp1002
(g999
F9.623073324079369e-05
tp1003
ag2
(g6
S'\xf3\xfe\x8a\\3j\xb1<'
p1004
tp1005
Rp1006
aI30627799237
aF1.0
aF-1.5544882297152842
ag2
(g6
S'$\x10\xad\xd2\x87\xc3\xe0?'
p1007
tp1008
Rp1009
a(g2
(g6
S'\x86\xa0tc\x8b\xc3\xe0?'
p1010
tp1011
Rp1012
g999
tp1013
a(g1012
F0.00010363284568590226
tp1014
aa(lp1015
(g1012
F0.00010363284568590226
tp1016
ag2
(g6
S'(\x17\xa6\xd1-j\xb1<'
p1017
tp1018
Rp1019
aI30627799238
aF1.0
aF-1.5544643513958931
ag2
(g6
S'\xe90<\xf4\x8e\xc3\xe0?'
p1020
tp1021
Rp1022
a(g2
(g6
S'L\xc1\x03\x85\x92\xc3\xe0?'
p1023
tp1024
Rp1025
g1012
tp1026
a(g1025
F0.00011103492218396375
tp1027
aa(lp1028
(g1025
F0.00011103492218396375
tp1029
ag2
(g6
S'\xe9\xc3\xc6F(j\xb1<'
p1030
tp1031
Rp1032
aI30627799237
aF1.0
aF-1.5544404685910767
ag2
(g6
S'\xaeQ\xcb\x15\x96\xc3\xe0?'
p1033
tp1034
Rp1035
a(g2
(g6
S'\x11\xe2\x92\xa6\x99\xc3\xe0?'
p1036
tp1037
Rp1038
g1025
tp1039
a(g1038
F0.00011843696273504704
tp1040
aa(lp1041
(g1038
F0.00011843696273504704
tp1042
ag2
(g6
S'\x1a\x05\xed\xbb"j\xb1<'
p1043
tp1044
Rp1045
aI30627799237
aF1.0
aF-1.5544165856847536
ag2
(g6
S'trZ7\x9d\xc3\xe0?'
p1046
tp1047
Rp1048
a(g2
(g6
S'\xd6\x02"\xc8\xa0\xc3\xe0?'
p1049
tp1050
Rp1051
g1038
tp1052
a(g1051
F0.00012583896733994602
tp1053
aa(lp1054
(g1051
F0.00012583896733994602
tp1055
ag2
(g6
S'\xe2\xda\x181\x1dj\xb1<'
p1056
tp1057
Rp1058
aI30627799238
aF1.0
aF-1.554392712053806
ag2
(g6
S'9\x93\xe9X\xa4\xc3\xe0?'
p1059
tp1060
Rp1061
a(g2
(g6
S'\x9c#\xb1\xe9\xa7\xc3\xe0?'
p1062
tp1063
Rp1064
g1051
tp1065
a(g1064
F0.0001332409359994546
tp1066
aa(lp1067
(g1064
F0.0001332409359994546
tp1068
ag2
(g6
S'\x05EJ\xa6\x17j\xb1<'
p1069
tp1070
Rp1071
aI30627799237
aF1.0
aF-1.5543688292489848
ag2
(g6
S'\xfe\xb3xz\xab\xc3\xe0?'
p1072
tp1073
Rp1074
a(g2
(g6
S'aD@\x0b\xaf\xc3\xe0?'
p1075
tp1076
Rp1077
g1064
tp1078
a(g1077
F0.00014064286871364164
tp1079
aa(lp1080
(g1077
F0.00014064286871364164
tp1081
ag2
(g6
S'\x9aC\x81\x1b\x12j\xb1<'
p1082
tp1083
Rp1084
aI30627799237
aF1.0
aF-1.5543449463426617
ag2
(g6
S'\xc4\xd4\x07\x9c\xb2\xc3\xe0?'
p1085
tp1086
Rp1087
a(g2
(g6
S'&e\xcf,\xb6\xc3\xe0?'
p1088
tp1089
Rp1090
g1077
tp1091
a(g1090
F0.000148044765483301
tp1092
aa(lp1093
(g1090
F0.000148044765483301
tp1094
ag2
(g6
S'\xa6\xd6\xbd\x90\x0cj\xb1<'
p1095
tp1096
Rp1097
aI30627799237
aF1.0
aF-1.554321072813216
ag2
(g6
S'\x88\xf5\x96\xbd\xb9\xc3\xe0?'
p1098
tp1099
Rp1100
a(g2
(g6
S'\xeb\x85^N\xbd\xc3\xe0?'
p1101
tp1102
Rp1103
g1090
tp1104
a(g1103
F0.00015544662630898487
tp1105
aa(lp1106
(g1103
F0.00015544662630898487
tp1107
ag2
(g6
S'\xf2\xfd\xff\x05\x07j\xb1<'
p1108
tp1109
Rp1110
aI30627799237
aF1.0
aF-1.554297189906893
ag2
(g6
S'N\x16&\xdf\xc0\xc3\xe0?'
p1111
tp1112
Rp1113
a(g2
(g6
S'\xb0\xa6\xedo\xc4\xc3\xe0?'
p1114
tp1115
Rp1116
g1103
tp1117
a(g1116
F0.0001628484511912454
tp1118
aa(lp1119
(g1116
F0.0001628484511912454
tp1120
ag2
(g6
S'\xb5\xb9G{\x01j\xb1<'
p1121
tp1122
Rp1123
aI30627799237
aF1.0
aF-1.5542733163774471
ag2
(g6
S'\x127\xb5\x00\xc8\xc3\xe0?'
p1124
tp1125
Rp1126
a(g2
(g6
S'u\xc7|\x91\xcb\xc3\xe0?'
p1127
tp1128
Rp1129
g1116
tp1130
a(g1129
F0.00017025024013063482
tp1131
aa(lp1132
(g1129
F0.00017025024013063482
tp1133
ag2
(g6
S'\xb9\t\x95\xf0\xfbi\xb1<'
p1134
tp1135
Rp1136
aI30627799237
aF1.0
aF-1.5542494428480014
ag2
(g6
S'\xd8WD"\xcf\xc3\xe0?'
p1137
tp1138
Rp1139
a(g2
(g6
S':\xe8\x0b\xb3\xd2\xc3\xe0?'
p1140
tp1141
Rp1142
g1129
tp1143
a(g1142
F0.00017765199312770523
tp1144
aa(lp1145
(g1142
F0.00017765199312770523
tp1146
ag2
(g6
S'\x0f\xee\xe7e\xf6i\xb1<'
p1147
tp1148
Rp1149
aI30627799237
aF1.0
aF-1.5542255599416783
ag2
(g6
S'\x9cx\xd3C\xd6\xc3\xe0?'
p1150
tp1151
Rp1152
a(g2
(g6
S'\xff\x08\x9b\xd4\xd9\xc3\xe0?'
p1153
tp1154
Rp1155
g1142
tp1156
a(g1155
F0.0001850537101830088
tp1157
aa(lp1158
(g1155
F0.0001850537101830088
tp1159
ag2
(g6
S'\x94f@\xdb\xf0i\xb1<'
p1160
tp1161
Rp1162
aI30627799237
aF1.0
aF-1.5542016864122326
ag2
(g6
S'b\x99be\xdd\xc3\xe0?'
p1163
tp1164
Rp1165
a(g2
(g6
S'\xc4)*\xf6\xe0\xc3\xe0?'
p1166
tp1167
Rp1168
g1155
tp1169
a(g1168
F0.00019245539129709763
tp1170
aa(lp1171
(g1168
F0.00019245539129709763
tp1172
ag2
(g6
S'ls\x9eP\xebi\xb1<'
p1173
tp1174
Rp1175
aI30627799237
aF1.0
aF-1.5541778128827868
ag2
(g6
S'&\xba\xf1\x86\xe4\xc3\xe0?'
p1176
tp1177
Rp1178
a(g2
(g6
S'\x89J\xb9\x17\xe8\xc3\xe0?'
p1179
tp1180
Rp1181
g1168
tp1182
a(g1181
F0.00019985703647052387
tp1183
aa(lp1184
(g1181
F0.00019985703647052387
tp1185
ag2
(g6
S's\x14\x02\xc6\xe5i\xb1<'
p1186
tp1187
Rp1188
aI30627799237
aF1.0
aF-1.554153939353341
ag2
(g6
S'\xec\xda\x80\xa8\xeb\xc3\xe0?'
p1189
tp1190
Rp1191
a(g2
(g6
S'NkH9\xef\xc3\xe0?'
p1192
tp1193
Rp1194
g1181
tp1195
a(g1194
F0.00020725864570383964
tp1196
aa(lp1197
(g1194
F0.00020725864570383964
tp1198
ag2
(g6
S'\xa8Ik;\xe0i\xb1<'
p1199
tp1200
Rp1201
aI30627799237
aF1.0
aF-1.5541300658238952
ag2
(g6
S'\xb0\xfb\x0f\xca\xf2\xc3\xe0?'
p1202
tp1203
Rp1204
a(g2
(g6
S'\x13\x8c\xd7Z\xf6\xc3\xe0?'
p1205
tp1206
Rp1207
g1194
tp1208
a(g1207
F0.00021466021899759703
tp1209
aa(lp1210
(g1207
F0.00021466021899759703
tp1211
ag2
(g6
S'\xfa\x12\xda\xb0\xdai\xb1<'
p1212
tp1213
Rp1214
aI30627799237
aF1.0
aF-1.5541061922944495
ag2
(g6
S'v\x1c\x9f\xeb\xf9\xc3\xe0?'
p1215
tp1216
Rp1217
a(g2
(g6
S'\xd8\xacf|\xfd\xc3\xe0?'
p1218
tp1219
Rp1220
g1207
tp1221
a(g1220
F0.00022206175635234812
tp1222
aa(lp1223
(g1220
F0.00022206175635234812
tp1224
ag2
(g6
S'ipN&\xd5i\xb1<'
p1225
tp1226
Rp1227
aI30627799237
aF1.0
aF-1.5540823187650035
ag2
(g6
S':=.\r\x01\xc4\xe0?'
p1228
tp1229
Rp1230
a(g2
(g6
S'\x9d\xcd\xf5\x9d\x04\xc4\xe0?'
p1231
tp1232
Rp1233
g1220
tp1234
a(g1233
F0.00022946325776864498
tp1235
aa(lp1236
(g1233
F0.00022946325776864498
tp1237
ag2
(g6
S'\x07b\xc8\x9b\xcfi\xb1<'
p1238
tp1239
Rp1240
aI30627799237
aF1.0
aF-1.5540584452355577
ag2
(g6
S'\x00^\xbd.\x08\xc4\xe0?'
p1241
tp1242
Rp1243
a(g2
(g6
S'b\xee\x84\xbf\x0b\xc4\xe0?'
p1244
tp1245
Rp1246
g1233
tp1247
a(g1246
F0.00023686472324703972
tp1248
aa(lp1249
(g2
(g6
S'b\xee\x84\xbf\x0b\xc4\xe0?'
p1250
tp1251
Rp1252
F0.00023686472324703972
tp1253
ag2
(g6
S'\xebf\xdf\x02\xcai\xb1<'
p1254
tp1255
Rp1256
aI31250000000
aF1.0
aF-1.5540343261954233
ag2
(g6
S'\xa2\x82\xd7b\x0f\xc4\xe0?'
p1257
tp1258
Rp1259
a(g2
(g6
S'\xe2\x16*\x06\x13\xc4\xe0?'
p1260
tp1261
Rp1262
g1252
tp1263
a(g1262
F0.00024441651173699107
tp1264
aa(lp1265
(g1262
F0.00024441651173699107
tp1266
ag2
(g6
S'"\xa6\x93[\xc4i\xb1<'
p1267
tp1268
Rp1269
aI31250000000
aF1.0
aF-1.5540099617214393
ag2
(g6
S'"\xab|\xa9\x16\xc4\xe0?'
p1270
tp1271
Rp1272
a(g2
(g6
S'b?\xcfL\x1a\xc4\xe0?'
p1273
tp1274
Rp1275
g1262
tp1276
a(g1275
F0.00025196826281522
tp1277
aa(lp1278
(g1275
F0.00025196826281522
tp1279
ag2
(g6
S',\xa2\xad\xe0\xbbi\xb1<'
p1280
tp1281
Rp1282
aI62500000000
aF1.0
aF-1.553973442032061
ag2
(g6
S'\xe2gt\x93!\xc4\xe0?'
p1283
tp1284
Rp1285
a(g2
(g6
S'b\x90\x19\xda(\xc4\xe0?'
p1286
tp1287
Rp1288
g1275
tp1289
a(g1288
F0.000267071652738856
tp1290
aa(lp1291
(g1288
F0.000267071652738856
tp1292
ag2
(g6
S'A\xf88\x92\xb0i\xb1<'
p1293
tp1294
Rp1295
aI62500000000
aF1.0
aF-1.5539247265948917
ag2
(g6
S'\xe2\xb8\xbe 0\xc4\xe0?'
p1296
tp1297
Rp1298
a(g2
(g6
S'b\xe1cg7\xc4\xe0?'
p1299
tp1300
Rp1301
g1288
tp1302
a(g1301
F0.00028217489302263864
tp1303
aa(lp1304
(g1301
F0.00028217489302263864
tp1305
ag2
(g6
S'I\x88\xdbC\xa5i\xb1<'
p1306
tp1307
Rp1308
aI62500000000
aF1.0
aF-1.553876015661322
ag2
(g6
S'\xe2\t\t\xae>\xc4\xe0?'
p1309
tp1310
Rp1311
a(g2
(g6
S'b2\xae\xf4E\xc4\xe0?'
p1312
tp1313
Rp1314
g1301
tp1315
a(g1314
F0.00029727798367125847
tp1316
aa(lp1317
(g1314
F0.00029727798367125847
tp1318
ag2
(g6
S'FR\x95\xf5\x99i\xb1<'
p1319
tp1320
Rp1321
aI62500000000
aF1.0
aF-1.553827309231352
ag2
(g6
S'\xe2ZS;M\xc4\xe0?'
p1322
tp1323
Rp1324
a(g2
(g6
S'b\x83\xf8\x81T\xc4\xe0?'
p1325
tp1326
Rp1327
g1314
tp1328
a(g1327
F0.000312380924689406
tp1329
aa(lp1330
(g1327
F0.000312380924689406
tp1331
ag2
(g6
S'\xdeUf\xa7\x8ei\xb1<'
p1332
tp1333
Rp1334
aI62500000000
aF1.0
aF-1.553778602801382
ag2
(g6
S'\xe2\xab\x9d\xc8[\xc4\xe0?'
p1335
tp1336
Rp1337
a(g2
(g6
S'b\xd4B\x0fc\xc4\xe0?'
p1338
tp1339
Rp1340
g1327
tp1341
a(g1340
F0.0003274837160817715
tp1342
aa(lp1343
(g1340
F0.0003274837160817715
tp1344
ag2
(g6
S'\xbb\x92NY\x83i\xb1<'
p1345
tp1346
Rp1347
aI62500000000
aF1.0
aF-1.5537299008750116
ag2
(g6
S'\xe2\xfc\xe7Uj\xc4\xe0?'
p1348
tp1349
Rp1350
a(g2
(g6
S'b%\x8d\x9cq\xc4\xe0?'
p1351
tp1352
Rp1353
g1340
tp1354
a(g1353
F0.00034258635785304497
tp1355
aa(lp1356
(g1353
F0.00034258635785304497
tp1357
ag2
(g6
S'\xdb\x08N\x0bxi\xb1<'
p1358
tp1359
Rp1360
aI62500000000
aF1.0
aF-1.5536811989486412
ag2
(g6
S'\xe2M2\xe3x\xc4\xe0?'
p1361
tp1362
Rp1363
a(g2
(g6
S'bv\xd7)\x80\xc4\xe0?'
p1364
tp1365
Rp1366
g1353
tp1367
a(g1366
F0.00035768885000791637
tp1368
aa(lp1369
(g1366
F0.00035768885000791637
tp1370
ag2
(g6
S'\xd6\xb7d\xbdli\xb1<'
p1371
tp1372
Rp1373
aI62500000000
aF1.0
aF-1.5536324970222708
ag2
(g6
S'\xe2\x9e|p\x87\xc4\xe0?'
p1374
tp1375
Rp1376
a(g2
(g6
S'b\xc7!\xb7\x8e\xc4\xe0?'
p1377
tp1378
Rp1379
g1366
tp1380
a(g1379
F0.0003727911925510754
tp1381
aa(lp1382
(g1379
F0.0003727911925510754
tp1383
ag2
(g6
S'\x88\x9f\x92oai\xb1<'
p1384
tp1385
Rp1386
aI62500000000
aF1.0
aF-1.5535837995995
ag2
(g6
S'\xe2\xef\xc6\xfd\x95\xc4\xe0?'
p1387
tp1388
Rp1389
a(g2
(g6
S'b\x18lD\x9d\xc4\xe0?'
p1390
tp1391
Rp1392
g1379
tp1393
a(g1392
F0.00038789338548721154
tp1394
aa(lp1395
(g1392
F0.00038789338548721154
tp1396
ag2
(g6
S'\xab\xbf\xd7!Vi\xb1<'
p1397
tp1398
Rp1399
aI62500000000
aF1.0
aF-1.553535106680329
ag2
(g6
S'\xe2@\x11\x8b\xa4\xc4\xe0?'
p1400
tp1401
Rp1402
a(g2
(g6
S'bi\xb6\xd1\xab\xc4\xe0?'
p1403
tp1404
Rp1405
g1392
tp1406
a(g1405
F0.0004029954288210142
tp1407
aa(lp1408
(g1405
F0.0004029954288210142
tp1409
ag2
(g6
S'\n\x184\xd4Ji\xb1<'
p1410
tp1411
Rp1412
aI62500000000
aF1.0
aF-1.5534864092575582
ag2
(g6
S'\xe2\x91[\x18\xb3\xc4\xe0?'
p1413
tp1414
Rp1415
a(g2
(g6
S'b\xba\x00_\xba\xc4\xe0?'
p1416
tp1417
Rp1418
g1405
tp1419
a(g1418
F0.0004180973225571725
tp1420
aa(lp1421
(g1418
F0.0004180973225571725
tp1422
ag2
(g6
S'_\xa8\xa7\x86?i\xb1<'
p1423
tp1424
Rp1425
aI62500000000
aF1.0
aF-1.5534377208419867
ag2
(g6
S'\xe2\xe2\xa5\xa5\xc1\xc4\xe0?'
p1426
tp1427
Rp1428
a(g2
(g6
S'b\x0bK\xec\xc8\xc4\xe0?'
p1429
tp1430
Rp1431
g1418
tp1432
a(g1431
F0.00043319906670037547
tp1433
aa(lp1434
(g1431
F0.00043319906670037547
tp1435
ag2
(g6
S'up294i\xb1<'
p1436
tp1437
Rp1438
aI62500000000
aF1.0
aF-1.5533890279228155
ag2
(g6
S'\xe23\xf02\xd0\xc4\xe0?'
p1439
tp1440
Rp1441
a(g2
(g6
S'b\\\x95y\xd7\xc4\xe0?'
p1442
tp1443
Rp1444
g1431
tp1445
a(g1444
F0.00044830066125531185
tp1446
aa(lp1447
(g1444
F0.00044830066125531185
tp1448
ag2
(g6
S'\x05p\xd4\xeb(i\xb1<'
p1449
tp1450
Rp1451
aI62500000000
aF1.0
aF-1.553340339507244
ag2
(g6
S'\xe2\x84:\xc0\xde\xc4\xe0?'
p1452
tp1453
Rp1454
a(g2
(g6
S'b\xad\xdf\x06\xe6\xc4\xe0?'
p1455
tp1456
Rp1457
g1444
tp1458
a(g1457
F0.0004634021062266702
tp1459
aa(lp1460
(g1457
F0.0004634021062266702
tp1461
ag2
(g6
S'\xed\xa6\x8d\x9e\x1di\xb1<'
p1462
tp1463
Rp1464
aI62500000000
aF1.0
aF-1.5532916555952723
ag2
(g6
S'\xe2\xd5\x84M\xed\xc4\xe0?'
p1465
tp1466
Rp1467
a(g2
(g6
S'b\xfe)\x94\xf4\xc4\xe0?'
p1468
tp1469
Rp1470
g1457
tp1471
a(g1470
F0.00047850340161913906
tp1472
aa(lp1473
(g2
(g6
S'b\xfe)\x94\xf4\xc4\xe0?'
p1474
tp1475
Rp1476
F0.00047850340161913906
tp1477
ag2
(g6
S'\x8dQLO\x14i\xb1<'
p1478
tp1479
Rp1480
aI40468085121
aF1.0
aF-1.5532515587519304
ag2
(g6
S'"\xfb4J\xf9\xc4\xe0?'
p1481
tp1482
Rp1483
a(g2
(g6
S'\xe3\xf7?\x00\xfe\xc4\xe0?'
p1484
tp1485
Rp1486
g1476
tp1487
a(g1486
F0.0004882812499591408
tp1488
aa.