(lp0
(lp1
(F-434.01660980268616
F-2.1655048440896812e-13
tp2
acnumpy.core.multiarray
scalar
p3
(cnumpy
dtype
p4
(S'f8'
p5
I0
I1
tp6
Rp7
(I3
S'<'
p8
NNNI-1
I-1
I0
tp9
bS'8\x1b\x17\x82\xe5\x99D='
p10
tp11
Rp12
aI26060205
aF1.0
aF0.0004139106944191017
ag3
(g7
S'\x1e\xc8j\tD {\xc0'
p13
tp14
Rp15
a(F-434.01660980268616
g3
(g7
S'\xf5\x9a1\nD {\xc0'
p16
tp17
Rp18
tp19
a(g18
F-3.814693898674694e-06
tp20
aa(lp21
(F-434.01660980268616
F-2.1655048440896812e-13
tp22
ag3
(g7
S'9\x1b\x17\x82\xe5\x99D='
p23
tp24
Rp25
aI26060205
aF1.0
aF-0.0004139099224245023
ag3
(g7
S'r"\xdd\x07D {\xc0'
p26
tp27
Rp28
a(g3
(g7
S'\x9bO\x16\x07D {\xc0'
p29
tp30
Rp31
F-434.01660980268616
tp32
a(g31
F3.814693465573726e-06
tp33
aa.