(lp0
(lp1
(F-405.65023907608304
F-9.159301311564777e-13
tp2
acnumpy.core.multiarray
scalar
p3
(cnumpy
dtype
p4
(S'f8'
p5
I0
I1
tp6
Rp7
(I3
S'<'
p8
NNNI-1
I-1
I0
tp9
bS'\x0c\x95\xe0\x86\x87\x7f\x89\xbd'
p10
tp11
Rp12
aI84221042
aF1.0
aF0.038098596076755635
ag3
(g7
S'\xf3s\x99cgZy\xc0'
p13
tp14
Rp15
a(F-405.65023907608304
g3
(g7
S',\x02\x1cfgZy\xc0'
p16
tp17
Rp18
tp19
a(g18
F0.0002441404082648858
tp20
aa(lp21
(F-405.65023907608304
F-9.159301311564777e-13
tp22
ag3
(g7
S'4\xb7\xdc\x81\x87\x7f\x89\xbd'
p23
tp24
Rp25
aI83485458
aF1.0
aF0.08740016503813736
ag3
(g7
S'1\xf4\x99^gZy\xc0'
p26
tp27
Rp28
a(g3
(g7
S'\xa8\x02\x1d\\gZy\xc0'
p29
tp30
Rp31
F-405.65023907608304
tp32
a(g31
F-0.000242008092407137
tp33
aa.