(lp0
(lp1
(cnumpy.core.multiarray
scalar
p2
(cnumpy
dtype
p3
(S'f8'
p4
I0
I1
tp5
Rp6
(I3
S'<'
p7
NNNI-1
I-1
I0
tp8
bS'D\r\xb9\x03\x7f\x97\x9c\xc0'
p9
tp10
Rp11
F-0.007812499252927858
tp12
ag2
(g6
S'\x82\xe3\xe0P\xfd\x99\xb0='
p13
tp14
Rp15
aI129440481
aF1.0
aF-499.31882836898103
ag2
(g6
S'\xd4\x7f\xdd\xff~\x97\x9c\xc0'
p16
tp17
Rp18
a(g2
(g6
S'c\xf2\x01\xfc~\x97\x9c\xc0'
p19
tp20
Rp21
g11
tp22
a(g21
F-0.005858077962830954
tp23
aa(lp24
(g2
(g6
S'\x82\xd7J\xf4~\x97\x9c\xc0'
p25
tp26
Rp27
F-0.003904521393750297
tp28
ag2
(g6
S'\xc1\xc4F\xf0\x1b\x98\xb0='
p29
tp30
Rp31
aI129440481
aF1.0
aF-498.96820832702895
ag2
(g6
S'\xf2d&\xf8~\x97\x9c\xc0'
p32
tp33
Rp34
a(g27
g21
tp35
a(g21
F-0.005858077962830954
tp36
aa(lp37
(g27
F-0.003904521393750297
tp38
ag2
(g6
S'b\x9e\xe8\x1d\xb3\x96\xb0='
p39
tp40
Rp41
aI64720240
aF1.0
aF-498.70545295248894
ag2
(g6
S'\xca\x10]\xf2~\x97\x9c\xc0'
p42
tp43
Rp44
a(g2
(g6
S'\x12Jo\xf0~\x97\x9c\xc0'
p45
tp46
Rp47
g27
tp48
a(g47
F-0.002928067197382348
tp49
aa(lp50
(g2
(g6
S'\xa2\xbc\x93\xec~\x97\x9c\xc0'
p51
tp52
Rp53
F-0.0019518289536341238
tp54
ag2
(g6
S'w\xf7|\xae\xc2\x95\xb0='
p55
tp56
Rp57
aI64720240
aF1.0
aF-498.53038826804766
ag2
(g6
S'Z\x83\x81\xee~\x97\x9c\xc0'
p58
tp59
Rp60
a(g53
g47
tp61
a(g47
F-0.002928067197382348
tp62
aa(lp63
(g2
(g6
S'2/\xb8\xe8~\x97\x9c\xc0'
p64
tp65
Rp66
F-0.0009758065867023818
tp67
ag2
(g6
S'\x9a\\\xacT\xd2\x94\xb0='
p68
tp69
Rp70
aI64720240
aF1.0
aF-498.3554052725665
ag2
(g6
S'\xea\xf5\xa5\xea~\x97\x9c\xc0'
p71
tp72
Rp73
a(g66
g53
tp74
a(g53
F-0.0019518289536341238
tp75
aa(lp76
(g2
(g6
S'zh\xca\xe6~\x97\x9c\xc0'
p77
tp78
Rp79
F-0.000487876333363849
tp80
ag2
(g6
S'\xb3f\xcf\x1e\x1e\x94\xb0='
p81
tp82
Rp83
aI32360120
aF1.0
aF-498.2242203287191
ag2
(g6
S'\xd6K\xc1\xe7~\x97\x9c\xc0'
p84
tp85
Rp86
a(g79
g66
tp87
a(g66
F-0.0009758065867023818
tp88
aa(lp89
(g2
(g6
S'\x1e\x85\xd3\xe5~\x97\x9c\xc0'
p90
tp91
Rp92
F-0.00024393143508394881
tp93
ag2
(g6
S'\x9f\xf4\x99\x08\xc4\x93\xb0='
p94
tp95
Rp96
aI16180060
aF1.0
aF-498.1586453821715
ag2
(g6
S'\xcc\xf6N\xe6~\x97\x9c\xc0'
p97
tp98
Rp99
a(g92
g79
tp100
a(g79
F-0.000487876333363849
tp101
aa(lp102
(F-1829.8739199136473
F-5.743609863643113e-12
tp103
ag2
(g6
S'\x99\x03\x98\xfb\x87\x93\xb0='
p104
tp105
Rp106
aI16180061
aF1.0
aF-498.1149353466065
ag2
(g6
S'p\x13X\xe5~\x97\x9c\xc0'
p107
tp108
Rp109
a(F-1829.8739199136473
g92
tp110
a(g92
F-0.00024393143508394881
tp111
aa(lp112
(F-1829.8739199136473
F-5.743609863643113e-12
tp113
ag2
(g6
S'\xe4\rQ\xe2K\x93\xb0='
p114
tp115
Rp116
aI16208731
aF1.0
aF-498.071191673249
ag2
(g6
S'\x14\xf8`\xe4~\x97\x9c\xc0'
p117
tp118
Rp119
a(g2
(g6
S'fN\xe5\xe3~\x97\x9c\xc0'
p120
tp121
Rp122
F-1829.8739199136473
tp123
a(g122
F0.000244350135296659
tp124
aa(lp125
(g122
F0.000244350135296659
tp126
ag2
(g6
S'1\xda\xc5\xbc\x0f\x93\xb0='
p127
tp128
Rp129
aI16208732
aF1.0
aF-498.0274144024875
ag2
(g6
S'\xb8\xa4i\xe3~\x97\x9c\xc0'
p130
tp131
Rp132
a(g2
(g6
S'\n\xfb\xed\xe2~\x97\x9c\xc0'
p133
tp134
Rp135
g122
tp136
a(g135
F0.0004886867619427045
tp137
aa(lp138
(g135
F0.0004886867619427045
tp139
ag2
(g6
S'/\xfe)\x87\xb5\x92\xb0='
p140
tp141
Rp142
aI32417462
aF1.0
aF-497.9617583951567
ag2
(g6
S'\xaf\xa7\xf6\xe1~\x97\x9c\xc0'
p143
tp144
Rp145
a(g2
(g6
S'TT\xff\xe0~\x97\x9c\xc0'
p146
tp147
Rp148
g135
tp149
a(g148
F0.0009773194014370372
tp150
aa(lp151
(g148
F0.0009773194014370372
tp152
ag2
(g6
S'C\nk%\x01\x92\xb0='
p153
tp154
Rp155
aI64834924
aF1.0
aF-497.8304815518805
ag2
(g6
S'\x9e\xad\x10\xdf~\x97\x9c\xc0'
p156
tp157
Rp158
a(g2
(g6
S'\xe8\x06"\xdd~\x97\x9c\xc0'
p159
tp160
Rp161
g148
tp162
a(g161
F0.0019544223791201406
tp163
aa(lp164
(g161
F0.0019544223791201406
tp165
ag2
(g6
S'\x00\xa3\x1f\xb5\x10\x91\xb0='
p166
tp167
Rp168
aI64834925
aF1.0
aF-497.65551560522096
ag2
(g6
S'2`3\xdb~\x97\x9c\xc0'
p169
tp170
Rp171
a(g2
(g6
S'{\xb9D\xd9~\x97\x9c\xc0'
p172
tp173
Rp174
g161
tp175
a(g174
F0.0029313090335116965
tp176
aa(lp177
(g174
F0.0029313090335116965
tp178
ag2
(g6
S'p\xd5uZ \x90\xb0='
p179
tp180
Rp181
aI64834925
aF1.0
aF-497.480631388831
ag2
(g6
S'\xc4\x12V\xd7~\x97\x9c\xc0'
p182
tp183
Rp184
a(g2
(g6
S'\x0elg\xd5~\x97\x9c\xc0'
p185
tp186
Rp187
g174
tp188
a(g187
F0.0039079794255686175
tp189
aa(lp190
(g187
F0.0039079794255686175
tp191
ag2
(g6
S'p\x1b\xb4\xfd\xb7\x8e\xb0='
p192
tp193
Rp194
aI129669850
aF1.0
aF-497.21846330276185
ag2
(g6
S'\xa1\x1e\x8a\xd1~\x97\x9c\xc0'
p195
tp196
Rp197
a(g2
(g6
S'4\xd1\xac\xcd~\x97\x9c\xc0'
p198
tp199
Rp200
g187
tp201
a(g200
F0.005860671726617842
tp202
aa(lp203
(g200
F0.005860671726617842
tp204
ag2
(g6
S'\x81\xa2\n\xca\xd7\x8c\xb0='
p205
tp206
Rp207
aI129669849
aF1.0
aF-496.8691846727379
ag2
(g6
S'\xc8\x83\xcf\xc9~\x97\x9c\xc0'
p208
tp209
Rp210
a(g2
(g6
S'[6\xf2\xc5~\x97\x9c\xc0'
p211
tp212
Rp213
g200
tp214
a(g213
F0.007812499874742624
tp215
aa.