(lp0
(lp1
(cnumpy.core.multiarray
scalar
p2
(cnumpy
dtype
p3
(S'f8'
p4
I0
I1
tp5
Rp6
(I3
S'<'
p7
NNNI-1
I-1
I0
tp8
bS'\x8c\x89f\x02\x06\xa7\x0e@'
p9
tp10
Rp11
F6.1035156246003116e-05
tp12
ag2
(g6
S'\xf8i\x03\xf7\r\xc7\xa9\xbc'
p13
tp14
Rp15
aI42654571696
aF1.0
aF0.052533381475792174
ag2
(g6
S'\xe4\x17\x9b\xf9\n\xa7\x0e@'
p16
tp17
Rp18
a(g2
(g6
S'<\xa6\xcf\xf0\x0f\xa7\x0e@'
p19
tp20
Rp21
g11
tp22
a(g21
F5.3405629747450816e-05
tp23
aa(lp24
(g21
F5.3405629747450816e-05
tp25
ag2
(g6
S'\xa9\x02\xf8\x9d\x05\xc7\xa9\xbc'
p26
tp27
Rp28
aI42654571695
aF1.0
aF0.052536416687253625
ag2
(g6
S'\x944\x04\xe8\x14\xa7\x0e@'
p29
tp30
Rp31
a(g2
(g6
S'\xeb\xc28\xdf\x19\xa7\x0e@'
p32
tp33
Rp34
g21
tp35
a(g34
F4.577614094978585e-05
tp36
aa(lp37
(g34
F4.577614094978585e-05
tp38
ag2
(g6
S'\x7f\xff\xccD\xfd\xc6\xa9\xbc'
p39
tp40
Rp41
aI42654571695
aF1.0
aF0.052539452047332465
ag2
(g6
S'BQm\xd6\x1e\xa7\x0e@'
p42
tp43
Rp44
a(g2
(g6
S'\x9a\xdf\xa1\xcd#\xa7\x0e@'
p45
tp46
Rp47
g34
tp48
a(g47
F3.814668985500758e-05
tp49
aa(lp50
(g2
(g6
S'J\xfc\n\xbc-\xa7\x0e@'
p51
tp52
Rp53
F3.0517276465115364e-05
tp54
ag2
(g6
S'\x88`\x82\xeb\xf4\xc6\xa9\xbc'
p55
tp56
Rp57
aI42654571696
aF1.0
aF0.05254248740494767
ag2
(g6
S'\xf2m\xd6\xc4(\xa7\x0e@'
p58
tp59
Rp60
a(g53
g47
tp61
a(g47
F3.814668985500758e-05
tp62
aa(lp63
(g53
F3.0517276465115364e-05
tp64
ag2
(g6
S'\xc3%\x18\x92\xec\xc6\xa9\xbc'
p65
tp66
Rp67
aI42654571696
aF1.0
aF0.05254552261394578
ag2
(g6
S'\xa2\x8a?\xb32\xa7\x0e@'
p68
tp69
Rp70
a(g2
(g6
S'\xfa\x18t\xaa7\xa7\x0e@'
p71
tp72
Rp73
g53
tp74
a(g73
F2.288790078246628e-05
tp75
aa(lp76
(g2
(g6
S'\xa95\xdd\x98A\xa7\x0e@'
p77
tp78
Rp79
F1.525856280941738e-05
tp80
ag2
(g6
S'OO\x8e8\xe4\xc6\xa9\xbc'
p81
tp82
Rp83
aI42654571695
aF1.0
aF0.05254855786317795
ag2
(g6
S'R\xa7\xa8\xa1<\xa7\x0e@'
p84
tp85
Rp86
a(g79
g73
tp87
a(g73
F2.288790078246628e-05
tp88
aa(lp89
(g2
(g6
S'XRF\x87K\xa7\x0e@'
p90
tp91
Rp92
F7.6292625479679746e-06
tp93
ag2
(g6
S'6\xdd\xe4\xde\xdb\xc6\xa9\xbc'
p94
tp95
Rp96
aI42654571695
aF1.0
aF0.0525515930721762
ag2
(g6
S'\x00\xc4\x11\x90F\xa7\x0e@'
p97
tp98
Rp99
a(g92
g79
tp100
a(g79
F1.525856280941738e-05
tp101
aa(lp102
(g2
(g6
S'\xb0\xe0z~P\xa7\x0e@'
p103
tp104
Rp105
F3.814626559684328e-06
tp106
ag2
(g6
S'b\x06\x92\x9b\xd5\xc6\xa9\xbc'
p107
tp108
Rp109
aI21327285848
aF1.0
aF0.05255386947646072
ag2
(g6
S'\x84\x99\xe0\x02N\xa7\x0e@'
p110
tp111
Rp112
a(g105
g92
tp113
a(g92
F7.6292625479679746e-06
tp114
aa(lp115
(g2
(g6
S"\xdc'\x15\xfaR\xa7\x0e@"
p116
tp117
Rp118
F1.9073121012942433e-06
tp119
ag2
(g6
S'\xf4\xb0\xe1y\xd2\xc6\xa9\xbc'
p120
tp121
Rp122
aI10663642924
aF1.0
aF0.05255500775537531
ag2
(g6
S'F\x04H\xbcQ\xa7\x0e@'
p123
tp124
Rp125
a(g118
g105
tp126
a(g105
F3.814626559684328e-06
tp127
aa(lp128
(F3.831705970207512
F1.1736302822728639e-16
tp129
ag2
(g6
S']\x80ic\xd0\xc6\xa9\xbc'
p130
tp131
Rp132
aI10663642924
aF1.0
aF0.05255576646319947
ag2
(g6
S'rK\xe27T\xa7\x0e@'
p133
tp134
Rp135
a(F3.831705970207512
g118
tp136
a(g118
F1.9073121012942433e-06
tp137
aa(lp138
(F3.831705970207512
F1.1736302822728639e-16
tp139
ag2
(g6
S'#\xd0\xbb\xbd\xce\xc6\xa9\xbc'
p140
tp141
Rp142
aI6162660246
aF1.0
aF0.05255636506681758
ag2
(g6
S'\xd3\xccX-V\xa7\x0e@'
p143
tp144
Rp145
a(g2
(g6
S'\x9e*\x02\xe5V\xa7\x0e@'
p146
tp147
Rp148
F3.831705970207512
tp149
a(g148
F-1.1022598078420558e-06
tp150
aa(lp151
(g148
F-1.1022598078420558e-06
tp152
ag2
(g6
S'\xd1\x80\xd9\x88\xcd\xc6\xa9\xbc'
p153
tp154
Rp155
aI6162660246
aF1.0
aF0.05255680357249151
ag2
(g6
S'i\x88\xab\x9cW\xa7\x0e@'
p156
tp157
Rp158
a(g2
(g6
S'4\xe6TTX\xa7\x0e@'
p159
tp160
Rp161
g148
tp162
a(g161
F-2.2045188285127687e-06
tp163
aa(lp164
(g161
F-2.2045188285127687e-06
tp165
ag2
(g6
S'\x07\xb8\x84\xb9\xcb\xc6\xa9\xbc'
p166
tp167
Rp168
aI12325320491
aF1.0
aF0.05255746136780324
ag2
(g6
S'\xca\xa1\xa7\xc3Y\xa7\x0e@'
p169
tp170
Rp171
a(g2
(g6
S'_]\xfa2[\xa7\x0e@'
p172
tp173
Rp174
g161
tp175
a(g174
F-4.40903450778294e-06
tp176
aa(lp177
(g174
F-4.40903450778294e-06
tp178
ag2
(g6
S'#\x88\xd6\x1a\xc8\xc6\xa9\xbc'
p179
tp180
Rp181
aI24650640983
aF1.0
aF0.05255877696537831
ag2
(g6
S'\x8a\xd4\x9f\x11^\xa7\x0e@'
p182
tp183
Rp184
a(g2
(g6
S'\xb6KE\xf0`\xa7\x0e@'
p185
tp186
Rp187
g174
tp188
a(g187
F-8.81805641874864e-06
tp189
aa(lp190
(g187
F-8.81805641874864e-06
tp191
ag2
(g6
S'*\xafg\xdd\xc0\xc6\xa9\xbc'
p192
tp193
Rp194
aI49301281967
aF1.0
aF0.05256140802556233
ag2
(g6
S'\x0e:\x90\xadf\xa7\x0e@'
p195
tp196
Rp197
a(g2
(g6
S'e(\xdbjl\xa7\x0e@'
p198
tp199
Rp200
g187
tp201
a(g200
F-1.7636062448373467e-05
tp202
aa(lp203
(g200
F-1.7636062448373467e-05
tp204
ag2
(g6
S'\x91\x08\x066\xb7\xc6\xa9\xbc'
p205
tp206
Rp207
aI49301281967
aF1.0
aF0.052564916099226394
ag2
(g6
S'\xbc\x16&(r\xa7\x0e@'
p208
tp209
Rp210
a(g2
(g6
S'\x14\x05q\xe5w\xa7\x0e@'
p211
tp212
Rp213
g200
tp214
a(g213
F-2.6454018085215025e-05
tp215
aa(lp216
(g213
F-2.6454018085215025e-05
tp217
ag2
(g6
S'v(z\x8e\xad\xc6\xa9\xbc'
p218
tp219
Rp220
aI49301281966
aF1.0
aF0.05256842417502299
ag2
(g6
S'k\xf3\xbb\xa2}\xa7\x0e@'
p221
tp222
Rp223
a(g2
(g6
S'\xc2\xe1\x06`\x83\xa7\x0e@'
p224
tp225
Rp226
g213
tp227
a(g226
F-3.527192332573124e-05
tp228
aa(lp229
(g226
F-3.527192332573124e-05
tp230
ag2
(g6
S'\x01\x0f\xc4\xe6\xa3\xc6\xa9\xbc'
p231
tp232
Rp233
aI49301281966
aF1.0
aF0.05257193216386985
ag2
(g6
S'\x19\xd0Q\x1d\x89\xa7\x0e@'
p234
tp235
Rp236
a(g2
(g6
S'p\xbe\x9c\xda\x8e\xa7\x0e@'
p237
tp238
Rp239
g226
tp240
a(g239
F-4.408977816673781e-05
tp241
aa(lp242
(g239
F-4.408977816673781e-05
tp243
ag2
(g6
S':\xbc\xe3>\x9a\xc6\xa9\xbc'
p244
tp245
Rp246
aI49301281967
aF1.0
aF0.052575440094039
ag2
(g6
S'\xc8\xac\xe7\x97\x94\xa7\x0e@'
p247
tp248
Rp249
a(g2
(g6
S'\x1f\x9b2U\x9a\xa7\x0e@'
p250
tp251
Rp252
g239
tp253
a(g252
F-5.290758260505043e-05
tp254
aa(lp255
(g252
F-5.290758260505043e-05
tp256
ag2
(g6
S'80\xd9\x96\x90\xc6\xa9\xbc'
p257
tp258
Rp259
aI49301281967
aF1.0
aF0.05257894813943062
ag2
(g6
S'v\x89}\x12\xa0\xa7\x0e@'
p260
tp261
Rp262
a(g2
(g6
S'\xcew\xc8\xcf\xa5\xa7\x0e@'
p263
tp264
Rp265
g252
tp266
a(g265
F-6.172533663712712e-05
tp267
aa(lp268
(g265
F-6.172533663712712e-05
tp269
ag2
(g6
S'-k\xa4\xee\x86\xc6\xa9\xbc'
p270
tp271
Rp272
aI49301281966
aF1.0
aF0.05258245596077575
ag2
(g6
S'%f\x13\x8d\xab\xa7\x0e@'
p273
tp274
Rp275
a(g2
(g6
S'|T^J\xb1\xa7\x0e@'
p276
tp277
Rp278
g265
tp279
a(g278
F-7.054304025942595e-05
tp280
aa.