(lp0
(lp1
(cnumpy.core.multiarray
scalar
p2
(cnumpy
dtype
p3
(S'f8'
p4
I0
I1
tp5
Rp6
(I3
S'<'
p7
NNNI-1
I-1
I0
tp8
bS'\x96d1\x9d)\xc9\xe8?'
p9
tp10
Rp11
F-0.00012207031247779797
tp12
ag2
(g6
S'7A\xc1\x9b\x17\xff\xb7<'
p13
tp14
Rp15
aI45816594870
aF1.0
aF5.809188894958651
ag2
(g6
S'qE\xa2\xf2.\xc9\xe8?'
p16
tp17
Rp18
a(g2
(g6
S'L&\x13H4\xc9\xe8?'
p19
tp20
Rp21
g11
tp22
a(g21
F-0.0001068125755901601
tp23
aa(lp24
(g21
F-0.0001068125755901601
tp25
ag2
(g6
S'\x16\x9f\xe2\x976\xff\xb7<'
p26
tp27
Rp28
aI45816594870
aF1.0
aF5.809227043368935
ag2
(g6
S"'\x07\x84\x9d9\xc9\xe8?"
p29
tp30
Rp31
a(g2
(g6
S'\x02\xe8\xf4\xf2>\xc9\xe8?'
p32
tp33
Rp34
g21
tp35
a(g34
F-9.155453808589523e-05
tp36
aa(lp37
(g34
F-9.155453808589523e-05
tp38
ag2
(g6
S'\xc8R\x11\x94U\xff\xb7<'
p39
tp40
Rp41
aI45816594870
aF1.0
aF5.8092651938743645
ag2
(g6
S'\xdd\xc8eHD\xc9\xe8?'
p42
tp43
Rp44
a(g2
(g6
S'\xb8\xa9\xd6\x9dI\xc9\xe8?'
p45
tp46
Rp47
g34
tp48
a(g47
F-7.62961999630292e-05
tp49
aa(lp50
(g47
F-7.62961999630292e-05
tp51
ag2
(g6
S'g\\M\x90t\xff\xb7<'
p52
tp53
Rp54
aI45816594871
aF1.0
aF5.809303344126204
ag2
(g6
S'\x94\x8aG\xf3N\xc9\xe8?'
p55
tp56
Rp57
a(g2
(g6
S'ok\xb8HT\xc9\xe8?'
p58
tp59
Rp60
g47
tp61
a(g60
F-6.103756121925474e-05
tp62
aa(lp63
(g2
(g6
S'&-\x9a\xf3^\xc9\xe8?'
p64
tp65
Rp66
F-4.577862185293069e-05
tp67
ag2
(g6
S'\xe1\xbb\x96\x8c\x93\xff\xb7<'
p68
tp69
Rp70
aI45816594871
aF1.0
aF5.8093414946316315
ag2
(g6
S'JL)\x9eY\xc9\xe8?'
p71
tp72
Rp73
a(g66
g60
tp74
a(g60
F-6.103756121925474e-05
tp75
aa(lp76
(g66
F-4.577862185293069e-05
tp77
ag2
(g6
S'6q\xed\x88\xb2\xff\xb7<'
p78
tp79
Rp80
aI45816594870
aF1.0
aF5.80937964434308
ag2
(g6
S'\x01\x0e\x0bId\xc9\xe8?'
p81
tp82
Rp83
a(g2
(g6
S'\xdc\xee{\x9ei\xc9\xe8?'
p84
tp85
Rp86
g66
tp87
a(g86
F-3.051938186241592e-05
tp88
aa(lp89
(g2
(g6
S'\x92\xb0]It\xc9\xe8?'
p90
tp91
Rp92
F-1.5259841245403176e-05
tp93
ag2
(g6
S'n|Q\x85\xd1\xff\xb7<'
p94
tp95
Rp96
aI45816594870
aF1.0
aF5.809417794324723
ag2
(g6
S'\xb7\xcf\xec\xf3n\xc9\xe8?'
p97
tp98
Rp99
a(g92
g86
tp100
a(g86
F-3.051938186241592e-05
tp101
aa(lp102
(g2
(g6
S'm\x91\xce\x9ey\xc9\xe8?'
p103
tp104
Rp105
F-7.629958201343133e-06
tp106
ag2
(g6
S'\x7f\xda\xa4\xc2\xe8\xff\xb7<'
p107
tp108
Rp109
aI22908297435
aF1.0
aF5.8094464072037955
ag2
(g6
S'\x00!\x16\xf4v\xc9\xe8?'
p110
tp111
Rp112
a(g105
g92
tp113
a(g92
F-1.5259841245403176e-05
tp114
aa(lp115
(g2
(g6
S'\xda\x01\x87I|\xc9\xe8?'
p116
tp117
Rp118
F-3.814988495483261e-06
tp119
ag2
(g6
S'RtQa\xf4\xff\xb7<'
p120
tp121
Rp122
aI11454148717
aF1.0
aF5.809460713364844
ag2
(g6
S'\xa4\xc9*\xf4z\xc9\xe8?'
p123
tp124
Rp125
a(g118
g105
tp126
a(g105
F-7.629958201343133e-06
tp127
aa(lp128
(F0.7745966692414834
F8.17261852047821e-17
tp129
ag2
(g6
S'\xb0Lp \xfc\xff\xb7<'
p130
tp131
Rp132
aI11454148718
aF1.0
aF5.809470250500602
ag2
(g6
S'\x11:\xe3\x9e}\xc9\xe8?'
p133
tp134
Rp135
a(F0.7745966692414834
g118
tp136
a(g118
F-3.814988495483261e-06
tp137
aa(lp138
(F0.7745966692414834
F8.17261852047821e-17
tp139
ag2
(g6
S'n\xfag\xdf\x03\x00\xb8<'
p140
tp141
Rp142
aI11452343778
aF1.0
aF5.809479787177476
ag2
(g6
S'9\xe5\x8dI\x80\xc9\xe8?'
p143
tp144
Rp145
a(g2
(g6
S'*X\xdc\x9e\x81\xc9\xe8?'
p146
tp147
Rp148
F0.7745966692414834
tp149
a(g148
F3.8144061163051974e-06
tp150
aa(lp151
(g148
F3.8144061163051974e-06
tp152
ag2
(g6
S'}}8\x9e\x0b\x00\xb8<'
p153
tp154
Rp155
aI11452343778
aF1.0
aF5.809489323618801
ag2
(g6
S'\x1b\xcb*\xf4\x82\xc9\xe8?'
p156
tp157
Rp158
a(g2
(g6
S'\x0c>yI\x84\xc9\xe8?'
p159
tp160
Rp161
g148
tp162
a(g161
F7.6288310160412145e-06
tp163
aa(lp164
(g161
F7.6288310160412145e-06
tp165
ag2
(g6
S'\xab\xecr<\x17\x00\xb8<'
p166
tp167
Rp168
aI22904687556
aF1.0
aF5.809503627494863
ag2
(g6
S'\xee#\x16\xf4\x86\xc9\xe8?'
p169
tp170
Rp171
a(g2
(g6
S'\xd0\t\xb3\x9e\x89\xc9\xe8?'
p172
tp173
Rp174
g161
tp175
a(g174
F1.5257737166174213e-05
tp176
aa(lp177
(g174
F1.5257737166174213e-05
tp178
ag2
(g6
S'!\xa0\xedx.\x00\xb8<'
p179
tp180
Rp181
aI45809375112
aF1.0
aF5.8095322352469845
ag2
(g6
S'\x94\xd5\xec\xf3\x8e\xc9\xe8?'
p182
tp183
Rp184
a(g2
(g6
S'X\xa1&I\x94\xc9\xe8?'
p185
tp186
Rp187
g174
tp188
a(g187
F3.051577486994737e-05
tp189
aa(lp190
(g187
F3.051577486994737e-05
tp191
ag2
(g6
S'\xc0\x00GtM\x00\xb8<'
p192
tp193
Rp194
aI45809375112
aF1.0
aF5.809570378916481
ag2
(g6
S'\x1cm`\x9e\x99\xc9\xe8?'
p195
tp196
Rp197
a(g2
(g6
S'\xe08\x9a\xf3\x9e\xc9\xe8?'
p198
tp199
Rp200
g187
tp201
a(g200
F4.577411311337447e-05
tp202
aa(lp203
(g200
F4.577411311337447e-05
tp204
ag2
(g6
S'%\xb6\xadol\x00\xb8<'
p205
tp206
Rp207
aI45809375111
aF1.0
aF5.809608523887523
ag2
(g6
S'\xa4\x04\xd4H\xa4\xc9\xe8?'
p208
tp209
Rp210
a(g2
(g6
S'g\xd0\r\x9e\xa9\xc9\xe8?'
p211
tp212
Rp213
g200
tp214
a(g213
F6.1032751898095667e-05
tp215
aa(lp216
(g213
F6.1032751898095667e-05
tp217
ag2
(g6
S'T\xc0!k\x8b\x00\xb8<'
p218
tp219
Rp220
aI45809375111
aF1.0
aF5.809646666509117
ag2
(g6
S'*\x9cG\xf3\xae\xc9\xe8?'
p221
tp222
Rp223
a(g2
(g6
S'\xeeg\x81H\xb4\xc9\xe8?'
p224
tp225
Rp226
g213
tp227
a(g226
F7.629169122641731e-05
tp228
aa(lp229
(g226
F7.629169122641731e-05
tp230
ag2
(g6
S'V\x1f\xa3f\xaa\x00\xb8<'
p231
tp232
Rp233
aI45809375112
aF1.0
aF5.80968480992497
ag2
(g6
S'\xb23\xbb\x9d\xb9\xc9\xe8?'
p234
tp235
Rp236
a(g2
(g6
S'v\xff\xf4\xf2\xbe\xc9\xe8?'
p237
tp238
Rp239
g226
tp240
a(g239
F9.155093110064578e-05
tp241
aa(lp242
(g239
F9.155093110064578e-05
tp243
ag2
(g6
S'&\xd31b\xc9\x00\xb8<'
p244
tp245
Rp246
aI45809375112
aF1.0
aF5.809722955690272
ag2
(g6
S':\xcb.H\xc4\xc9\xe8?'
p247
tp248
Rp249
a(g2
(g6
S'\xfe\x96h\x9d\xc9\xc9\xe8?'
p250
tp251
Rp252
g239
tp253
a(g252
F0.00010681047152242125
tp254
aa(lp255
(g252
F0.00010681047152242125
tp256
ag2
(g6
S'\xb6\xdb\xcd]\xe8\x00\xb8<'
p257
tp258
Rp259
aI45809375112
aF1.0
aF5.809761097263962
ag2
(g6
S'\xc2b\xa2\xf2\xce\xc9\xe8?'
p260
tp261
Rp262
a(g2
(g6
S'\x86.\xdcG\xd4\xc9\xe8?'
p263
tp264
Rp265
g252
tp266
a(g265
F0.00012207031249371695
tp267
aa.