(lp0
(lp1
(cnumpy.core.multiarray
scalar
p2
(cnumpy
dtype
p3
(S'f8'
p4
I0
I1
tp5
Rp6
(I3
S'<'
p7
NNNI-1
I-1
I0
tp8
bS'}\x99\xee\xe7\xdd\x08i@'
p9
tp10
Rp11
F-3.8146970190430623e-06
tp12
ag2
(g6
S'\xc9\x8c\xea@\xd7\xdd\xdc<'
p13
tp14
Rp15
aI595147701
aF1.0
aF-0.0001390860862035669
ag2
(g6
S'X7\xab\xf9\xdd\x08i@'
p16
tp17
Rp18
a(g2
(g6
S'2\xd5g\x0b\xde\x08i@'
p19
tp20
Rp21
g11
tp22
a(g21
F-2.8610226436169092e-06
tp23
aa(lp24
(g2
(g6
S'\xe6\x10\xe1.\xde\x08i@'
p25
tp26
Rp27
F-1.90734834952053e-06
tp28
ag2
(g6
S'\xf9\xb7m\x18\xd7\xdd\xdc<'
p29
tp30
Rp31
aI595147700
aF1.0
aF-0.00013956290053503598
ag2
(g6
S'\x0cs$\x1d\xde\x08i@'
p32
tp33
Rp34
a(g27
g21
tp35
a(g21
F-2.8610226436169092e-06
tp36
aa(lp37
(g27
F-1.90734834952053e-06
tp38
ag2
(g6
S'\xdd\xec\xf9\xf9\xd6\xdd\xdc<'
p39
tp40
Rp41
aI297573850
aF1.0
aF-0.00013992049909148768
ag2
(g6
S'\xd3_\xbf7\xde\x08i@'
p42
tp43
Rp44
a(g2
(g6
S'\xc0\xae\x9d@\xde\x08i@'
p45
tp46
Rp47
g27
tp48
a(g47
F-1.4305112324553662e-06
tp49
aa(lp50
(g2
(g6
S'\x9aLZR\xde\x08i@'
p51
tp52
Rp53
F-9.536741354243614e-07
tp54
ag2
(g6
S'\xe0\xe7\xa0\xe5\xd6\xdd\xdc<'
p55
tp56
Rp57
aI297573850
aF1.0
aF-0.00014015891786512205
ag2
(g6
S'\xad\xfd{I\xde\x08i@'
p58
tp59
Rp60
a(g53
g47
tp61
a(g47
F-1.4305112324553662e-06
tp62
aa(lp63
(g2
(g6
S't\xea\x16d\xde\x08i@'
p64
tp65
Rp66
F-4.7683705846162263e-07
tp67
ag2
(g6
S'\xae\x04?\xd1\xd6\xdd\xdc<'
p68
tp69
Rp70
aI297573850
aF1.0
aF-0.0001403973247971565
ag2
(g6
S'\x87\x9b8[\xde\x08i@'
p71
tp72
Rp73
a(g66
g53
tp74
a(g53
F-9.536741354243614e-07
tp75
aa(lp76
(g2
(g6
S'b9\xf5l\xde\x08i@'
p77
tp78
Rp79
F-2.384185259140953e-07
tp80
ag2
(g6
S'k\x0f\xf0\xc1\xd6\xdd\xdc<'
p81
tp82
Rp83
aI148786926
aF1.0
aF-0.0001405761310669521
ag2
(g6
S'\xeb\x11\x86h\xde\x08i@'
p84
tp85
Rp86
a(g79
g66
tp87
a(g66
F-4.7683705846162263e-07
tp88
aa(lp89
(g2
(g6
S'\xd8`dq\xde\x08i@'
p90
tp91
Rp92
F-1.1920926312867723e-07
tp93
ag2
(g6
S'-\xa4F\xba\xd6\xdd\xdc<'
p94
tp95
Rp96
aI74393462
aF1.0
aF-0.00014066553892712718
ag2
(g6
S'\x1d\xcd,o\xde\x08i@'
p97
tp98
Rp99
a(g92
g79
tp100
a(g79
F-2.384185259140953e-07
tp101
aa(lp102
(F200.2771557933324
F1.1596684941724138e-18
tp103
ag2
(g6
S'+J*\xb5\xd6\xdd\xdc<'
p104
tp105
Rp106
aI74393463
aF1.0
aF-0.00014072513391727076
ag2
(g6
S'\x94\xf4\x9bs\xde\x08i@'
p107
tp108
Rp109
a(F200.2771557933324
g92
tp110
a(g92
F-1.1920926312867723e-07
tp111
aa(lp112
(F200.2771557933324
F1.1596684941724138e-18
tp113
ag2
(g6
S'\x15\x9a%\xb0\xd6\xdd\xdc<'
p114
tp115
Rp116
aI71641297
aF1.0
aF-0.00014078363419140863
ag2
(g6
S'\xb8\x1c\xf6w\xde\x08i@'
p117
tp118
Rp119
a(g2
(g6
S' \xb1\x18z\xde\x08i@'
p120
tp121
Rp122
F200.2771557933324
tp123
a(g122
F1.1479914756256989e-07
tp124
aa(lp125
(g122
F1.1479914756256989e-07
tp126
ag2
(g6
S'\xcb\x9a8\xab\xd6\xdd\xdc<'
p127
tp128
Rp129
aI71641296
aF1.0
aF-0.00014084103427130208
ag2
(g6
S'\x88E;|\xde\x08i@'
p130
tp131
Rp132
a(g2
(g6
S'\xf0\xd9]~\xde\x08i@'
p133
tp134
Rp135
g122
tp136
a(g135
F2.2959829235395394e-07
tp137
aa(lp138
(g135
F2.2959829235395394e-07
tp139
ag2
(g6
S'\xb3\x14\xd4\xa3\xd6\xdd\xdc<'
p140
tp141
Rp142
aI143282592
aF1.0
aF-0.000140927122111343
ag2
(g6
S'\xc0\x02\xa3\x82\xde\x08i@'
p143
tp144
Rp145
a(g2
(g6
S'\x90+\xe8\x86\xde\x08i@'
p146
tp147
Rp148
g135
tp149
a(g148
F4.591965784319873e-07
tp150
aa(lp151
(g148
F4.591965784319873e-07
tp152
ag2
(g6
S'mo\x07\x95\xd6\xdd\xdc<'
p153
tp154
Rp155
aI286565186
aF1.0
aF-0.00014109931497523142
ag2
(g6
S'1}r\x8f\xde\x08i@'
p156
tp157
Rp158
a(g2
(g6
S'\xd2\xce\xfc\x97\xde\x08i@'
p159
tp160
Rp161
g148
tp162
a(g161
F9.183931397606204e-07
tp163
aa(lp164
(g161
F9.183931397606204e-07
tp165
ag2
(g6
S'\xf1\rE\x81\xd6\xdd\xdc<'
p166
tp167
Rp168
aI286565186
aF1.0
aF-0.00014132889318620902
ag2
(g6
S's \x87\xa0\xde\x08i@'
p169
tp170
Rp171
a(g2
(g6
S'\x14r\x11\xa9\xde\x08i@'
p172
tp173
Rp174
g161
tp175
a(g174
F1.3775896823541834e-06
tp176
aa(lp177
(g174
F1.3775896823541834e-06
tp178
ag2
(g6
S'"szm\xd6\xdd\xdc<'
p179
tp180
Rp181
aI286565185
aF1.0
aF-0.0001415584787695974
ag2
(g6
S'\xb4\xc3\x9b\xb1\xde\x08i@'
p182
tp183
Rp184
a(g2
(g6
S'U\x15&\xba\xde\x08i@'
p185
tp186
Rp187
g174
tp188
a(g187
F1.8367862045798013e-06
tp189
aa(lp190
(g187
F1.8367862045798013e-06
tp191
ag2
(g6
S'>r\xe4X\xd6\xdd\xdc<'
p192
tp193
Rp194
aI308582723
aF1.0
aF-0.00014179690142273864
ag2
(g6
S'\xf6aX\xc3\xde\x08i@'
p195
tp196
Rp197
a(g2
(g6
S'\x98\xae\x8a\xcc\xde\x08i@'
p198
tp199
Rp200
g187
tp201
a(g200
F2.3312639521028464e-06
tp202
aa(lp203
(g200
F2.3312639521028464e-06
tp204
ag2
(g6
S'Z+\x82C\xd6\xdd\xdc<'
p205
tp206
Rp207
aI308582724
aF1.0
aF-0.00014204411449236773
ag2
(g6
S':\xfb\xbc\xd5\xde\x08i@'
p208
tp209
Rp210
a(g2
(g6
S'\xdcG\xef\xde\xde\x08i@'
p211
tp212
Rp213
g200
tp214
a(g213
F2.8257416793950392e-06
tp215
aa(lp216
(g213
F2.8257416793950392e-06
tp217
ag2
(g6
S'j\xae[#\xd6\xdd\xdc<'
p218
tp219
Rp220
aI617165448
aF1.0
aF-0.00014241495749885982
ag2
(g6
S' \xe1S\xf1\xde\x08i@'
p221
tp222
Rp223
a(g2
(g6
S'dz\xb8\x03\xdf\x08i@'
p224
tp225
Rp226
g213
tp227
a(g226
F3.8146970683274846e-06
tp228
aa.