(lp0
(lp1
(cnumpy.core.multiarray
scalar
p2
(cnumpy
dtype
p3
(S'f8'
p4
I0
I1
tp5
Rp6
(I3
S'<'
p7
NNNI-1
I-1
I0
tp8
bS'T\x9e\x9e\xa4\x80\xd6\xd7?'
p9
tp10
Rp11
F-0.0001566972801967218
tp12
ag2
(g6
S'\x1a\x01\xd8\xe7\xf4+\xaf<'
p13
tp14
Rp15
aI90559398645
aF1.0
aF-3.2823457138214844
ag2
(g6
S'\xce\xff\x7f/\x8b\xd6\xd7?'
p16
tp17
Rp18
a(g2
(g6
S'Iaa\xba\x95\xd6\xd7?'
p19
tp20
Rp21
g11
tp22
a(g21
F-0.00013710953957172037
tp23
aa(lp24
(g21
F-0.00013710953957172037
tp25
ag2
(g6
S'KI\xe1\xed\xe7+\xaf<'
p26
tp27
Rp28
aI45279699323
aF1.0
aF-3.2822719085536027
ag2
(g6
S'\x06\x12\xd2\xff\x9a\xd6\xd7?'
p29
tp30
Rp31
a(g2
(g6
S'\xc4\xc2BE\xa0\xd6\xd7?'
p32
tp33
Rp34
g21
tp35
a(g34
F-0.00012731573147033943
tp36
aa(lp37
(g2
(g6
S'>$$\xd0\xaa\xd6\xd7?'
p38
tp39
Rp40
F-0.00011752196484249789
tp41
ag2
(g6
S'D#HG\xdf+\xaf<'
p42
tp43
Rp44
aI45279699322
aF1.0
aF-3.2822227252561573
ag2
(g6
S'\x81s\xb3\x8a\xa5\xd6\xd7?'
p45
tp46
Rp47
a(g40
g34
tp48
a(g34
F-0.00012731573147033943
tp49
aa(lp50
(g40
F-0.00011752196484249789
tp51
ag2
(g6
S'\x8b|\xb7\xa0\xd6+\xaf<'
p52
tp53
Rp54
aI45279699322
aF1.0
aF-3.2821735332332316
ag2
(g6
S'\xfb\xd4\x94\x15\xb0\xd6\xd7?'
p55
tp56
Rp57
a(g2
(g6
S'\xb8\x85\x05[\xb5\xd6\xd7?'
p58
tp59
Rp60
g40
tp61
a(g60
F-0.00010772823968735786
tp62
aa(lp63
(g60
F-0.00010772823968735786
tp64
ag2
(g6
S',U/\xfa\xcd+\xaf<'
p65
tp66
Rp67
aI45279699323
aF1.0
aF-3.2821243324848313
ag2
(g6
S'v6v\xa0\xba\xd6\xd7?'
p68
tp69
Rp70
a(g2
(g6
S'3\xe7\xe6\xe5\xbf\xd6\xd7?'
p71
tp72
Rp73
g60
tp74
a(g73
F-9.793455600408143e-05
tp75
aa(lp76
(g73
F-9.793455600408143e-05
tp77
ag2
(g6
S'\xf0\xac\xafS\xc5+\xaf<'
p78
tp79
Rp80
aI45279699323
aF1.0
aF-3.2820751404619077
ag2
(g6
S'\xf0\x97W+\xc5\xd6\xd7?'
p81
tp82
Rp83
a(g2
(g6
S'\xaeH\xc8p\xca\xd6\xd7?'
p84
tp85
Rp86
g73
tp87
a(g86
F-8.814091379226333e-05
tp88
aa(lp89
(g86
F-8.814091379226333e-05
tp90
ag2
(g6
S'\xeb\x838\xad\xbc+\xaf<'
p91
tp92
Rp93
aI45279699322
aF1.0
aF-3.2820259571644534
ag2
(g6
S'k\xf98\xb6\xcf\xd6\xd7?'
p94
tp95
Rp96
a(g2
(g6
S'(\xaa\xa9\xfb\xd4\xd6\xd7?'
p97
tp98
Rp99
g86
tp100
a(g99
F-7.834731305149827e-05
tp101
aa(lp102
(g99
F-7.834731305149827e-05
tp103
ag2
(g6
S'\x11\xda\xc9\x06\xb4+\xaf<'
p104
tp105
Rp106
aI45279699322
aF1.0
aF-3.2819767651415277
ag2
(g6
S'\xe5Z\x1aA\xda\xd6\xd7?'
p107
tp108
Rp109
a(g2
(g6
S'\xa2\x0b\x8b\x86\xdf\xd6\xd7?'
p110
tp111
Rp112
g99
tp113
a(g112
F-6.85537537809484e-05
tp114
aa(lp115
(g2
(g6
S'\x1dml\x11\xea\xd6\xd7?'
p116
tp117
Rp118
F-5.876023597977589e-05
tp119
ag2
(g6
S'S\xafc`\xab+\xaf<'
p120
tp121
Rp122
aI45279699323
aF1.0
aF-3.281927572973639
ag2
(g6
S'`\xbc\xfb\xcb\xe4\xd6\xd7?'
p123
tp124
Rp125
a(g118
g112
tp126
a(g112
F-6.85537537809484e-05
tp127
aa(lp128
(g118
F-5.876023597977589e-05
tp129
ag2
(g6
S'\x9c\x03\x06\xba\xa2+\xaf<'
p130
tp131
Rp132
aI45279699323
aF1.0
aF-3.2818783852409665
ag2
(g6
S'\xda\x1d\xddV\xef\xd6\xd7?'
p133
tp134
Rp135
a(g2
(g6
S'\x98\xceM\x9c\xf4\xd6\xd7?'
p136
tp137
Rp138
g118
tp139
a(g138
F-4.896675964757549e-05
tp140
aa(lp141
(g138
F-4.896675964757549e-05
tp142
ag2
(g6
S'\xef\xd6\xb0\x13\x9a+\xaf<'
p143
tp144
Rp145
aI45279699322
aF1.0
aF-3.2818291976532525
ag2
(g6
S'U\x7f\xbe\xe1\xf9\xd6\xd7?'
p146
tp147
Rp148
a(g2
(g6
S"\x120/'\xff\xd6\xd7?"
p149
tp150
Rp151
g138
tp152
a(g151
F-3.917332478394196e-05
tp153
aa(lp154
(g2
(g6
S'\x8c\x91\x10\xb2\t\xd7\xd7?'
p155
tp156
Rp157
F-2.9379931388037517e-05
tp158
ag2
(g6
S'6)dm\x91+\xaf<'
p159
tp160
Rp161
aI45279699322
aF1.0
aF-3.2817800142108293
ag2
(g6
S'\xcf\xe0\x9fl\x04\xd7\xd7?'
p162
tp163
Rp164
a(g157
g151
tp165
a(g151
F-3.917332478394196e-05
tp166
aa(lp167
(g157
F-2.9379931388037517e-05
tp168
ag2
(g6
S'l\xfa\x1f\xc7\x88+\xaf<'
p169
tp170
Rp171
aI45279699323
aF1.0
aF-3.281730826333201
ag2
(g6
S'JB\x81\xf7\x0e\xd7\xd7?'
p172
tp173
Rp174
a(g2
(g6
S'\x07\xf3\xf1<\x14\xd7\xd7?'
p175
tp176
Rp177
g157
tp178
a(g177
F-1.958657945902437e-05
tp179
aa(lp180
(g2
(g6
S'\xc4\xa3b\x82\x19\xd7\xd7?'
p181
tp182
Rp183
F-1.4689919044597072e-05
tp184
ag2
(g6
S'\xa1&rJ\x82+\xaf<'
p185
tp186
Rp187
aI22639849661
aF1.0
aF-3.281693943186589
ag2
(g6
S'fK\xaa\xdf\x16\xd7\xd7?'
p188
tp189
Rp190
a(g183
g177
tp191
a(g177
F-1.958657945902437e-05
tp192
aa(lp193
(g183
F-1.4689919044597072e-05
tp194
ag2
(g6
S'gnV\xf7}+\xaf<'
p195
tp196
Rp197
aI22639849662
aF1.0
aF-3.2816693425949723
ag2
(g6
S'#\xfc\x1a%\x1c\xd7\xd7?'
p198
tp199
Rp200
a(g2
(g6
S'\x82T\xd3\xc7\x1e\xd7\xd7?'
p201
tp202
Rp203
g183
tp204
a(g203
F-9.793268996497327e-06
tp205
aa(lp206
(g2
(g6
S'?\x05D\r$\xd7\xd7?'
p207
tp208
Rp209
F-4.8966293150800255e-06
tp210
ag2
(g6
S'\xdc\xd5<\xa4y+\xaf<'
p211
tp212
Rp213
aI22639849661
aF1.0
aF-3.281644751163663
ag2
(g6
S'\xe0\xac\x8bj!\xd7\xd7?'
p214
tp215
Rp216
a(g209
g203
tp217
a(g203
F-9.793268996497327e-06
tp218
aa(lp219
(g2
(g6
S'\x9e]\xfc\xaf&\xd7\xd7?'
p220
tp221
Rp222
F-2.4483133616637655e-06
tp223
ag2
(g6
S'G\xf7\xeaev+\xaf<'
p224
tp225
Rp226
aI11319924831
aF1.0
aF-3.2816263070828557
ag2
(g6
S'n1\xa0^%\xd7\xd7?'
p227
tp228
Rp229
a(g222
g209
tp230
a(g209
F-4.8966293150800255e-06
tp231
aa(lp232
(g2
(g6
S'\xcd\x89X\x01(\xd7\xd7?'
p233
tp234
Rp235
F-1.224156356909662e-06
tp236
ag2
(g6
S'\xed~\xc2\xc6t+\xaf<'
p237
tp238
Rp239
aI5659962415
aF1.0
aF-3.281617087912323
ag2
(g6
S"\xb6s\xaaX'\xd7\xd7?"
p240
tp241
Rp242
a(g235
g222
tp243
a(g222
F-2.4483133616637655e-06
tp244
aa(lp245
(F0.3725074107813666
F-5.1196989365556847e-17
tp246
ag2
(g6
S'\xa9\x06\xfd\xb1s+\xaf<'
p247
tp248
Rp249
aI5659962415
aF1.0
aF-3.2816109399820195
ag2
(g6
S'\xe4\x9f\x06\xaa(\xd7\xd7?'
p250
tp251
Rp252
a(F0.3725074107813666
g235
tp253
a(g235
F-1.224156356909662e-06
tp254
aa(lp255
(F0.3725074107813666
F-5.1196989365556847e-17
tp256
ag2
(g6
S'\x0c\xebG`r+\xaf<'
p257
tp258
Rp259
aI8152272722
aF1.0
aF-3.281603439946088
ag2
(g6
S'\xa5\x9d\xa9E*\xd7\xd7?'
p260
tp261
Rp262
a(g2
(g6
S'N\x85\x9e8+\xd7\xd7?'
p263
tp264
Rp265
F0.3725074107813666
tp266
a(g265
F1.7632007597849772e-06
tp267
aa(lp268
(g265
F1.7632007597849772e-06
tp269
ag2
(g6
S'pD\xa3\xd1p+\xaf<'
p270
tp271
Rp272
aI8152272721
aF1.0
aF-3.2815945876043227
ag2
(g6
S'\xf6l\x93+,\xd7\xd7?'
p273
tp274
Rp275
a(g2
(g6
S'\x9fT\x88\x1e-\xd7\xd7?'
p276
tp277
Rp278
g265
tp279
a(g278
F3.5264001752993136e-06
tp280
aa(lp281
(g278
F3.5264001752993136e-06
tp282
ag2
(g6
S'\x7f\xd7\xac{n+\xaf<'
p283
tp284
Rp285
aI16304545443
aF1.0
aF-3.281581302311501
ag2
(g6
S'\xf0#r\x04/\xd7\xd7?'
p286
tp287
Rp288
a(g2
(g6
S'B\xf3[\xea0\xd7\xd7?'
p289
tp290
Rp291
g278
tp292
a(g291
F7.052794974242112e-06
tp293
aa(lp294
(g291
F7.052794974242112e-06
tp295
ag2
(g6
S'\x18\xeb\xc1\xcfi+\xaf<'
p296
tp297
Rp298
aI32609090887
aF1.0
aF-3.2815547364656834
ag2
(g6
S'\xe6\x91/\xb64\xd7\xd7?'
p299
tp300
Rp301
a(g2
(g6
S'\x890\x03\x828\xd7\xd7?'
p302
tp303
Rp304
g291
tp305
a(g304
F1.4105568443236915e-05
tp306
aa(lp307
(g304
F1.4105568443236915e-05
tp308
ag2
(g6
S'4\x03\xd2\x85c+\xaf<'
p309
tp310
Rp311
aI33238747265
aF1.0
aF-3.281518975900523
ag2
(g6
S'\xca\xb4\x9a`<\xd7\xd7?'
p312
tp313
Rp314
a(g2
(g6
S'\n92?@\xd7\xd7?'
p315
tp316
Rp317
g304
tp318
a(g317
F2.1294503392566167e-05
tp319
aa(lp320
(g317
F2.1294503392566167e-05
tp321
ag2
(g6
S'A\x9d\x81,]+\xaf<'
p322
tp323
Rp324
aI33238747266
aF1.0
aF-3.2814828738141895
ag2
(g6
S'K\xbd\xc9\x1dD\xd7\xd7?'
p325
tp326
Rp327
a(g2
(g6
S'\x8cAa\xfcG\xd7\xd7?'
p328
tp329
Rp330
g317
tp331
a(g330
F2.8483415998555856e-05
tp332
aa(lp333
(g330
F2.8483415998555856e-05
tp334
ag2
(g6
S'0\xcb5\xd3V+\xaf<'
p335
tp336
Rp337
aI33238747266
aF1.0
aF-3.281446775906109
ag2
(g6
S'\xcd\xc5\xf8\xdaK\xd7\xd7?'
p338
tp339
Rp340
a(g2
(g6
S'\x0eJ\x90\xb9O\xd7\xd7?'
p341
tp342
Rp343
g330
tp344
a(g343
F3.567230626123552e-05
tp345
aa(lp346
(g343
F3.567230626123552e-05
tp347
ag2
(g6
S'\xe5\x8c\xeeyP+\xaf<'
p348
tp349
Rp350
aI33238747266
aF1.0
aF-3.2814106700364256
ag2
(g6
S"O\xce'\x98S\xd7\xd7?"
p351
tp352
Rp353
a(g2
(g6
S'\x90R\xbfvW\xd7\xd7?'
p354
tp355
Rp356
g343
tp357
a(g356
F4.2861174180850965e-05
tp358
aa(lp359
(g356
F4.2861174180850965e-05
tp360
ag2
(g6
S'\x82\xe2\xab J+\xaf<'
p361
tp362
Rp363
aI33238747266
aF1.0
aF-3.2813745721283447
ag2
(g6
S'\xd1\xd6VU[\xd7\xd7?'
p364
tp365
Rp366
a(g2
(g6
S'\x12[\xee3_\xd7\xd7?'
p367
tp368
Rp369
g356
tp370
a(g369
F5.005001975764801e-05
tp371
aa(lp372
(g369
F5.005001975764801e-05
tp373
ag2
(g6
S'\xda\xcbm\xc7C+\xaf<'
p374
tp375
Rp376
aI33238747265
aF1.0
aF-3.281338474417705
ag2
(g6
S'R\xdf\x85\x12c\xd7\xd7?'
p377
tp378
Rp379
a(g2
(g6
S'\x93c\x1d\xf1f\xd7\xd7?'
p380
tp381
Rp382
g369
tp383
a(g382
F5.7238842991656166e-05
tp384
aa(lp385
(g382
F5.7238842991656166e-05
tp386
ag2
(g6
S'\x0cI4n=+\xaf<'
p387
tp388
Rp389
aI33238747265
aF1.0
aF-3.281302368548019
ag2
(g6
S'\xd4\xe7\xb4\xcfj\xd7\xd7?'
p390
tp391
Rp392
a(g2
(g6
S'\x14lL\xaen\xd7\xd7?'
p393
tp394
Rp395
g382
tp396
a(g395
F6.442764388333753e-05
tp397
aa(lp398
(g395
F6.442764388333753e-05
tp399
ag2
(g6
S'\xf1Y\xff\x147+\xaf<'
p400
tp401
Rp402
aI33238747266
aF1.0
aF-3.2812662784041033
ag2
(g6
S'U\xf0\xe3\x8cr\xd7\xd7?'
p403
tp404
Rp405
a(g2
(g6
S'\x96t{kv\xd7\xd7?'
p406
tp407
Rp408
g395
tp409
a(g408
F7.161642243315416e-05
tp410
aa(lp411
(g408
F7.161642243315416e-05
tp412
ag2
(g6
S'\xe6\x1a9\x8f-+\xaf<'
p413
tp414
Rp415
aI66477494532
aF1.0
aF-3.2812121235803793
ag2
(g6
S'\x18}\xaa(~\xd7\xd7?'
p416
tp417
Rp418
a(g2
(g6
S'\x9a\x85\xd9\xe5\x85\xd7\xd7?'
p419
tp420
Rp421
g408
tp422
a(g421
F8.59939125075276e-05
tp423
aa(lp424
(g421
F8.59939125075276e-05
tp425
ag2
(g6
S')\xb3\xea\xdc +\xaf<'
p426
tp427
Rp428
aI66477494531
aF1.0
aF-3.2811399278629323
ag2
(g6
S'\x1c\x8e\x08\xa3\x8d\xd7\xd7?'
p429
tp430
Rp431
a(g2
(g6
S'\x9d\x967`\x95\xd7\xd7?'
p432
tp433
Rp434
g421
tp435
a(g434
F0.00010037131321631023
tp436
aa(lp437
(g434
F0.00010037131321631023
tp438
ag2
(g6
S'9\x9a\xae*\x14+\xaf<'
p439
tp440
Rp441
aI66477494531
aF1.0
aF-3.2810677360275706
ag2
(g6
S'\x1e\x9ff\x1d\x9d\xd7\xd7?'
p442
tp443
Rp444
a(g2
(g6
S'\xa0\xa7\x95\xda\xa4\xd7\xd7?'
p445
tp446
Rp447
g434
tp448
a(g447
F0.00011474862456168459
tp449
aa(lp450
(g447
F0.00011474862456168459
tp451
ag2
(g6
S'\xef\xcf\x84x\x07+\xaf<'
p452
tp453
Rp454
aI66477494532
aF1.0
aF-3.280995544093499
ag2
(g6
S'"\xb0\xc4\x97\xac\xd7\xd7?'
p455
tp456
Rp457
a(g2
(g6
S'\xa4\xb8\xf3T\xb4\xd7\xd7?'
p458
tp459
Rp460
g447
tp461
a(g460
F0.00012912584654583314
tp462
aa(lp463
(g460
F0.00012912584654583314
tp464
ag2
(g6
S'\x1cTm\xc6\xfa*\xaf<'
p465
tp466
Rp467
aI66477494531
aF1.0
aF-3.2809233563376483
ag2
(g6
S'&\xc1"\x12\xbc\xd7\xd7?'
p468
tp469
Rp470
a(g2
(g6
S'\xa7\xc9Q\xcf\xc3\xd7\xd7?'
p471
tp472
Rp473
g460
tp474
a(g473
F0.00014350297917028947
tp475
aa(lp476
(g473
F0.00014350297917028947
tp477
ag2
(g6
S'\x9d&h\x14\xee*\xaf<'
p478
tp479
Rp480
aI66477494531
aF1.0
aF-3.280851168483088
ag2
(g6
S'(\xd2\x80\x8c\xcb\xd7\xd7?'
p481
tp482
Rp483
a(g2
(g6
S'\xaa\xda\xafI\xd3\xd7\xd7?'
p484
tp485
Rp486
g473
tp487
a(g486
F0.0001578800224372359
tp488
aa(lp489
(g486
F0.0001578800224372359
tp490
ag2
(g6
S'tGub\xe1*\xaf<'
p491
tp492
Rp493
aI66477494532
aF1.0
aF-3.2807789884914276
ag2
(g6
S',\xe3\xde\x06\xdb\xd7\xd7?'
p494
tp495
Rp496
a(g2
(g6
S'\xae\xeb\r\xc4\xe2\xd7\xd7?'
p497
tp498
Rp499
g486
tp500
a(g499
F0.0001722569763488548
tp501
aa(lp502
(g499
F0.0001722569763488548
tp503
ag2
(g6
S'Z\xb6\x94\xb0\xd4*\xaf<'
p504
tp505
Rp506
aI66477494531
aF1.0
aF-3.2807068086971736
ag2
(g6
S'0\xf4<\x81\xea\xd7\xd7?'
p507
tp508
Rp509
a(g2
(g6
S'\xb1\xfck>\xf2\xd7\xd7?'
p510
tp511
Rp512
g499
tp513
a(g512
F0.00018663384090667953
tp514
aa(lp515
(g512
F0.00018663384090667953
tp516
ag2
(g6
S'"s\xc6\xfe\xc7*\xaf<'
p517
tp518
Rp519
aI66477494531
aF1.0
aF-3.2806346288042163
ag2
(g6
S'2\x05\x9b\xfb\xf9\xd7\xd7?'
p520
tp521
Rp522
a(g2
(g6
S'\xb4\r\xca\xb8\x01\xd8\xd7?'
p523
tp524
Rp525
g512
tp526
a(g525
F0.0002010106161128923
tp527
aa(lp528
(g525
F0.0002010106161128923
tp529
ag2
(g6
S'\xbf}\nM\xbb*\xaf<'
p530
tp531
Rp532
aI66477494532
aF1.0
aF-3.2805624488125624
ag2
(g6
S'6\x16\xf9u\t\xd8\xd7?'
p533
tp534
Rp535
a(g2
(g6
S'\xb8\x1e(3\x11\xd8\xd7?'
p536
tp537
Rp538
g525
tp539
a(g538
F0.00021538730196967517
tp540
aa(lp541
(g538
F0.00021538730196967517
tp542
ag2
(g6
S'\x12\xd6`\x9b\xae*\xaf<'
p543
tp544
Rp545
aI66477494531
aF1.0
aF-3.280490269018302
ag2
(g6
S":'W\xf0\x18\xd8\xd7?"
p546
tp547
Rp548
a(g2
(g6
S'\xbb/\x86\xad \xd8\xd7?'
p549
tp550
Rp551
g538
tp552
a(g551
F0.00022976389847856145
tp553
aa(lp554
(g551
F0.00022976389847856145
tp555
ag2
(g6
S'\xe7{\xc9\xe9\xa1*\xaf<'
p556
tp557
Rp558
aI66477494531
aF1.0
aF-3.280418097086948
ag2
(g6
S'<8\xb5j(\xd8\xd7?'
p559
tp560
Rp561
a(g2
(g6
S"\xbe@\xe4'0\xd8\xd7?"
p562
tp563
Rp564
g551
tp565
a(g564
F0.00024414040564173312
tp566
aa.