(lp0
(lp1
(cnumpy.core.multiarray
scalar
p2
(cnumpy
dtype
p3
(S'f8'
p4
I0
I1
tp5
Rp6
(I3
S'<'
p7
NNNI-1
I-1
I0
tp8
bS'c\x18\xd8\xb9\xfb2\xec?'
p9
tp10
Rp11
F-0.00021219859630731855
tp12
ag2
(g6
S'\xcb\xf0r{4\xa1\xa6<'
p13
tp14
Rp15
aI125000000000
aF1.0
aF-0.5002024251501158
ag2
(g6
S'ci"G\n3\xec?'
p16
tp17
Rp18
a(g2
(g6
S'c\xbal\xd4\x183\xec?'
p19
tp20
Rp21
g11
tp22
a(g21
F-0.00019257045425710923
tp23
aa(lp24
(g21
F-0.00019257045425710923
tp25
ag2
(g6
S'\x16A\xb9\xec%\xa1\xa6<'
p26
tp27
Rp28
aI125000000000
aF1.0
aF-0.5001827894557405
ag2
(g6
S"c\x0b\xb7a'3\xec?"
p29
tp30
Rp31
a(g2
(g6
S'c\\\x01\xef53\xec?'
p32
tp33
Rp34
g21
tp35
a(g34
F-0.00017294250487408412
tp36
aa(lp37
(g34
F-0.00017294250487408412
tp38
ag2
(g6
S'\xe1\x04%^\x17\xa1\xa6<'
p39
tp40
Rp41
aI125000000000
aF1.0
aF-0.500163155450215
ag2
(g6
S'c\xadK|D3\xec?'
p42
tp43
Rp44
a(g2
(g6
S'c\xfe\x95\tS3\xec?'
p45
tp46
Rp47
g34
tp48
a(g47
F-0.00015331474815068001
tp49
aa(lp50
(g47
F-0.00015331474815068001
tp51
ag2
(g6
S'\xa9;\xb6\xcf\x08\xa1\xa6<'
p52
tp53
Rp54
aI125000000000
aF1.0
aF-0.5001435220076395
ag2
(g6
S'cO\xe0\x96a3\xec?'
p55
tp56
Rp57
a(g2
(g6
S'c\xa0*$p3\xec?'
p58
tp59
Rp60
g47
tp61
a(g60
F-0.00013368718407933411
tp62
aa(lp63
(g2
(g6
S'cB\xbf>\x8d3\xec?'
p64
tp65
Rp66
F-0.00011405981265248402
tp67
ag2
(g6
S'\xed\xe4lA\xfa\xa0\xa6<'
p68
tp69
Rp70
aI125000000000
aF1.0
aF-0.5001238891280139
ag2
(g6
S'c\xf1t\xb1~3\xec?'
p71
tp72
Rp73
a(g66
g60
tp74
a(g60
F-0.00013368718407933411
tp75
aa(lp76
(g66
F-0.00011405981265248402
tp77
ag2
(g6
S'E\x00I\xb3\xeb\xa0\xa6<'
p78
tp79
Rp80
aI125000000000
aF1.0
aF-0.5001042570928133
ag2
(g6
S'c\x93\t\xcc\x9b3\xec?'
p81
tp82
Rp83
a(g2
(g6
S'c\xe4SY\xaa3\xec?'
p84
tp85
Rp86
g66
tp87
a(g86
F-9.443263386256764e-05
tp88
aa(lp89
(g86
F-9.443263386256764e-05
tp90
ag2
(g6
S'0\x8dJ%\xdd\xa0\xa6<'
p91
tp92
Rp93
aI125000000000
aF1.0
aF-0.5000846261835125
ag2
(g6
S'c5\x9e\xe6\xb83\xec?'
p94
tp95
Rp96
a(g2
(g6
S'c\x86\xe8s\xc73\xec?'
p97
tp98
Rp99
g86
tp100
a(g99
F-7.48056477020233e-05
tp101
aa(lp102
(g99
F-7.48056477020233e-05
tp103
ag2
(g6
S'\xa3\x1d\xe3:\xd2\xa0\xa6<'
p104
tp105
Rp106
aI62500000000
aF1.0
aF-0.5000699027904307
ag2
(g6
S'\xe3\xae\x8d\xba\xce3\xec?'
p107
tp108
Rp109
a(g2
(g6
S'c\xd72\x01\xd63\xec?'
p110
tp111
Rp112
g99
tp113
a(g112
F-6.49922268554027e-05
tp114
aa(lp115
(g2
(g6
S'c(}\x8e\xe43\xec?'
p116
tp117
Rp118
F-5.517885416328966e-05
tp119
ag2
(g6
S'\xd2\xf8\xff\xf3\xca\xa0\xa6<'
p120
tp121
Rp122
aI62500000000
aF1.0
aF-0.5000600888838928
ag2
(g6
S'\xe3\xff\xd7G\xdd3\xec?'
p123
tp124
Rp125
a(g118
g112
tp126
a(g112
F-6.49922268554027e-05
tp127
aa(lp128
(g2
(g6
S'c(}\x8e\xe43\xec?'
p129
tp130
Rp131
F-5.517885416328966e-05
tp132
ag2
(g6
S'z\xd2?3\xc2\xa0\xa6<'
p133
tp134
Rp135
aI87858031345
aF1.0
aF-0.500048283767341
ag2
(g6
S'\xdc\xbd\xdc\xc8\xee3\xec?'
p136
tp137
Rp138
a(g2
(g6
S'TS<\x03\xf93\xec?'
p139
tp140
Rp141
g131
tp142
a(g141
F-4.13839978966179e-05
tp143
aa(lp144
(g141
F-4.13839978966179e-05
tp145
ag2
(g6
S'\x016L\x87\xba\xa0\xa6<'
p146
tp147
Rp148
aI43929015672
aF1.0
aF-0.5000379359651105
ag2
(g6
S'\x10\x1el \xfe3\xec?'
p149
tp150
Rp151
a(g2
(g6
S'\xcc\xe8\x9b=\x034\xec?'
p152
tp153
Rp154
g141
tp155
a(g154
F-3.448660544564123e-05
tp156
aa(lp157
(g2
(g6
S'E~\xfbw\r4\xec?'
p158
tp159
Rp160
F-2.7589236782257158e-05
tp161
ag2
(g6
S'9M\x05j\xb5\xa0\xa6<'
p162
tp163
Rp164
aI43929015673
aF1.0
aF-0.5000310383495468
ag2
(g6
S'\x88\xb3\xcbZ\x084\xec?'
p165
tp166
Rp167
a(g160
g154
tp168
a(g154
F-3.448660544564123e-05
tp169
aa(lp170
(g160
F-2.7589236782257158e-05
tp171
ag2
(g6
S'\x1b\x04\xc3L\xb0\xa0\xa6<'
p172
tp173
Rp174
aI43929015673
aF1.0
aF-0.5000241413265153
ag2
(g6
S'\x02I+\x95\x124\xec?'
p175
tp176
Rp177
a(g2
(g6
S'\xbe\x13[\xb2\x174\xec?'
p178
tp179
Rp180
g160
tp181
a(g180
F-2.069189190629455e-05
tp182
aa(lp183
(g2
(g6
S'6\xa9\xba\xec!4\xec?'
p184
tp185
Rp186
F-1.3794570817582279e-05
tp187
ag2
(g6
S'\x9cZ\x85/\xab\xa0\xa6<'
p188
tp189
Rp190
aI43929015672
aF1.0
aF-0.5000172431867156
ag2
(g6
S'z\xde\x8a\xcf\x1c4\xec?'
p191
tp192
Rp193
a(g186
g180
tp194
a(g180
F-2.069189190629455e-05
tp195
aa(lp196
(g2
(g6
S"\xae>\x1a',4\xec?"
p197
tp198
Rp199
F-6.897273515635197e-06
tp200
ag2
(g6
S'\xbbPL\x12\xa6\xa0\xa6<'
p201
tp202
Rp203
aI43929015672
aF1.0
aF-0.5000103461636838
ag2
(g6
S"\xf2s\xea\t'4\xec?"
p204
tp205
Rp206
a(g199
g186
tp207
a(g186
F-1.3794570817582279e-05
tp208
aa(lp209
(g2
(g6
S'j\tJD14\xec?'
p210
tp211
Rp212
F-3.448633784596064e-06
tp213
ag2
(g6
S'\x0fmd<\xa2\xa0\xa6<'
p214
tp215
Rp216
aI21964507836
aF1.0
aF-0.5000051726842017
ag2
(g6
S'\x0c$\xb2\xb5.4\xec?'
p217
tp218
Rp219
a(g212
g199
tp220
a(g199
F-6.897273515635197e-06
tp221
aa(lp222
(g2
(g6
S'\xc8\xee\xe1\xd234\xec?'
p223
tp224
Rp225
F-1.724316149042155e-06
tp226
ag2
(g6
S' ~qQ\xa0\xa0\xa6<'
p227
tp228
Rp229
aI10982253918
aF1.0
aF-0.5000025865142272
ag2
(g6
S'\x19\xfc\x95\x8b24\xec?'
p230
tp231
Rp232
a(g225
g212
tp233
a(g212
F-3.448633784596064e-06
tp234
aa(lp235
(F0.881373587019543
F3.182752524377401e-17
tp236
ag2
(g6
S'xA%\n\x9f\xa0\xa6<'
p237
tp238
Rp239
aI10982253919
aF1.0
aF-0.5000008623098549
ag2
(g6
S'x\xe1-\x1a54\xec?'
p240
tp241
Rp242
a(F0.881373587019543
g225
tp243
a(g225
F-1.724316149042155e-06
tp244
aa(lp245
(F0.881373587019543
F3.182752524377401e-17
tp246
ag2
(g6
S'\xe8\x9d}\xcf\x9d\xa0\xa6<'
p247
tp248
Rp249
aI10133873041
aF1.0
aF-0.4999992043666943
ag2
(g6
S'\xf0$}\x8f74\xec?'
p250
tp251
Rp252
a(g2
(g6
S'\xb8u\x80\xbd84\xec?'
p253
tp254
Rp255
F0.881373587019543
tp256
a(g255
F1.591111131016629e-06
tp257
aa(lp258
(g255
F1.591111131016629e-06
tp259
ag2
(g6
S'\x1b\x8cz\xa1\x9c\xa0\xa6<'
p260
tp261
Rp262
aI10133873040
aF1.0
aF-0.4999976135413072
ag2
(g6
S'\x80\xc6\x83\xeb94\xec?'
p263
tp264
Rp265
a(g2
(g6
S'H\x17\x87\x19;4\xec?'
p266
tp267
Rp268
g255
tp269
a(g268
F3.182220996030127e-06
tp270
aa(lp271
(g268
F3.182220996030127e-06
tp272
ag2
(g6
S'aov\xdc\x9a\xa0\xa6<'
p273
tp274
Rp275
aI20267746082
aF1.0
aF-0.4999952265546615
ag2
(g6
S'\xd9\xb8\x8du=4\xec?'
p276
tp277
Rp278
a(g2
(g6
S'jZ\x94\xd1?4\xec?'
p279
tp280
Rp281
g268
tp282
a(g281
F6.36443692894437e-06
tp283
aa(lp284
(g281
F6.36443692894437e-06
tp285
ag2
(g6
S'\xce\xeeoR\x97\xa0\xa6<'
p286
tp287
Rp288
aI40535492164
aF1.0
aF-0.4999904537824647
ag2
(g6
S'\x8c\x9d\xa1\x89D4\xec?'
p289
tp290
Rp291
a(g2
(g6
S'\xae\xe0\xaeAI4\xec?'
p292
tp293
Rp294
g281
tp295
a(g294
F1.2728853605178557e-05
tp296
aa(lp297
(g294
F1.2728853605178557e-05
tp298
ag2
(g6
S'(\x8bj\x9a\x92\xa0\xa6<'
p299
tp300
Rp301
aI40535492164
aF1.0
aF-0.4999840890824648
ag2
(g6
S'\xd0#\xbc\xf9M4\xec?'
p302
tp303
Rp304
a(g2
(g6
S'\xf2f\xc9\xb1R4\xec?'
p305
tp306
Rp307
g294
tp308
a(g307
F1.9093250028835172e-05
tp309
aa(lp310
(g307
F1.9093250028835172e-05
tp311
ag2
(g6
S';\x17i\xe2\x8d\xa0\xa6<'
p312
tp313
Rp314
aI40535492164
aF1.0
aF-0.499977724717044
ag2
(g6
S'\x14\xaa\xd6iW4\xec?'
p315
tp316
Rp317
a(g2
(g6
S'6\xed\xe3!\\4\xec?'
p318
tp319
Rp320
g307
tp321
a(g320
F2.5457626200172008e-05
tp322
aa(lp323
(g320
F2.5457626200172008e-05
tp324
ag2
(g6
S'\xb7\xc8n\xce\x86\xa0\xa6<'
p325
tp326
Rp327
aI81070984328
aF1.0
aF-0.4999681788380712
ag2
(g6
S'zs\xfe\x91e4\xec?'
p328
tp329
Rp330
a(g2
(g6
S'\xbe\xf9\x18\x02o4\xec?'
p331
tp332
Rp333
g320
tp334
a(g333
F3.8186317786917464e-05
tp335
aa(lp336
(g333
F3.8186317786917464e-05
tp337
ag2
(g6
S'\xf7~\x83^}\xa0\xa6<'
p338
tp339
Rp340
aI81070984327
aF1.0
aF-0.49995545145788023
ag2
(g6
S'\x02\x803rx4\xec?'
p341
tp342
Rp343
a(g2
(g6
S'E\x06N\xe2\x814\xec?'
p344
tp345
Rp346
g333
tp347
a(g346
F5.091492836732016e-05
tp348
aa(lp349
(g346
F5.091492836732016e-05
tp350
ag2
(g6
S'\xc8\xf3\xa7\xees\xa0\xa6<'
p351
tp352
Rp353
aI81070984327
aF1.0
aF-0.49994272406535517
ag2
(g6
S'\x88\x8chR\x8b4\xec?'
p354
tp355
Rp356
a(g2
(g6
S'\xcc\x12\x83\xc2\x944\xec?'
p357
tp358
Rp359
g346
tp360
a(g359
F6.364345794359926e-05
tp361
aa(lp362
(g359
F6.364345794359926e-05
tp363
ag2
(g6
S"\x11'\xdc~j\xa0\xa6<"
p364
tp365
Rp366
aI81070984328
aF1.0
aF-0.49992999766423446
ag2
(g6
S'\x10\x99\x9d2\x9e4\xec?'
p367
tp368
Rp369
a(g2
(g6
S'T\x1f\xb8\xa2\xa74\xec?'
p370
tp371
Rp372
g359
tp373
a(g372
F7.637190651797388e-05
tp374
aa(lp375
(g372
F7.637190651797388e-05
tp376
ag2
(g6
S'\xab\x18 \x0fa\xa0\xa6<'
p377
tp378
Rp379
aI81070984328
aF1.0
aF-0.4999172702717097
ag2
(g6
S'\x98\xa5\xd2\x12\xb14\xec?'
p380
tp381
Rp382
a(g2
(g6
S'\xdc+\xed\x82\xba4\xec?'
p383
tp384
Rp385
g372
tp386
a(g385
F8.910027409234903e-05
tp387
aa(lp388
(g385
F8.910027409234903e-05
tp389
ag2
(g6
S'x\xc8s\x9fW\xa0\xa6<'
p390
tp391
Rp392
aI81070984327
aF1.0
aF-0.49990454422983427
ag2
(g6
S' \xb2\x07\xf3\xc34\xec?'
p393
tp394
Rp395
a(g2
(g6
S'c8"c\xcd4\xec?'
p396
tp397
Rp398
g385
tp399
a(g398
F0.0001018285606686297
tp400
aa(lp401
(g2
(g6
S'c8"c\xcd4\xec?'
p402
tp403
Rp404
F0.0001018285606686297
tp405
ag2
(g6
S'\xeb\xd3\x90OL\xa0\xa6<'
p406
tp407
Rp408
aI113308910463
aF1.0
aF-0.4998892887354674
ag2
(g6
S'"\x9a\x00\x94\xda4\xec?'
p409
tp410
Rp411
a(g2
(g6
S'\xe2\xfb\xde\xc4\xe74\xec?'
p412
tp413
Rp414
g404
tp415
a(g414
F0.00011961812241805501
tp416
aa(lp417
(g414
F0.00011961812241805501
tp418
ag2
(g6
S'U<\x81\x1f?\xa0\xa6<'
p419
tp420
Rp421
aI113308910464
aF1.0
aF-0.4998715038996486
ag2
(g6
S'\xa2]\xbd\xf5\xf44\xec?'
p422
tp423
Rp424
a(g2
(g6
S'b\xbf\x9b&\x025\xec?'
p425
tp426
Rp427
g414
tp428
a(g427
F0.0001374075259537185
tp429
aa(lp430
(g427
F0.0001374075259537185
tp431
ag2
(g6
S'\x8ed\x90\xef1\xa0\xa6<'
p432
tp433
Rp434
aI113308910464
aF1.0
aF-0.4998537197577653
ag2
(g6
S'"!zW\x0f5\xec?'
p435
tp436
Rp437
a(g2
(g6
S'\xe2\x82X\x88\x1c5\xec?'
p438
tp439
Rp440
g427
tp441
a(g440
F0.0001551967712810921
tp442
aa(lp443
(g440
F0.0001551967712810921
tp444
ag2
(g6
S'2L\xbe\xbf$\xa0\xa6<'
p445
tp446
Rp447
aI113308910463
aF1.0
aF-0.4998359356247046
ag2
(g6
S'\xa2\xe46\xb9)5\xec?'
p448
tp449
Rp450
a(g2
(g6
S'aF\x15\xea65\xec?'
p451
tp452
Rp453
g440
tp454
a(g453
F0.00017298585840564755
tp455
aa(lp456
(g453
F0.00017298585840564755
tp457
ag2
(g6
S'\xfb\xf2\n\x90\x17\xa0\xa6<'
p458
tp459
Rp460
aI113308910463
aF1.0
aF-0.49981815285304537
ag2
(g6
S' \xa8\xf3\x1aD5\xec?'
p461
tp462
Rp463
a(g2
(g6
S'\xe0\t\xd2KQ5\xec?'
p464
tp465
Rp466
g453
tp467
a(g466
F0.0001907747873331703
tp468
aa(lp469
(g466
F0.0001907747873331703
tp470
ag2
(g6
S'\x7fXv`\n\xa0\xa6<'
p471
tp472
Rp473
aI113308910464
aF1.0
aF-0.4998003707576765
ag2
(g6
S'\xa0k\xb0|^5\xec?'
p474
tp475
Rp476
a(g2
(g6
S'`\xcd\x8e\xadk5\xec?'
p477
tp478
Rp479
g466
tp480
a(g479
F0.0002085635580694456
tp481
aa(lp482
(g479
F0.0002085635580694456
tp483
ag2
(g6
S'^|\x001\xfd\x9f\xa6<'
p484
tp485
Rp486
aI113308910464
aF1.0
aF-0.499782589356242
ag2
(g6
S' /m\xdex5\xec?'
p487
tp488
Rp489
a(g2
(g6
S'\xe0\x90K\x0f\x865\xec?'
p490
tp491
Rp492
g479
tp493
a(g492
F0.00022635217061994434
tp494
aa(lp495
(g492
F0.00022635217061994434
tp496
ag2
(g6
S'J^\xa9\x01\xf0\x9f\xa6<'
p497
tp498
Rp499
aI113308910463
aF1.0
aF-0.49976480864874084
ag2
(g6
S'\xa0\xf2)@\x935\xec?'
p500
tp501
Rp502
a(g2
(g6
S'_T\x08q\xa05\xec?'
p503
tp504
Rp505
g492
tp506
a(g505
F0.00024414062499013726
tp507
aa.