(lp0
(lp1
(cnumpy.core.multiarray
scalar
p2
(cnumpy
dtype
p3
(S'f8'
p4
I0
I1
tp5
Rp6
(I3
S'<'
p7
NNNI-1
I-1
I0
tp8
bS'P\x8c-\x17\xee\x11\x0b@'
p9
tp10
Rp11
F0.00012207031249818945
tp12
ag2
(g6
S'\x0f\xfc\xdd\xf6\xa4\\\xa2\xbc'
p13
tp14
Rp15
aI59886565042
aF1.0
aF0.07783036356225288
ag2
(g6
S'\xa9\xc7\xef\x0f\xf5\x11\x0b@'
p16
tp17
Rp18
a(g2
(g6
S'\x02\x03\xb2\x08\xfc\x11\x0b@'
p19
tp20
Rp21
g11
tp22
a(g21
F0.00011444009209209508
tp23
aa(lp24
(g21
F0.00011444009209209508
tp25
ag2
(g6
S'eC\xb9\x99\x93\\\xa2\xbc'
p26
tp27
Rp28
aI59886565041
aF1.0
aF0.07783295522216944
ag2
(g6
S'Z>t\x01\x03\x12\x0b@'
p29
tp30
Rp31
a(g2
(g6
S'\xb3y6\xfa\t\x12\x0b@'
p32
tp33
Rp34
g21
tp35
a(g34
F0.00010680998178567583
tp36
aa(lp37
(g34
F0.00010680998178567583
tp38
ag2
(g6
S'\x86\xa6n<\x82\\\xa2\xbc'
p39
tp40
Rp41
aI59886565041
aF1.0
aF0.07783554672619773
ag2
(g6
S'\x0c\xb5\xf8\xf2\x10\x12\x0b@'
p42
tp43
Rp44
a(g2
(g6
S'd\xf0\xba\xeb\x17\x12\x0b@'
p45
tp46
Rp47
g34
tp48
a(g47
F9.917998158247036e-05
tp49
aa(lp50
(g47
F9.917998158247036e-05
tp51
ag2
(g6
S'\xec%\xfe\xdep\\\xa2\xbc'
p52
tp53
Rp54
aI59886565042
aF1.0
aF0.07783813822762649
ag2
(g6
S'\xbd+}\xe4\x1e\x12\x0b@'
p55
tp56
Rp57
a(g2
(g6
S'\x16g?\xdd%\x12\x0b@'
p58
tp59
Rp60
g47
tp61
a(g60
F9.155009148601714e-05
tp62
aa(lp63
(g60
F9.155009148601714e-05
tp64
ag2
(g6
S'\xd8\xc1g\x81_\\\xa2\xbc'
p65
tp66
Rp67
aI59886565042
aF1.0
aF0.07784072965501018
ag2
(g6
S'o\xa2\x01\xd6,\x12\x0b@'
p68
tp69
Rp70
a(g2
(g6
S'\xc8\xdd\xc3\xce3\x12\x0b@'
p71
tp72
Rp73
g60
tp74
a(g73
F8.39203115001094e-05
tp75
aa(lp76
(g73
F8.39203115001094e-05
tp77
ag2
(g6
S'\x98z\xab#N\\\xa2\xbc'
p78
tp79
Rp80
aI59886565041
aF1.0
aF0.07784332085506004
ag2
(g6
S' \x19\x86\xc7:\x12\x0b@'
p81
tp82
Rp83
a(g2
(g6
S'yTH\xc0A\x12\x0b@'
p84
tp85
Rp86
g73
tp87
a(g86
F7.629064162854019e-05
tp88
aa(lp89
(g86
F7.629064162854019e-05
tp90
ag2
(g6
S'\x8dP\xc9\xc5<\\\xa2\xbc'
p91
tp92
Rp93
aI59886565041
aF1.0
aF0.07784591212915482
ag2
(g6
S'\xd2\x8f\n\xb9H\x12\x0b@'
p94
tp95
Rp96
a(g2
(g6
S'*\xcb\xcc\xb1O\x12\x0b@'
p97
tp98
Rp99
g86
tp100
a(g99
F6.866108187484767e-05
tp101
aa(lp102
(g2
(g6
S'\xdcAQ\xa3]\x12\x0b@'
p103
tp104
Rp105
F6.1031632242569854e-05
tp106
ag2
(g6
S'\xfdC\xc1g+\\\xa2\xbc'
p107
tp108
Rp109
aI59886565042
aF1.0
aF0.0778485032473607
ag2
(g6
S'\x83\x06\x8f\xaaV\x12\x0b@'
p110
tp111
Rp112
a(g105
g99
tp113
a(g99
F6.866108187484767e-05
tp114
aa(lp115
(g105
F6.1031632242569854e-05
tp116
ag2
(g6
S'<U\x93\t\x1a\\\xa2\xbc'
p117
tp118
Rp119
aI59886565042
aF1.0
aF0.07785109421487736
ag2
(g6
S'5}\x13\x9cd\x12\x0b@'
p120
tp121
Rp122
a(g2
(g6
S'\x8e\xb8\xd5\x94k\x12\x0b@'
p123
tp124
Rp125
g105
tp126
a(g125
F5.3402292735499464e-05
tp127
aa(lp128
(g125
F5.3402292735499464e-05
tp129
ag2
(g6
S'\xa2\x84?\xab\x08\\\xa2\xbc'
p130
tp131
Rp132
aI59886565041
aF1.0
aF0.07785368522331632
ag2
(g6
S'\xe6\xf3\x97\x8dr\x12\x0b@'
p133
tp134
Rp135
a(g2
(g6
S'?/Z\x86y\x12\x0b@'
p136
tp137
Rp138
g125
tp139
a(g138
F4.577306335742907e-05
tp140
aa(lp141
(g138
F4.577306335742907e-05
tp142
ag2
(g6
S'\x7f\xd2\xc5L\xf7[\xa2\xbc'
p143
tp144
Rp145
aI59886565041
aF1.0
aF0.0778562760758663
ag2
(g6
S'\x98j\x1c\x7f\x80\x12\x0b@'
p146
tp147
Rp148
a(g2
(g6
S'\xf0\xa5\xdew\x87\x12\x0b@'
p149
tp150
Rp151
g138
tp152
a(g151
F3.814394411189633e-05
tp153
aa(lp154
(g2
(g6
S'\xa2\x1cci\x95\x12\x0b@'
p155
tp156
Rp157
F3.0514935002438798e-05
tp158
ag2
(g6
S'(?&\xee\xe5[\xa2\xbc'
p159
tp160
Rp161
aI59886565042
aF1.0
aF0.07785886684917157
ag2
(g6
S'I\xe1\xa0p\x8e\x12\x0b@'
p162
tp163
Rp164
a(g157
g151
tp165
a(g151
F3.814394411189633e-05
tp166
aa(lp167
(g157
F3.0514935002438798e-05
tp168
ag2
(g6
S'\xe9\xca`\x8f\xd4[\xa2\xbc'
p169
tp170
Rp171
aI59886565042
aF1.0
aF0.07786145752927133
ag2
(g6
S'\xfbW%b\x9c\x12\x0b@'
p172
tp173
Rp174
a(g2
(g6
S'T\x93\xe7Z\xa3\x12\x0b@'
p175
tp176
Rp177
g157
tp178
a(g177
F2.2886036032848686e-05
tp179
aa(lp180
(g2
(g6
S'\x06\nlL\xb1\x12\x0b@'
p181
tp182
Rp183
F1.5257247206790682e-05
tp184
ag2
(g6
S'\x1cvu0\xc3[\xa2\xbc'
p185
tp186
Rp187
aI59886565042
aF1.0
aF0.0778640481518877
ag2
(g6
S'\xad\xce\xa9S\xaa\x12\x0b@'
p188
tp189
Rp190
a(g183
g177
tp191
a(g177
F2.2886036032848686e-05
tp192
aa(lp193
(g183
F1.5257247206790682e-05
tp194
ag2
(g6
S'RJ-)\xb6[\xa2\xbc'
p195
tp196
Rp197
aI29943282521
aF1.0
aF0.07786599103262493
ag2
(g6
S"\xb2'\xcd\xc8\xb4\x12\x0b@"
p198
tp199
Rp200
a(g2
(g6
S'_E.E\xb8\x12\x0b@'
p201
tp202
Rp203
g183
tp204
a(g203
F1.1442894098731408e-05
tp205
aa(lp206
(g2
(g6
S'\xb8\x80\xf0=\xbf\x12\x0b@'
p207
tp208
Rp209
F7.628568527929366e-06
tp210
ag2
(g6
S'\xc97\x9by\xad[\xa2\xbc'
p211
tp212
Rp213
aI29943282521
aF1.0
aF0.07786728628644973
ag2
(g6
S'\x0cc\x8f\xc1\xbb\x12\x0b@'
p214
tp215
Rp216
a(g209
g203
tp217
a(g203
F1.1442894098731408e-05
tp218
aa(lp219
(g2
(g6
S'\x10\xbc\xb26\xc6\x12\x0b@'
p220
tp221
Rp222
F3.814270494969994e-06
tp223
ag2
(g6
S'K\xad\xff\xc9\xa4[\xa2\xbc'
p224
tp225
Rp226
aI29943282520
aF1.0
aF0.07786858152631448
ag2
(g6
S'd\x9eQ\xba\xc2\x12\x0b@'
p227
tp228
Rp229
a(g222
g209
tp230
a(g209
F7.628568527929366e-06
tp231
aa(lp232
(g2
(g6
S'\xbc\xd9\x13\xb3\xc9\x12\x0b@'
p233
tp234
Rp235
F1.9071318052766789e-06
tp236
ag2
(g6
S'y\x1aEF\x9e[\xa2\xbc'
p237
tp238
Rp239
aI14971641260
aF1.0
aF0.07786955289961922
ag2
(g6
S'\xe6J\xe3\xf4\xc7\x12\x0b@'
p240
tp241
Rp242
a(g235
g222
tp243
a(g222
F3.814270494969994e-06
tp244
aa(lp245
(g2
(g6
S'\x92hDq\xcb\x12\x0b@'
p246
tp247
Rp248
F9.535650421516633e-07
tp249
ag2
(g6
S'\xd4\xbee\x04\x9b[\xa2\xbc'
p250
tp251
Rp252
aI7485820630
aF1.0
aF0.07787003859585215
ag2
(g6
S"'!,\x92\xca\x12\x0b@"
p253
tp254
Rp255
a(g248
g235
tp256
a(g235
F1.9071318052766789e-06
tp257
aa(lp258
(F3.3841804225511862
F5.656852201571236e-17
tp259
ag2
(g6
S'\xbf\xb7z\xd8\x98[\xa2\xbc'
p260
tp261
Rp262
aI7485820631
aF1.0
aF0.07787036237892304
ag2
(g6
S'\xfe\xaf\\P\xcc\x12\x0b@'
p263
tp264
Rp265
a(F3.3841804225511862
g248
tp266
a(g248
F9.535650421516633e-07
tp267
aa(lp268
(F3.3841804225511862
F5.656852201571236e-17
tp269
ag2
(g6
S'\x83\xa7~\xac\x96[\xa2\xbc'
p270
tp271
Rp272
aI7487550535
aF1.0
aF0.07787068626756179
ag2
(g6
S'\x8cq\x9a\x0e\xce\x12\x0b@'
p273
tp274
Rp275
a(g2
(g6
S'\xb0\xeb\xbf\xed\xce\x12\x0b@'
p276
tp277
Rp278
F3.3841804225511862
tp279
a(g278
F-9.537836803503834e-07
tp280
aa(lp281
(g278
F-9.537836803503834e-07
tp282
ag2
(g6
S'\x17\x8eq\x80\x94[\xa2\xbc'
p283
tp284
Rp285
aI7487550536
aF1.0
aF0.07787101011170793
ag2
(g6
S'\xd4e\xe5\xcc\xcf\x12\x0b@'
p286
tp287
Rp288
a(g2
(g6
S'\xf8\xdf\n\xac\xd0\x12\x0b@'
p289
tp290
Rp291
g278
tp292
a(g291
F-1.9075656389175127e-06
tp293
aa(lp294
(g291
F-1.9075656389175127e-06
tp295
ag2
(g6
S'\xd5\xb8\\>\x91[\xa2\xbc'
p296
tp297
Rp298
aI14975101070
aF1.0
aF0.07787149587247066
ag2
(g6
S'?\xd4Uj\xd2\x12\x0b@'
p299
tp300
Rp301
a(g2
(g6
S'\x86\xc8\xa0(\xd4\x12\x0b@'
p302
tp303
Rp304
g291
tp305
a(g304
F-3.815124389866745e-06
tp306
aa(lp307
(g304
F-3.815124389866745e-06
tp308
ag2
(g6
S'i\xe9.\xba\x8a[\xa2\xbc'
p309
tp310
Rp311
aI29950202140
aF1.0
aF0.07787246746730948
ag2
(g6
S'\x14\xb16\xa5\xd7\x12\x0b@'
p312
tp313
Rp314
a(g2
(g6
S'\xa2\x99\xcc!\xdb\x12\x0b@'
p315
tp316
Rp317
g304
tp318
a(g317
F-7.630221227843636e-06
tp319
aa(lp320
(g317
F-7.630221227843636e-06
tp321
ag2
(g6
S'\x17\xf0\xe9\t\x82[\xa2\xbc'
p322
tp323
Rp324
aI29950202140
aF1.0
aF0.07787376292709458
ag2
(g6
S'0\x82b\x9e\xde\x12\x0b@'
p325
tp326
Rp327
a(g2
(g6
S'\xbej\xf8\x1a\xe2\x12\x0b@'
p328
tp329
Rp330
g317
tp331
a(g330
F-1.144529051354315e-05
tp332
aa(lp333
(g330
F-1.144529051354315e-05
tp334
ag2
(g6
S'\xe1}\x9bYy[\xa2\xbc'
p335
tp336
Rp337
aI29950202140
aF1.0
aF0.0778750583102706
ag2
(g6
S'LS\x8e\x97\xe5\x12\x0b@'
p338
tp339
Rp340
a(g2
(g6
S'\xda;$\x14\xe9\x12\x0b@'
p341
tp342
Rp343
g330
tp344
a(g343
F-1.526033224650695e-05
tp345
aa(lp346
(g343
F-1.526033224650695e-05
tp347
ag2
(g6
S'\xee\xe0\x12Ql[\xa2\xbc'
p348
tp349
Rp350
aI59900404280
aF1.0
aF0.07787700140418688
ag2
(g6
S'\xf6\x0cP\r\xf0\x12\x0b@'
p351
tp352
Rp353
a(g2
(g6
S'\x12\xde{\x06\xf7\x12\x0b@'
p354
tp355
Rp356
g343
tp357
a(g356
F-2.2890333052394138e-05
tp358
aa(lp359
(g356
F-2.2890333052394138e-05
tp360
ag2
(g6
S"\xc2'=\xf0Z[\xa2\xbc"
p361
tp362
Rp363
aI59900404280
aF1.0
aF0.07787959205562525
ag2
(g6
S'.\xaf\xa7\xff\xfd\x12\x0b@'
p364
tp365
Rp366
a(g2
(g6
S'J\x80\xd3\xf8\x04\x13\x0b@'
p367
tp368
Rp369
g356
tp370
a(g369
F-3.052022364183869e-05
tp371
aa(lp372
(g369
F-3.052022364183869e-05
tp373
ag2
(g6
S'\xc7\x8bA\x8fI[\xa2\xbc'
p374
tp375
Rp376
aI59900404280
aF1.0
aF0.07788218268791135
ag2
(g6
S'fQ\xff\xf1\x0b\x13\x0b@'
p377
tp378
Rp379
a(g2
(g6
S'\x82"+\xeb\x12\x13\x0b@'
p380
tp381
Rp382
g369
tp383
a(g382
F-3.815000401117422e-05
tp384
aa(lp385
(g382
F-3.815000401117422e-05
tp386
ag2
(g6
S'Y\r .8[\xa2\xbc'
p387
tp388
Rp389
aI59900404281
aF1.0
aF0.07788477318353106
ag2
(g6
S'\x9e\xf3V\xe4\x19\x13\x0b@'
p390
tp391
Rp392
a(g2
(g6
S'\xbb\xc4\x82\xdd \x13\x0b@'
p393
tp394
Rp395
g382
tp396
a(g395
F-4.577967415686184e-05
tp397
aa(lp398
(g395
F-4.577967415686184e-05
tp399
ag2
(g6
S'\xc1\xac\xd8\xcc&[\xa2\xbc'
p400
tp401
Rp402
aI59900404281
aF1.0
aF0.0778873636434466
ag2
(g6
S"\xd8\x95\xae\xd6'\x13\x0b@"
p403
tp404
Rp405
a(g2
(g6
S'\xf4f\xda\xcf.\x13\x0b@'
p406
tp407
Rp408
g395
tp409
a(g408
F-5.340923407510804e-05
tp410
aa(lp411
(g408
F-5.340923407510804e-05
tp412
ag2
(g6
S'^jkk\x15[\xa2\xbc'
p413
tp414
Rp415
aI59900404280
aF1.0
aF0.0778899539527446
ag2
(g6
S'\x108\x06\xc95\x13\x0b@'
p416
tp417
Rp418
a(g2
(g6
S',\t2\xc2<\x13\x0b@'
p419
tp420
Rp421
g408
tp422
a(g421
F-6.103868376211944e-05
tp423
aa(lp424
(g421
F-6.103868376211944e-05
tp425
ag2
(g6
S'{F\xd8\t\x04[\xa2\xbc'
p426
tp427
Rp428
aI59900404280
aF1.0
aF0.07789254418283297
ag2
(g6
S'H\xda]\xbbC\x13\x0b@'
p429
tp430
Rp431
a(g2
(g6
S'd\xab\x89\xb4J\x13\x0b@'
p432
tp433
Rp434
g421
tp435
a(g434
F-6.866802321435752e-05
tp436
aa(lp437
(g434
F-6.866802321435752e-05
tp438
ag2
(g6
S'\\A\x1f\xa8\xf2Z\xa2\xbc'
p439
tp440
Rp441
aI59900404281
aF1.0
aF0.0778951343337114
ag2
(g6
S'\x80|\xb5\xadQ\x13\x0b@'
p442
tp443
Rp444
a(g2
(g6
S'\x9dM\xe1\xa6X\x13\x0b@'
p445
tp446
Rp447
g434
tp448
a(g447
F-7.629725242828385e-05
tp449
aa(lp450
(g447
F-7.629725242828385e-05
tp451
ag2
(g6
S'w[@F\xe1Z\xa2\xbc'
p452
tp453
Rp454
aI59900404281
aF1.0
aF0.07789772448719057
ag2
(g6
S'\xba\x1e\r\xa0_\x13\x0b@'
p455
tp456
Rp457
a(g2
(g6
S'\xd6\xef8\x99f\x13\x0b@'
p458
tp459
Rp460
g447
tp461
a(g460
F-8.392637140010544e-05
tp462
aa(lp463
(g460
F-8.392637140010544e-05
tp464
ag2
(g6
S'\xf7\x94;\xe4\xcfZ\xa2\xbc'
p465
tp466
Rp467
aI59900404280
aF1.0
aF0.07790031449005255
ag2
(g6
S'\xf2\xc0d\x92m\x13\x0b@'
p468
tp469
Rp470
a(g2
(g6
S'\x0e\x92\x90\x8bt\x13\x0b@'
p471
tp472
Rp473
g460
tp474
a(g473
F-9.155538012602937e-05
tp475
aa(lp476
(g473
F-9.155538012602937e-05
tp477
ag2
(g6
S'X\xee\x10\x82\xbeZ\xa2\xbc'
p478
tp479
Rp480
aI59900404280
aF1.0
aF0.07790290433709543
ag2
(g6
S'*c\xbc\x84{\x13\x0b@'
p481
tp482
Rp483
a(g2
(g6
S'F4\xe8}\x82\x13\x0b@'
p484
tp485
Rp486
g473
tp487
a(g486
F-9.918427860251763e-05
tp488
aa(lp489
(g486
F-9.918427860251763e-05
tp490
ag2
(g6
S'\xc6g\xc0\x1f\xadZ\xa2\xbc'
p491
tp492
Rp493
aI59900404280
aF1.0
aF0.07790549418413831
ag2
(g6
S'b\x05\x14w\x89\x13\x0b@'
p494
tp495
Rp496
a(g2
(g6
S'~\xd6?p\x90\x13\x0b@'
p497
tp498
Rp499
g486
tp500
a(g499
F-0.00010681306682590493
tp501
aa(lp502
(g499
F-0.00010681306682590493
tp503
ag2
(g6
S'\x9d\x01J\xbd\x9bZ\xa2\xbc'
p504
tp505
Rp506
aI59900404280
aF1.0
aF0.07790808395457209
ag2
(g6
S'\x9a\xa7ki\x97\x13\x0b@'
p507
tp508
Rp509
a(g2
(g6
S'\xb6x\x97b\x9e\x13\x0b@'
p510
tp511
Rp512
g499
tp513
a(g512
F-0.00011444174479252607
tp514
aa(lp515
(g512
F-0.00011444174479252607
tp516
ag2
(g6
S'J\xbc\xadZ\x8aZ\xa2\xbc'
p517
tp518
Rp519
aI59900404281
aF1.0
aF0.07791067364579544
ag2
(g6
S'\xd2I\xc3[\xa5\x13\x0b@'
p520
tp521
Rp522
a(g2
(g6
S'\xef\x1a\xefT\xac\x13\x0b@'
p523
tp524
Rp525
g512
tp526
a(g525
F-0.00012207031249884341
tp527
aa.