(lp0
(lp1
(cnumpy.core.multiarray
scalar
p2
(cnumpy
dtype
p3
(S'f8'
p4
I0
I1
tp5
Rp6
(I3
S'<'
p7
NNNI-1
I-1
I0
tp8
bS'\xff\xff\xff\xff\xff\xff\x0f\xc0'
p9
tp10
Rp11
F3.545524518541676e-18
tp12
ag2
(g6
S'\xdfr\x90\xc0\xd1YP<'
p13
tp14
Rp15
aI4202448013
aF1.0
aF0.0028687028964878396
ag2
(g6
S'\xb8\xdd\xc1\x82\xff\xff\x0f\xc0'
p16
tp17
Rp18
a(g2
(g6
S'r\xbb\x83\x05\xff\xff\x0f\xc0'
p19
tp20
Rp21
g11
tp22
a(g21
F1.4899892463040088e-08
tp23
aa(lp24
(g21
F1.4899892463040088e-08
tp25
ag2
(g6
S'-vx0\xd3YP<'
p26
tp27
Rp28
aI4202448014
aF1.0
aF0.002868692838617303
ag2
(g6
S'+\x99E\x88\xfe\xff\x0f\xc0'
p29
tp30
Rp31
a(g2
(g6
S'\xe4v\x07\x0b\xfe\xff\x0f\xc0'
p32
tp33
Rp34
g21
tp35
a(g34
F2.9799804909046108e-08
tp36
aa(lp37
(g34
F2.9799804909046108e-08
tp38
ag2
(g6
S'\x1e\xd2SX\xd5YP<'
p39
tp40
Rp41
aI8404896027
aF1.0
aF0.0028686777554919806
ag2
(g6
S'V2\x8b\x10\xfd\xff\x0f\xc0'
p42
tp43
Rp44
a(g2
(g6
S'\xc9\xed\x0e\x16\xfc\xff\x0f\xc0'
p45
tp46
Rp47
g34
tp48
a(g47
F5.9599689746130235e-08
tp49
aa(lp50
(g47
F5.9599689746130235e-08
tp51
ag2
(g6
S'a:\x08\xa8\xd9YP<'
p52
tp53
Rp54
aI16809792054
aF1.0
aF0.00286864758977605
ag2
(g6
S'\xaed\x16!\xfa\xff\x0f\xc0'
p55
tp56
Rp57
a(g2
(g6
S'\x93\xdb\x1d,\xf8\xff\x0f\xc0'
p58
tp59
Rp60
g47
tp61
a(g60
F1.1919969921280765e-07
tp62
aa(lp63
(g60
F1.1919969921280765e-07
tp64
ag2
(g6
S'.\t\x9fg\xdfYP<'
p65
tp66
Rp67
aI16809792054
aF1.0
aF0.0028686073675548334
ag2
(g6
S'xR%7\xf6\xff\x0f\xc0'
p68
tp69
Rp70
a(g2
(g6
S']\xc9,B\xf4\xff\x0f\xc0'
p71
tp72
Rp73
g60
tp74
a(g73
F1.7880002839909483e-07
tp75
aa(lp76
(g73
F1.7880002839909483e-07
tp77
ag2
(g6
S"\xb7\x8f0'\xe5YP<"
p78
tp79
Rp80
aI16809792054
aF1.0
aF0.0028685671434336537
ag2
(g6
S'B@4M\xf2\xff\x0f\xc0'
p81
tp82
Rp83
a(g2
(g6
S"'\xb7;X\xf0\xff\x0f\xc0"
p84
tp85
Rp86
g73
tp87
a(g86
F2.3840067730050883e-07
tp88
aa(lp89
(g86
F2.3840067730050883e-07
tp90
ag2
(g6
S'\xeeH\x80\xc6\xedYP<'
p91
tp92
Rp93
aI33619584108
aF1.0
aF0.002868506809151848
ag2
(g6
S'\xf1\xa4Jn\xec\xff\x0f\xc0'
p94
tp95
Rp96
a(g2
(g6
S'\xbb\x92Y\x84\xe8\xff\x0f\xc0'
p97
tp98
Rp99
g86
tp100
a(g99
F3.5760293423078506e-07
tp101
aa(lp102
(g99
F3.5760293423078506e-07
tp103
ag2
(g6
S'+\xa4\x83E\xf9YP<'
p104
tp105
Rp106
aI33619584108
aF1.0
aF0.0028684263609094884
ag2
(g6
S'\x85\x80h\x9a\xe4\xff\x0f\xc0'
p107
tp108
Rp109
a(g2
(g6
S'Onw\xb0\xe0\xff\x0f\xc0'
p110
tp111
Rp112
g99
tp113
a(g112
F4.7680646996777145e-07
tp114
aa(lp115
(g112
F4.7680646996777145e-07
tp116
ag2
(g6
S'\x0c\xdeq\xc4\x04ZP<'
p117
tp118
Rp119
aI33619584108
aF1.0
aF0.0028683459098171843
ag2
(g6
S'\x19\\\x86\xc6\xdc\xff\x0f\xc0'
p120
tp121
Rp122
a(g2
(g6
S'\xe3I\x95\xdc\xd8\xff\x0f\xc0'
p123
tp124
Rp125
g112
tp126
a(g125
F5.960112844756024e-07
tp127
aa(lp128
(g125
F5.960112844756024e-07
tp129
ag2
(g6
S'v\xf6JC\x10ZP<'
p130
tp131
Rp132
aI33619584108
aF1.0
aF0.0028682654577748988
ag2
(g6
S'\xad7\xa4\xf2\xd4\xff\x0f\xc0'
p133
tp134
Rp135
a(g2
(g6
S'w%\xb3\x08\xd1\xff\x0f\xc0'
p136
tp137
Rp138
g125
tp139
a(g138
F7.152173777184115e-07
tp140
aa(lp141
(g138
F7.152173777184115e-07
tp142
ag2
(g6
S'A\xed\x0e\xc2\x1bZP<'
p143
tp144
Rp145
aI33619584108
aF1.0
aF0.00286818500383265
ag2
(g6
S'A\x13\xc2\x1e\xcd\xff\x0f\xc0'
p146
tp147
Rp148
a(g2
(g6
S'\x0b\x01\xd14\xc9\xff\x0f\xc0'
p149
tp150
Rp151
g138
tp152
a(g151
F8.344247496603314e-07
tp153
aa(lp154
(g151
F8.344247496603314e-07
tp155
ag2
(g6
S"O\xc2\xbd@'ZP<"
p156
tp157
Rp158
aI33619584108
aF1.0
aF0.002868104547990438
ag2
(g6
S'\xd5\xee\xdfJ\xc5\xff\x0f\xc0'
p159
tp160
Rp161
a(g2
(g6
S'\x9f\xdc\xee`\xc1\xff\x0f\xc0'
p162
tp163
Rp164
g151
tp165
a(g164
F9.53633400265494e-07
tp166
aa(lp167
(g164
F9.53633400265494e-07
tp168
ag2
(g6
S'\x88uW\xbf2ZP<'
p169
tp170
Rp171
aI33619584108
aF1.0
aF0.0028680240902482627
ag2
(g6
S'i\xca\xfdv\xbd\xff\x0f\xc0'
p172
tp173
Rp174
a(g2
(g6
S'3\xb8\x0c\x8d\xb9\xff\x0f\xc0'
p175
tp176
Rp177
g164
tp178
a(g177
F1.0728433294980305e-06
tp179
aa(lp180
(g177
F1.0728433294980305e-06
tp181
ag2
(g6
S'\xd0\x06\xdc=>ZP<'
p182
tp183
Rp184
aI33619584108
aF1.0
aF0.002867943630606124
ag2
(g6
S'\xfd\xa5\x1b\xa3\xb5\xff\x0f\xc0'
p185
tp186
Rp187
a(g2
(g6
S'\xc7\x93*\xb9\xb1\xff\x0f\xc0'
p188
tp189
Rp190
g177
tp191
a(g190
F1.1920545373220713e-06
tp192
aa(lp193
(g190
F1.1920545373220713e-06
tp194
ag2
(g6
S'\xf9uK\xbcIZP<'
p195
tp196
Rp197
aI33619584108
aF1.0
aF0.0028678631671640595
ag2
(g6
S'\x91\x819\xcf\xad\xff\x0f\xc0'
p198
tp199
Rp200
a(g2
(g6
S'[oH\xe5\xa9\xff\x0f\xc0'
p201
tp202
Rp203
g190
tp204
a(g203
F1.3112670237017458e-06
tp205
aa(lp206
(g203
F1.3112670237017458e-06
tp207
ag2
(g6
S'\xe7\xc2\xa5:UZP<'
p208
tp209
Rp210
aI33619584108
aF1.0
aF0.002867782707521921
ag2
(g6
S'%]W\xfb\xa5\xff\x0f\xc0'
p211
tp212
Rp213
a(g2
(g6
S'\xefJf\x11\xa2\xff\x0f\xc0'
p214
tp215
Rp216
g203
tp217
a(g216
F1.4304807886011826e-06
tp218
aa(lp219
(g216
F1.4304807886011826e-06
tp220
ag2
(g6
S'\x81\xed\xea\xb8`ZP<'
p221
tp222
Rp223
aI33619584108
aF1.0
aF0.002867702244079856
ag2
(g6
S"\xb98u'\x9e\xff\x0f\xc0"
p224
tp225
Rp226
a(g2
(g6
S'\x83&\x84=\x9a\xff\x0f\xc0'
p227
tp228
Rp229
g216
tp230
a(g229
F1.5496958319845095e-06
tp231
aa(lp232
(g229
F1.5496958319845095e-06
tp233
ag2
(g6
S'\xaf\xf5\x1a7lZP<'
p234
tp235
Rp236
aI33619584108
aF1.0
aF0.0028676217768378648
ag2
(g6
S'M\x14\x93S\x96\xff\x0f\xc0'
p237
tp238
Rp239
a(g2
(g6
S'\x17\x02\xa2i\x92\xff\x0f\xc0'
p240
tp241
Rp242
g229
tp243
a(g242
F1.668912153815854e-06
tp244
aa(lp245
(g242
F1.668912153815854e-06
tp246
ag2
(g6
S'8\xdb5\xb5wZP<'
p247
tp248
Rp249
aI33619584108
aF1.0
aF0.002867541305795947
ag2
(g6
S'\xe1\xef\xb0\x7f\x8e\xff\x0f\xc0'
p250
tp251
Rp252
a(g2
(g6
S'\xab\xdd\xbf\x95\x8a\xff\x0f\xc0'
p253
tp254
Rp255
g242
tp256
a(g255
F1.7881297540593419e-06
tp257
aa(lp258
(g255
F1.7881297540593419e-06
tp259
ag2
(g6
S'$\x9e;3\x83ZP<'
p260
tp261
Rp262
aI33619584108
aF1.0
aF0.002867460834754029
ag2
(g6
S'u\xcb\xce\xab\x86\xff\x0f\xc0'
p263
tp264
Rp265
a(g2
(g6
S'?\xb9\xdd\xc1\x82\xff\x0f\xc0'
p266
tp267
Rp268
g255
tp269
a(g268
F1.907348632679099e-06
tp270
aa.