(lp0
(lp1
(cnumpy.core.multiarray
scalar
p2
(cnumpy
dtype
p3
(S'f8'
p4
I0
I1
tp5
Rp6
(I3
S'<'
p7
NNNI-1
I-1
I0
tp8
bS'\x04,\xe4\x8d\xbd\xa8\x0f@'
p9
tp10
Rp11
F0.00011497969395779502
tp12
ag2
(g6
S'\xea+\x8a/\xc0\xc3\xa9\xbc'
p13
tp14
Rp15
aI42877758849
aF1.0
aF0.05080408714998232
ag2
(g6
S'D\xd5\x08\x90\xb8\xa8\x0f@'
p16
tp17
Rp18
a(g11
g2
(g6
S'\x83~-\x92\xb3\xa8\x0f@'
p19
tp20
Rp21
tp22
a(g21
F0.00012264530171767144
tp23
aa(lp24
(g11
F0.00011497969395779502
tp25
ag2
(g6
S'[.\x05\x12\xb8\xc3\xa9\xbc'
p26
tp27
Rp28
aI42877758850
aF1.0
aF0.050807430681615244
ag2
(g6
S'\xc5\x82\xbf\x8b\xc2\xa8\x0f@'
p29
tp30
Rp31
a(g2
(g6
S'\x86\xd9\x9a\x89\xc7\xa8\x0f@'
p32
tp33
Rp34
g11
tp35
a(g34
F0.00010731412304010783
tp36
aa(lp37
(g34
F0.00010731412304010783
tp38
ag2
(g6
S'\x920]\xf4\xaf\xc3\xa9\xbc'
p39
tp40
Rp41
aI42877758850
aF1.0
aF0.05081077436512975
ag2
(g6
S'G0v\x87\xcc\xa8\x0f@'
p42
tp43
Rp44
a(g2
(g6
S'\x08\x87Q\x85\xd1\xa8\x0f@'
p45
tp46
Rp47
g34
tp48
a(g47
F9.964858896721325e-05
tp49
aa(lp50
(g47
F9.964858896721325e-05
tp51
ag2
(g6
S'n2\x92\xd6\xa7\xc3\xa9\xbc'
p52
tp53
Rp54
aI42877758850
aF1.0
aF0.050814117899132386
ag2
(g6
S'\xc9\xdd,\x83\xd6\xa8\x0f@'
p55
tp56
Rp57
a(g2
(g6
S'\x8a4\x08\x81\xdb\xa8\x0f@'
p58
tp59
Rp60
g47
tp61
a(g60
F9.198309174153592e-05
tp62
aa(lp63
(g60
F9.198309174153592e-05
tp64
ag2
(g6
S'$4\xa4\xb8\x9f\xc3\xa9\xbc'
p65
tp66
Rp67
aI42877758850
aF1.0
aF0.050817461433135015
ag2
(g6
S'K\x8b\xe3~\xe0\xa8\x0f@'
p68
tp69
Rp70
a(g2
(g6
S'\x0c\xe2\xbe|\xe5\xa8\x0f@'
p71
tp72
Rp73
g60
tp74
a(g73
F8.431763136550043e-05
tp75
aa(lp76
(g73
F8.431763136550043e-05
tp77
ag2
(g6
S'\xc15\x93\x9a\x97\xc3\xa9\xbc'
p78
tp79
Rp80
aI42877758849
aF1.0
aF0.05082080496950815
ag2
(g6
S'\xcc8\x9az\xea\xa8\x0f@'
p81
tp82
Rp83
a(g2
(g6
S'\x8d\x8fux\xef\xa8\x0f@'
p84
tp85
Rp86
g73
tp87
a(g86
F7.665220784171013e-05
tp88
aa(lp89
(g86
F7.665220784171013e-05
tp90
ag2
(g6
S'[7_|\x8f\xc3\xa9\xbc'
p91
tp92
Rp93
aI42877758849
aF1.0
aF0.050824148353999066
ag2
(g6
S'N\xe6Pv\xf4\xa8\x0f@'
p94
tp95
Rp96
a(g2
(g6
S'\x0e=,t\xf9\xa8\x0f@'
p97
tp98
Rp99
g86
tp100
a(g99
F6.89868211724108e-05
tp101
aa(lp102
(g99
F6.89868211724108e-05
tp103
ag2
(g6
S'\x0c9\x08^\x87\xc3\xa9\xbc'
p104
tp105
Rp106
aI42877758850
aF1.0
aF0.050827491736119175
ag2
(g6
S'\xcf\x93\x07r\xfe\xa8\x0f@'
p107
tp108
Rp109
a(g2
(g6
S'\x90\xea\xe2o\x03\xa9\x0f@'
p110
tp111
Rp112
g99
tp113
a(g112
F6.132147135984817e-05
tp114
aa(lp115
(g2
(g6
S'\x12\x98\x99k\r\xa9\x0f@'
p116
tp117
Rp118
F5.365615840662557e-05
tp119
ag2
(g6
S'\xc5:\x8e?\x7f\xc3\xa9\xbc'
p120
tp121
Rp122
aI42877758850
aF1.0
aF0.05083083512060994
ag2
(g6
S'QA\xbem\x08\xa9\x0f@'
p123
tp124
Rp125
a(g118
g112
tp126
a(g112
F6.132147135984817e-05
tp127
aa(lp128
(g118
F5.365615840662557e-05
tp129
ag2
(g6
S'\xd0<\xf1 w\xc3\xa9\xbc'
p130
tp131
Rp132
aI42877758849
aF1.0
aF0.050834178432715885
ag2
(g6
S'\xd2\xeeti\x12\xa9\x0f@'
p133
tp134
Rp135
a(g2
(g6
S'\x93EPg\x17\xa9\x0f@'
p136
tp137
Rp138
g118
tp139
a(g138
F4.599088231534622e-05
tp140
aa(lp141
(g138
F4.599088231534622e-05
tp142
ag2
(g6
S'!?1\x02o\xc3\xa9\xbc'
p143
tp144
Rp145
aI42877758849
aF1.0
aF0.05083752174245087
ag2
(g6
S'T\x9c+e\x1c\xa9\x0f@'
p146
tp147
Rp148
a(g2
(g6
S'\x14\xf3\x06c!\xa9\x0f@'
p149
tp150
Rp151
g138
tp152
a(g151
F3.832564308825582e-05
tp153
aa(lp154
(g151
F3.832564308825582e-05
tp155
ag2
(g6
S'\xceAN\xe3f\xc3\xa9\xbc'
p156
tp157
Rp158
aI42877758850
aF1.0
aF0.05084086512457035
ag2
(g6
S'\xd5I\xe2`&\xa9\x0f@'
p159
tp160
Rp161
a(g2
(g6
S'\x96\xa0\xbd^+\xa9\x0f@'
p162
tp163
Rp164
g151
tp165
a(g164
F3.066044072760006e-05
tp166
aa(lp167
(g2
(g6
S'W\xf7\x98\\0\xa9\x0f@'
p168
tp169
Rp170
F2.6827853373009836e-05
tp171
ag2
(g6
S'\x1c$\x0e\xcc`\xc3\xa9\xbc'
p172
tp173
Rp174
aI21438879425
aF1.0
aF0.05084337243867062
ag2
(g6
S'\xf6K\xab\xdd-\xa9\x0f@'
p175
tp176
Rp177
a(g170
g164
tp178
a(g164
F3.066044072760006e-05
tp179
aa(lp180
(g170
F2.6827853373009836e-05
tp181
ag2
(g6
S'\xcee\x82\xbc\\\xc3\xa9\xbc'
p182
tp183
Rp184
aI21438879425
aF1.0
aF0.050845044130916
ag2
(g6
S'\xb8\xa2\x86\xdb2\xa9\x0f@'
p185
tp186
Rp187
a(g2
(g6
S'\x18NtZ5\xa9\x0f@'
p188
tp189
Rp190
g170
tp191
a(g190
F2.299527523598212e-05
tp192
aa(lp193
(g190
F2.299527523598212e-05
tp194
ag2
(g6
S'\xa5\xe7\xed\xacX\xc3\xa9\xbc'
p195
tp196
Rp197
aI21438879424
aF1.0
aF0.05084671567839291
ag2
(g6
S'x\xf9a\xd97\xa9\x0f@'
p198
tp199
Rp200
a(g2
(g6
S'\xd8\xa4OX:\xa9\x0f@'
p201
tp202
Rp203
g190
tp204
a(g203
F1.9162706316998728e-05
tp205
aa(lp206
(g203
F1.9162706316998728e-05
tp207
ag2
(g6
S'\xa5\xa9P\x9dT\xc3\xa9\xbc'
p208
tp209
Rp210
aI21438879425
aF1.0
aF0.05084838751540676
ag2
(g6
S'8P=\xd7<\xa9\x0f@'
p211
tp212
Rp213
a(g2
(g6
S'\x99\xfb*V?\xa9\x0f@'
p214
tp215
Rp216
g203
tp217
a(g216
F1.533014661600517e-05
tp218
aa(lp219
(g2
(g6
S'ZR\x06TD\xa9\x0f@'
p220
tp221
Rp222
F1.1497596133483267e-05
tp223
ag2
(g6
S'\xca\xab\xaa\x8dP\xc3\xa9\xbc'
p224
tp225
Rp226
aI21438879425
aF1.0
aF0.05085005905814027
ag2
(g6
S'\xfa\xa6\x18\xd5A\xa9\x0f@'
p227
tp228
Rp229
a(g222
g216
tp230
a(g216
F1.533014661600517e-05
tp231
aa(lp232
(g222
F1.1497596133483267e-05
tp233
ag2
(g6
S'\x1e\xee\xfb}L\xc3\xa9\xbc'
p234
tp235
Rp236
aI21438879424
aF1.0
aF0.05085173068037359
ag2
(g6
S'\xba\xfd\xf3\xd2F\xa9\x0f@'
p237
tp238
Rp239
a(g2
(g6
S'\x1a\xa9\xe1QI\xa9\x0f@'
p240
tp241
Rp242
g222
tp243
a(g242
F7.665054869914824e-06
tp244
aa(lp245
(g2
(g6
S'\xdb\xff\xbcON\xa9\x0f@'
p246
tp247
Rp248
F3.832522825245354e-06
tp249
ag2
(g6
S'\x9epDnH\xc3\xa9\xbc'
p250
tp251
Rp252
aI21438879425
aF1.0
aF0.05085340221836322
ag2
(g6
S'zT\xcf\xd0K\xa9\x0f@'
p253
tp254
Rp255
a(g248
g242
tp256
a(g242
F7.665054869914824e-06
tp257
aa(lp258
(g2
(g6
S'<\xab\xaa\xceP\xa9\x0f@'
p259
tp260
Rp261
F1.916260260070091e-06
tp262
ag2
(g6
S'\x9aZubE\xc3\xa9\xbc'
p263
tp264
Rp265
aI10719439713
aF1.0
aF0.0508546558706692
ag2
(g6
S'\x8c\xd53\x8fO\xa9\x0f@'
p266
tp267
Rp268
a(g261
g248
tp269
a(g248
F3.832522825245354e-06
tp270
aa(lp271
(g2
(g6
S'\xec\x80!\x0eR\xa9\x0f@'
p272
tp273
Rp274
F9.58129841900628e-07
tp275
ag2
(g6
S'\xa5\xe5\x8b\xdcC\xc3\xa9\xbc'
p276
tp277
Rp278
aI5359719856
aF1.0
aF0.05085528270868263
ag2
(g6
S'\x14\x16fnQ\xa9\x0f@'
p279
tp280
Rp281
a(g274
g261
tp282
a(g261
F1.916260260070091e-06
tp283
aa(lp284
(F3.957678419314858
F-4.3331064642935194e-17
tp285
ag2
(g6
S'Z2\x9a\xd8B\xc3\xa9\xbc'
p286
tp287
Rp288
aI5359719856
aF1.0
aF0.050855700594366046
ag2
(g6
S'\xc4\xeb\xdc\xadR\xa9\x0f@'
p289
tp290
Rp291
a(F3.957678419314858
g274
tp292
a(g274
F9.58129841900628e-07
tp293
aa(lp294
(F3.957678419314858
F-4.3331064642935194e-17
tp295
ag2
(g6
S'\xbb\xeeN\xe2A\xc3\xa9\xbc'
p296
tp297
Rp298
aI4796741973
aF1.0
aF0.05085609659892863
ag2
(g6
S'F\x93\x8c\xdcS\xa9\x0f@'
p299
tp300
Rp301
a(g2
(g6
S'\xf1\xcf\x80kT\xa9\x0f@'
p302
tp303
Rp304
F3.957678419314858
tp305
a(g304
F-8.574886623340296e-07
tp306
aa(lp307
(g304
F-8.574886623340296e-07
tp308
ag2
(g6
S'Y-\xaa\xf9@\xc3\xa9\xbc'
p309
tp310
Rp311
aI4796741973
aF1.0
aF0.0508564706792508
ag2
(g6
S'\x9c\x0cu\xfaT\xa9\x0f@'
p312
tp313
Rp314
a(g2
(g6
S'FIi\x89U\xa9\x0f@'
p315
tp316
Rp317
g304
tp318
a(g317
F-1.7149768630863994e-06
tp319
aa(lp320
(g317
F-1.7149768630863994e-06
tp321
ag2
(g6
S'\x07+\xb2\x9c?\xc3\xa9\xbc'
p322
tp323
Rp324
aI9593483947
aF1.0
aF0.05085703160246482
ag2
(g6
S'\x9c\xc2Q\xa7V\xa9\x0f@'
p325
tp326
Rp327
a(g2
(g6
S'\xf1;:\xc5W\xa9\x0f@'
p328
tp329
Rp330
g317
tp331
a(g330
F-3.4299518801413407e-06
tp332
aa(lp333
(g330
F-3.4299518801413407e-06
tp334
ag2
(g6
S'\x88\x15\xbf\xe2<\xc3\xa9\xbc'
p335
tp336
Rp337
aI19186967893
aF1.0
aF0.050858153568732176
ag2
(g6
S'\x9c.\x0b\x01Z\xa9\x0f@'
p338
tp339
Rp340
a(g2
(g6
S'F!\xdc<\\\xa9\x0f@'
p341
tp342
Rp343
g330
tp344
a(g343
F-6.859896375463171e-06
tp345
aa(lp346
(g343
F-6.859896375463171e-06
tp347
ag2
(g6
S'\x8d\xcc\x1f@9\xc3\xa9\xbc'
p348
tp349
Rp350
aI19186967893
aF1.0
aF0.05085964961002046
ag2
(g6
S'\xf0\x13\xadx^\xa9\x0f@'
p351
tp352
Rp353
a(g2
(g6
S'\x9b\x06~\xb4`\xa9\x0f@'
p354
tp355
Rp356
g343
tp357
a(g356
F-1.0289833485791596e-05
tp358
aa(lp359
(g356
F-1.0289833485791596e-05
tp360
ag2
(g6
S'\xa2\x81y\x9d5\xc3\xa9\xbc'
p361
tp362
Rp363
aI19186967893
aF1.0
aF0.05086114555797533
ag2
(g6
S'F\xf9N\xf0b\xa9\x0f@'
p364
tp365
Rp366
a(g2
(g6
S'\xf0\xeb\x1f,e\xa9\x0f@'
p367
tp368
Rp369
g356
tp370
a(g369
F-1.3719763210909392e-05
tp371
aa(lp372
(g369
F-1.3719763210909392e-05
tp373
ag2
(g6
S'\xc34\xcc\xfa1\xc3\xa9\xbc'
p374
tp375
Rp376
aI19186967893
aF1.0
aF0.05086264131926337
ag2
(g6
S'\x9a\xde\xf0gg\xa9\x0f@'
p377
tp378
Rp379
a(g2
(g6
S'E\xd1\xc1\xa3i\xa9\x0f@'
p380
tp381
Rp382
g369
tp383
a(g382
F-1.7149685550599336e-05
tp384
aa(lp385
(g382
F-1.7149685550599336e-05
tp386
ag2
(g6
S'\xea\xe5\x17X.\xc3\xa9\xbc'
p387
tp388
Rp389
aI19186967893
aF1.0
aF0.050864137267218244
ag2
(g6
S'\xf0\xc3\x92\xdfk\xa9\x0f@'
p390
tp391
Rp392
a(g2
(g6
S'\x9a\xb6c\x1bn\xa9\x0f@'
p393
tp394
Rp395
g382
tp396
a(g395
F-2.05796005046442e-05
tp397
aa(lp398
(g395
F-2.05796005046442e-05
tp399
ag2
(g6
S'\xcck\xfb\xe3(\xc3\xa9\xbc'
p400
tp401
Rp402
aI38373935786
aF1.0
aF0.05086638137581737
ag2
(g6
S'\xef\x9b\x05\x93r\xa9\x0f@'
p403
tp404
Rp405
a(g2
(g6
S'D\x81\xa7\nw\xa9\x0f@'
p406
tp407
Rp408
g395
tp409
a(g408
F-2.743940825492981e-05
tp410
aa(lp411
(g408
F-2.743940825492981e-05
tp412
ag2
(g6
S'\x97\xc2h\x9e!\xc3\xa9\xbc'
p413
tp414
Rp415
aI38373935786
aF1.0
aF0.050869373271727115
ag2
(g6
S'\x99fI\x82{\xa9\x0f@'
p416
tp417
Rp418
a(g2
(g6
S'\xeeK\xeb\xf9\x7f\xa9\x0f@'
p419
tp420
Rp421
g408
tp422
a(g421
F-3.4299186460028466e-05
tp423
aa(lp424
(g421
F-3.4299186460028466e-05
tp425
ag2
(g6
S'\xaa\x11\xbaX\x1a\xc3\xa9\xbc'
p426
tp427
Rp428
aI38373935786
aF1.0
aF0.05087236516763685
ag2
(g6
S'C1\x8dq\x84\xa9\x0f@'
p429
tp430
Rp431
a(g2
(g6
S'\x98\x16/\xe9\x88\xa9\x0f@'
p432
tp433
Rp434
g421
tp435
a(g434
F-4.1158935118202396e-05
tp436
aa(lp437
(g434
F-4.1158935118202396e-05
tp438
ag2
(g6
S'7Y\xef\x12\x13\xc3\xa9\xbc'
p439
tp440
Rp441
aI38373935786
aF1.0
aF0.050875357156880005
ag2
(g6
S'\xed\xfb\xd0`\x8d\xa9\x0f@'
p442
tp443
Rp444
a(g2
(g6
S'B\xe1r\xd8\x91\xa9\x0f@'
p445
tp446
Rp447
g434
tp448
a(g447
F-4.801865422771388e-05
tp449
aa(lp450
(g447
F-4.801865422771388e-05
tp451
ag2
(g6
S'3\x99\x08\xcd\x0b\xc3\xa9\xbc'
p452
tp453
Rp454
aI38373935786
aF1.0
aF0.05087834886612292
ag2
(g6
S'\x97\xc6\x14P\x96\xa9\x0f@'
p455
tp456
Rp457
a(g2
(g6
S'\xec\xab\xb6\xc7\x9a\xa9\x0f@'
p458
tp459
Rp460
g447
tp461
a(g460
F-5.4878343786825185e-05
tp462
aa(lp463
(g460
F-5.4878343786825185e-05
tp464
ag2
(g6
S'\xbc\xd1\x05\x87\x04\xc3\xa9\xbc'
p465
tp466
Rp467
aI38373935786
aF1.0
aF0.050881340668699246
ag2
(g6
S'A\x91X?\x9f\xa9\x0f@'
p468
tp469
Rp470
a(g2
(g6
S'\x96v\xfa\xb6\xa3\xa9\x0f@'
p471
tp472
Rp473
g460
tp474
a(g473
F-6.17380037937986e-05
tp475
aa(lp476
(g473
F-6.17380037937986e-05
tp477
ag2
(g6
S'\xc2\x02\xe7@\xfd\xc2\xa9\xbc'
p478
tp479
Rp480
aI38373935786
aF1.0
aF0.05088433256460899
ag2
(g6
S'\xeb[\x9c.\xa8\xa9\x0f@'
p481
tp482
Rp483
a(g2
(g6
S'@A>\xa6\xac\xa9\x0f@'
p484
tp485
Rp486
g473
tp487
a(g486
F-6.859763424689642e-05
tp488
aa(lp489
(g486
F-6.859763424689642e-05
tp490
ag2
(g6
S'\x87,\xac\xfa\xf5\xc2\xa9\xbc'
p491
tp492
Rp493
aI38373935786
aF1.0
aF0.0508873242738519
ag2
(g6
S'\x95&\xe0\x1d\xb1\xa9\x0f@'
p494
tp495
Rp496
a(g2
(g6
S'\xea\x0b\x82\x95\xb5\xa9\x0f@'
p497
tp498
Rp499
g486
tp500
a(g499
F-7.545723514438098e-05
tp501
aa(lp502
(g499
F-7.545723514438098e-05
tp503
ag2
(g6
S'\xf5NU\xb4\xee\xc2\xa9\xbc'
p504
tp505
Rp506
aI38373935786
aF1.0
aF0.050890315796427985
ag2
(g6
S'?\xf1#\r\xba\xa9\x0f@'
p507
tp508
Rp509
a(g2
(g6
S'\x94\xd6\xc5\x84\xbe\xa9\x0f@'
p510
tp511
Rp512
g499
tp513
a(g512
F-8.23168064845146e-05
tp514
aa(lp515
(g512
F-8.23168064845146e-05
tp516
ag2
(g6
S'\x1aj\xe2m\xe7\xc2\xa9\xbc'
p517
tp518
Rp519
aI38373935786
aF1.0
aF0.0508933075056709
ag2
(g6
S'\xe9\xbbg\xfc\xc2\xa9\x0f@'
p520
tp521
Rp522
a(g2
(g6
S'>\xa1\tt\xc7\xa9\x0f@'
p523
tp524
Rp525
g512
tp526
a(g525
F-8.917634826555962e-05
tp527
aa(lp528
(g525
F-8.917634826555962e-05
tp529
ag2
(g6
S"\x12~S'\xe0\xc2\xa9\xbc"
p530
tp531
Rp532
aI38373935786
aF1.0
aF0.050896299401580636
ag2
(g6
S'\x93\x86\xab\xeb\xcb\xa9\x0f@'
p533
tp534
Rp535
a(g2
(g6
S'\xe8kMc\xd0\xa9\x0f@'
p536
tp537
Rp538
g525
tp539
a(g538
F-9.60358604857784e-05
tp540
aa(lp541
(g538
F-9.60358604857784e-05
tp542
ag2
(g6
S'\xed\x8a\xa8\xe0\xd8\xc2\xa9\xbc'
p543
tp544
Rp545
aI38373935786
aF1.0
aF0.05089929111082355
ag2
(g6
S'=Q\xef\xda\xd4\xa9\x0f@'
p546
tp547
Rp548
a(g2
(g6
S'\x926\x91R\xd9\xa9\x0f@'
p549
tp550
Rp551
g538
tp552
a(g551
F-0.00010289534314343332
tp553
aa(lp554
(g551
F-0.00010289534314343332
tp555
ag2
(g6
S'\xb3\x90\xe1\x99\xd1\xc2\xa9\xbc'
p556
tp557
Rp558
aI38373935785
aF1.0
aF0.05090228263605259
ag2
(g6
S'\xe6\x1b3\xca\xdd\xa9\x0f@'
p559
tp560
Rp561
a(g2
(g6
S';\x01\xd5A\xe2\xa9\x0f@'
p562
tp563
Rp564
g551
tp565
a(g564
F-0.000109754796236608
tp566
aa(lp567
(g564
F-0.000109754796236608
tp568
ag2
(g6
S'|\x8f\xfeR\xca\xc2\xa9\xbc'
p569
tp570
Rp571
aI38373935785
aF1.0
aF0.05090527434529567
ag2
(g6
S'\x90\xe6v\xb9\xe6\xa9\x0f@'
p572
tp573
Rp574
a(g2
(g6
S'\xe4\xcb\x181\xeb\xa9\x0f@'
p575
tp576
Rp577
g564
tp578
a(g577
F-0.00011661421976374361
tp579
aa(lp580
(g577
F-0.00011661421976374361
tp581
ag2
(g6
S'.\x87\xff\x0b\xc3\xc2\xa9\xbc'
p582
tp583
Rp584
aI38373935786
aF1.0
aF0.050908265865218634
ag2
(g6
S'9\xb1\xba\xa8\xef\xa9\x0f@'
p585
tp586
Rp587
a(g2
(g6
S'\x8e\x96\\ \xf4\xa9\x0f@'
p588
tp589
Rp590
g577
tp591
a(g590
F-0.0001234736137232813
tp592
aa(lp593
(g590
F-0.0001234736137232813
tp594
ag2
(g6
S' \xedH!\xb8\xc2\xa9\xbc'
p595
tp596
Rp597
aI76747871572
aF1.0
aF0.05091275314908276
ag2
(g6
S'8a\xa0\x0f\xfd\xa9\x0f@'
p598
tp599
Rp600
a(g2
(g6
S'\xe2+\xe4\xfe\x05\xaa\x0f@'
p601
tp602
Rp603
g590
tp604
a(g603
F-0.0001371923129320764
tp605
aa(lp606
(g603
F-0.0001371923129320764
tp607
ag2
(g6
S'\x9d\xb3\xa2\x92\xa9\xc2\xa9\xbc'
p608
tp609
Rp610
aI76747871572
aF1.0
aF0.050918736194234926
ag2
(g6
S"\x8c\xf6'\xee\x0e\xaa\x0f@"
p611
tp612
Rp613
a(g2
(g6
S'6\xc1k\xdd\x17\xaa\x0f@'
p614
tp615
Rp616
g603
tp617
a(g616
F-0.00015091089384891413
tp618
aa(lp619
(g616
F-0.00015091089384891413
tp620
ag2
(g6
S'Q_\x8c\x03\x9b\xc2\xa9\xbc'
p621
tp622
Rp623
aI76747871572
aF1.0
aF0.05092471905272027
ag2
(g6
S'\xe0\x8b\xaf\xcc \xaa\x0f@'
p624
tp625
Rp626
a(g2
(g6
S'\x8aV\xf3\xbb)\xaa\x0f@'
p627
tp628
Rp629
g616
tp630
a(g629
F-0.00016462935645989433
tp631
aa(lp632
(g629
F-0.00016462935645989433
tp633
ag2
(g6
S'\x9f\xf0\x05t\x8c\xc2\xa9\xbc'
p634
tp635
Rp636
aI76747871572
aF1.0
aF0.05093070191120561
ag2
(g6
S'4!7\xab2\xaa\x0f@'
p637
tp638
Rp639
a(g2
(g6
S'\xde\xebz\x9a;\xaa\x0f@'
p640
tp641
Rp642
g629
tp643
a(g642
F-0.000178347700751117
tp644
aa(lp645
(g642
F-0.000178347700751117
tp646
ag2
(g6
S'\th\x0f\xe4}\xc2\xa9\xbc'
p647
tp648
Rp649
aI76747871572
aF1.0
aF0.05093668467635754
ag2
(g6
S'\x88\xb6\xbe\x89D\xaa\x0f@'
p650
tp651
Rp652
a(g2
(g6
S'2\x81\x02yM\xaa\x0f@'
p653
tp654
Rp655
g642
tp656
a(g655
F-0.0001920659267086824
tp657
aa(lp658
(g655
F-0.0001920659267086824
tp659
ag2
(g6
S'\x01\xc6\xa8So\xc2\xa9\xbc'
p660
tp661
Rp662
aI76747871572
aF1.0
aF0.050942667348176054
ag2
(g6
S'\xdcKFhV\xaa\x0f@'
p663
tp664
Rp665
a(g2
(g6
S'\x86\x16\x8aW_\xaa\x0f@'
p666
tp667
Rp668
g655
tp669
a(g668
F-0.000205784034318691
tp670
aa(lp671
(g668
F-0.000205784034318691
tp672
ag2
(g6
S'\xfa\n\xd2\xc2`\xc2\xa9\xbc'
p673
tp674
Rp675
aI76747871572
aF1.0
aF0.050948649926661156
ag2
(g6
S'0\xe1\xcdFh\xaa\x0f@'
p676
tp677
Rp678
a(g2
(g6
S'\xda\xab\x116q\xaa\x0f@'
p679
tp680
Rp681
g668
tp682
a(g681
F-0.00021950202356724348
tp683
aa.