(lp0
(lp1
(cnumpy.core.multiarray
scalar
p2
(cnumpy
dtype
p3
(S'f8'
p4
I0
I1
tp5
Rp6
(I3
S'<'
p7
NNNI-1
I-1
I0
tp8
bS'-\xa0\xa2\xbeX\x02\x00\xc0'
p9
tp10
Rp11
F-0.00024414062498798105
tp12
ag2
(g6
S'\xe4(nu\x90C\x9b<'
p13
tp14
Rp15
aI31250000000
aF1.0
aF0.06142157509120609
ag2
(g6
S'\xed\x0bP\x1bU\x02\x00\xc0'
p16
tp17
Rp18
a(g2
(g6
S'\xadw\xfdwQ\x02\x00\xc0'
p19
tp20
Rp21
g11
tp22
a(g21
F-0.00024118466453164515
tp23
aa(lp24
(g21
F-0.00024118466453164515
tp25
ag2
(g6
S'\xc2\x85h\xc2\x9eC\x9b<'
p26
tp27
Rp28
aI31250000000
aF1.0
aF0.061420461576198224
ag2
(g6
S'm\xe3\xaa\xd4M\x02\x00\xc0'
p29
tp30
Rp31
a(g2
(g6
S'-OX1J\x02\x00\xc0'
p32
tp33
Rp34
g21
tp35
a(g34
F-0.00023822868041679357
tp36
aa(lp37
(g34
F-0.00023822868041679357
tp38
ag2
(g6
S';\xe5Q\x0f\xadC\x9b<'
p39
tp40
Rp41
aI31250000000
aF1.0
aF0.06141934862414031
ag2
(g6
S'\xed\xba\x05\x8eF\x02\x00\xc0'
p42
tp43
Rp44
a(g2
(g6
S'\xad&\xb3\xeaB\x02\x00\xc0'
p45
tp46
Rp47
g34
tp48
a(g47
F-0.00023527267264385519
tp49
aa(lp50
(g47
F-0.00023527267264385519
tp51
ag2
(g6
S'\tG*\\\xbbC\x9b<'
p52
tp53
Rp54
aI31250000000
aF1.0
aF0.06141823454618249
ag2
(g6
S'm\x92`G?\x02\x00\xc0'
p55
tp56
Rp57
a(g2
(g6
S'-\xfe\r\xa4;\x02\x00\xc0'
p58
tp59
Rp60
g47
tp61
a(g60
F-0.0002323166412132589
tp62
aa(lp63
(g60
F-0.0002323166412132589
tp64
ag2
(g6
S'\xb9\xab\xf1\xa8\xc9C\x9b<'
p65
tp66
Rp67
aI31250000000
aF1.0
aF0.061417121031174624
ag2
(g6
S'\xedi\xbb\x008\x02\x00\xc0'
p68
tp69
Rp70
a(g2
(g6
S'\xad\xd5h]4\x02\x00\xc0'
p71
tp72
Rp73
g60
tp74
a(g73
F-0.0002293605861254336
tp75
aa(lp76
(g73
F-0.0002293605861254336
tp77
ag2
(g6
S'\x04\x13\xa8\xf5\xd7C\x9b<'
p78
tp79
Rp80
aI31250000000
aF1.0
aF0.06141600807911671
ag2
(g6
S'mA\x16\xba0\x02\x00\xc0'
p81
tp82
Rp83
a(g2
(g6
S'-\xad\xc3\x16-\x02\x00\xc0'
p84
tp85
Rp86
g73
tp87
a(g86
F-0.00022640450738080814
tp88
aa(lp89
(g86
F-0.00022640450738080814
tp90
ag2
(g6
S'^|MB\xe6C\x9b<'
p91
tp92
Rp93
aI31250000000
aF1.0
aF0.06141489456410884
ag2
(g6
S'\xed\x18qs)\x02\x00\xc0'
p94
tp95
Rp96
a(g2
(g6
S'\xad\x84\x1e\xd0%\x02\x00\xc0'
p97
tp98
Rp99
g86
tp100
a(g99
F-0.00022344840497981146
tp101
aa(lp102
(g99
F-0.00022344840497981146
tp103
ag2
(g6
S'&\xe9\xe1\x8e\xf4C\x9b<'
p104
tp105
Rp106
aI31250000000
aF1.0
aF0.061413781049100974
ag2
(g6
S'm\xf0\xcb,"\x02\x00\xc0'
p107
tp108
Rp109
a(g2
(g6
S'-\\y\x89\x1e\x02\x00\xc0'
p110
tp111
Rp112
g99
tp113
a(g112
F-0.00022049227892287238
tp114
aa(lp115
(g112
F-0.00022049227892287238
tp116
ag2
(g6
S'\xfdWe\xdb\x02D\x9b<'
p117
tp118
Rp119
aI31250000000
aF1.0
aF0.06141266809704306
ag2
(g6
S'\xed\xc7&\xe6\x1a\x02\x00\xc0'
p120
tp121
Rp122
a(g2
(g6
S'\xad3\xd4B\x17\x02\x00\xc0'
p123
tp124
Rp125
g112
tp126
a(g125
F-0.00021753612921041981
tp127
aa(lp128
(g125
F-0.00021753612921041981
tp129
ag2
(g6
S"o\xc9\xd7'\x11D\x9b<"
p130
tp131
Rp132
aI31250000000
aF1.0
aF0.06141155401908524
ag2
(g6
S'm\x9f\x81\x9f\x13\x02\x00\xc0'
p133
tp134
Rp135
a(g2
(g6
S'-\x0b/\xfc\x0f\x02\x00\xc0'
p136
tp137
Rp138
g125
tp139
a(g138
F-0.00021457995584288266
tp140
aa(lp141
(g138
F-0.00021457995584288266
tp142
ag2
(g6
S'\t>9t\x1fD\x9b<'
p143
tp144
Rp145
aI31250000000
aF1.0
aF0.061410440504077374
ag2
(g6
S'\xedv\xdcX\x0c\x02\x00\xc0'
p146
tp147
Rp148
a(g2
(g6
S'\xad\xe2\x89\xb5\x08\x02\x00\xc0'
p149
tp150
Rp151
g138
tp152
a(g151
F-0.00021162375882068974
tp153
aa(lp154
(g151
F-0.00021162375882068974
tp155
ag2
(g6
S'\xb2\xb4\x89\xc0-D\x9b<'
p156
tp157
Rp158
aI31250000000
aF1.0
aF0.06140932755201946
ag2
(g6
S'mN7\x12\x05\x02\x00\xc0'
p159
tp160
Rp161
a(g2
(g6
S'-\xba\xe4n\x01\x02\x00\xc0'
p162
tp163
Rp164
g151
tp165
a(g164
F-0.00020866753814427
tp166
aa(lp167
(g164
F-0.00020866753814427
tp168
ag2
(g6
S'\x83.\xc9\x0c<D\x9b<'
p169
tp170
Rp171
aI31250000000
aF1.0
aF0.06140821347406163
ag2
(g6
S'\xed%\x92\xcb\xfd\x01\x00\xc0'
p172
tp173
Rp174
a(g2
(g6
S'\xad\x91?(\xfa\x01\x00\xc0'
p175
tp176
Rp177
g164
tp178
a(g177
F-0.00020571129381405227
tp179
aa(lp180
(g177
F-0.00020571129381405227
tp181
ag2
(g6
S'\xf0\xaa\xf7XJD\x9b<'
p182
tp183
Rp184
aI31250000000
aF1.0
aF0.061407100522003724
ag2
(g6
S'm\xfd\xec\x84\xf6\x01\x00\xc0'
p185
tp186
Rp187
a(g2
(g6
S'-i\x9a\xe1\xf2\x01\x00\xc0'
p188
tp189
Rp190
g177
tp191
a(g190
F-0.00020275502583046542
tp192
aa(lp193
(g190
F-0.00020275502583046542
tp194
ag2
(g6
S'\xb1)\x15\xa5XD\x9b<'
p195
tp196
Rp197
aI31250000000
aF1.0
aF0.0614059864440459
ag2
(g6
S'\xed\xd4G>\xef\x01\x00\xc0'
p198
tp199
Rp200
a(g2
(g6
S'\xad@\xf5\x9a\xeb\x01\x00\xc0'
p201
tp202
Rp203
g190
tp204
a(g203
F-0.00019979873419393837
tp205
aa(lp206
(g203
F-0.00019979873419393837
tp207
ag2
(g6
S'\x9b\xab!\xf1fD\x9b<'
p208
tp209
Rp210
aI31250000000
aF1.0
aF0.061404873491987984
ag2
(g6
S'm\xac\xa2\xf7\xe7\x01\x00\xc0'
p211
tp212
Rp213
a(g2
(g6
S'-\x18PT\xe4\x01\x00\xc0'
p214
tp215
Rp216
g203
tp217
a(g216
F-0.00019684241890489994
tp218
aa(lp219
(g216
F-0.00019684241890489994
tp220
ag2
(g6
S'\x1f0\x1d=uD\x9b<'
p221
tp222
Rp223
aI31250000000
aF1.0
aF0.06140375997698012
ag2
(g6
S'\xed\x83\xfd\xb0\xe0\x01\x00\xc0'
p224
tp225
Rp226
a(g2
(g6
S'\xad\xef\xaa\r\xdd\x01\x00\xc0'
p227
tp228
Rp229
g216
tp230
a(g229
F-0.00019388607996377903
tp231
aa(lp232
(g229
F-0.00019388607996377903
tp233
ag2
(g6
S'@\xb7\x07\x89\x83D\x9b<'
p234
tp235
Rp236
aI31250000000
aF1.0
aF0.06140264646197225
ag2
(g6
S'm[Xj\xd9\x01\x00\xc0'
p237
tp238
Rp239
a(g2
(g6
S'-\xc7\x05\xc7\xd5\x01\x00\xc0'
p240
tp241
Rp242
g229
tp243
a(g242
F-0.0001909297173710045
tp244
aa(lp245
(g242
F-0.0001909297173710045
tp246
ag2
(g6
S'\x88A\xe1\xd4\x91D\x9b<'
p247
tp248
Rp249
aI31250000000
aF1.0
aF0.061401532946964384
ag2
(g6
S'\xed2\xb3#\xd2\x01\x00\xc0'
p250
tp251
Rp252
a(g2
(g6
S'\xad\x9e`\x80\xce\x01\x00\xc0'
p253
tp254
Rp255
g242
tp256
a(g255
F-0.0001879733311270052
tp257
aa(lp258
(g255
F-0.0001879733311270052
tp259
ag2
(g6
S'%\xce\xa9 \xa0D\x9b<'
p260
tp261
Rp262
aI31250000000
aF1.0
aF0.061400419994906474
ag2
(g6
S'm\n\x0e\xdd\xca\x01\x00\xc0'
p263
tp264
Rp265
a(g2
(g6
S'-v\xbb9\xc7\x01\x00\xc0'
p266
tp267
Rp268
g255
tp269
a(g268
F-0.00018501692123221004
tp270
aa(lp271
(g268
F-0.00018501692123221004
tp272
ag2
(g6
S'\xa4]al\xaeD\x9b<'
p273
tp274
Rp275
aI31250000000
aF1.0
aF0.06139930704284856
ag2
(g6
S'\xed\xe1h\x96\xc3\x01\x00\xc0'
p276
tp277
Rp278
a(g2
(g6
S'\xadM\x16\xf3\xbf\x01\x00\xc0'
p279
tp280
Rp281
g268
tp282
a(g281
F-0.00018206048768704787
tp283
aa(lp284
(g281
F-0.00018206048768704787
tp285
ag2
(g6
S'\x05\xf0\x07\xb8\xbcD\x9b<'
p286
tp287
Rp288
aI31250000000
aF1.0
aF0.061398192964890734
ag2
(g6
S'm\xb9\xc3O\xbc\x01\x00\xc0'
p289
tp290
Rp291
a(g2
(g6
S'-%q\xac\xb8\x01\x00\xc0'
p292
tp293
Rp294
g281
tp295
a(g294
F-0.00017910403049194753
tp296
aa(lp297
(g294
F-0.00017910403049194753
tp298
ag2
(g6
S'\x01\x85\x9d\x03\xcbD\x9b<'
p299
tp300
Rp301
aI31250000000
aF1.0
aF0.06139707944988287
ag2
(g6
S'\xed\x90\x1e\t\xb5\x01\x00\xc0'
p302
tp303
Rp304
a(g2
(g6
S'\xad\xfc\xcbe\xb1\x01\x00\xc0'
p305
tp306
Rp307
g294
tp308
a(g307
F-0.00017614754964733793
tp309
aa(lp310
(g307
F-0.00017614754964733793
tp311
ag2
(g6
S'l\x1d"O\xd9D\x9b<'
p312
tp313
Rp314
aI31250000000
aF1.0
aF0.06139596649782496
ag2
(g6
S'mhy\xc2\xad\x01\x00\xc0'
p315
tp316
Rp317
a(g2
(g6
S'-\xd4&\x1f\xaa\x01\x00\xc0'
p318
tp319
Rp320
g307
tp321
a(g320
F-0.00017319104515364786
tp322
aa(lp323
(g320
F-0.00017319104515364786
tp324
ag2
(g6
S'\xe5\xb7\x95\x9a\xe7D\x9b<'
p325
tp326
Rp327
aI31250000000
aF1.0
aF0.061394852982817084
ag2
(g6
S'\xed?\xd4{\xa6\x01\x00\xc0'
p328
tp329
Rp330
a(g2
(g6
S'\xad\xab\x81\xd8\xa2\x01\x00\xc0'
p331
tp332
Rp333
g320
tp334
a(g333
F-0.00017023451701130625
tp335
aa(lp336
(g333
F-0.00017023451701130625
tp337
ag2
(g6
S'\xcdU\xf8\xe5\xf5D\x9b<'
p338
tp339
Rp340
aI31250000000
aF1.0
aF0.06139373946780922
ag2
(g6
S'm\x17/5\x9f\x01\x00\xc0'
p341
tp342
Rp343
a(g2
(g6
S'-\x83\xdc\x91\x9b\x01\x00\xc0'
p344
tp345
Rp346
g333
tp347
a(g346
F-0.00016727796522074192
tp348
aa(lp349
(g346
F-0.00016727796522074192
tp350
ag2
(g6
S'P\xf6I1\x04E\x9b<'
p351
tp352
Rp353
aI31250000000
aF1.0
aF0.06139262595280135
ag2
(g6
S'\xed\xee\x89\xee\x97\x01\x00\xc0'
p354
tp355
Rp356
a(g2
(g6
S'\xadZ7K\x94\x01\x00\xc0'
p357
tp358
Rp359
g346
tp360
a(g359
F-0.00016432138978238374
tp361
aa(lp362
(g359
F-0.00016432138978238374
tp363
ag2
(g6
S'\xb5\x99\x8a|\x12E\x9b<'
p364
tp365
Rp366
aI31250000000
aF1.0
aF0.06139151300074344
ag2
(g6
S'm\xc6\xe4\xa7\x90\x01\x00\xc0'
p367
tp368
Rp369
a(g2
(g6
S'-2\x92\x04\x8d\x01\x00\xc0'
p370
tp371
Rp372
g359
tp373
a(g372
F-0.00016136479069666057
tp374
aa(lp375
(g372
F-0.00016136479069666057
tp376
ag2
(g6
S'\xfb?\xba\xc7 E\x9b<'
p377
tp378
Rp379
aI31250000000
aF1.0
aF0.061390399485735575
ag2
(g6
S'\xed\x9d?a\x89\x01\x00\xc0'
p380
tp381
Rp382
a(g2
(g6
S'\xad\t\xed\xbd\x85\x01\x00\xc0'
p383
tp384
Rp385
g372
tp386
a(g385
F-0.00015840816796400126
tp387
aa(lp388
(g385
F-0.00015840816796400126
tp389
ag2
(g6
S'j\xe9\xd8\x12/E\x9b<'
p390
tp391
Rp392
aI31250000000
aF1.0
aF0.06138928653367766
ag2
(g6
S'mu\x9a\x1a\x82\x01\x00\xc0'
p393
tp394
Rp395
a(g2
(g6
S'-\xe1Gw~\x01\x00\xc0'
p396
tp397
Rp398
g385
tp399
a(g398
F-0.00015545152158483465
tp400
aa(lp401
(g398
F-0.00015545152158483465
tp402
ag2
(g6
S't\x95\xe6]=E\x9b<'
p403
tp404
Rp405
aI31250000000
aF1.0
aF0.06138817301866979
ag2
(g6
S'\xedL\xf5\xd3z\x01\x00\xc0'
p406
tp407
Rp408
a(g2
(g6
S'\xad\xb8\xa20w\x01\x00\xc0'
p409
tp410
Rp411
g398
tp412
a(g411
F-0.00015249485155958961
tp413
aa(lp414
(g411
F-0.00015249485155958961
tp415
ag2
(g6
S'_D\xe3\xa8KE\x9b<'
p416
tp417
Rp418
aI31250000000
aF1.0
aF0.06138705894071197
ag2
(g6
S'm$P\x8ds\x01\x00\xc0'
p419
tp420
Rp421
a(g2
(g6
S'-\x90\xfd\xe9o\x01\x00\xc0'
p422
tp423
Rp424
g411
tp425
a(g424
F-0.00014953815788869501
tp426
aa(lp427
(g2
(g6
S'-\x90\xfd\xe9o\x01\x00\xc0'
p428
tp429
Rp430
F-0.00014953815788869501
tp431
ag2
(g6
S'\xb9\xf6\xce\xf3YE\x9b<'
p432
tp433
Rp434
aI31250000000
aF1.0
aF0.06138594598865406
ag2
(g6
S'\xed\xfb\xaaFl\x01\x00\xc0'
p435
tp436
Rp437
a(g2
(g6
S'\xadgX\xa3h\x01\x00\xc0'
p438
tp439
Rp440
g430
tp441
a(g440
F-0.00014658144057257965
tp442
aa(lp443
(g440
F-0.00014658144057257965
tp444
ag2
(g6
S'i\xab\xa9>hE\x9b<'
p445
tp446
Rp447
aI31250000000
aF1.0
aF0.061384832473646185
ag2
(g6
S'm\xd3\x05\x00e\x01\x00\xc0'
p448
tp449
Rp450
a(g2
(g6
S'-?\xb3\\a\x01\x00\xc0'
p451
tp452
Rp453
g440
tp454
a(g453
F-0.00014362469961167243
tp455
aa(lp456
(g453
F-0.00014362469961167243
tp457
ag2
(g6
S'\x86cs\x89vE\x9b<'
p458
tp459
Rp460
aI31250000000
aF1.0
aF0.061383719521588276
ag2
(g6
S'\xed\xaa`\xb9]\x01\x00\xc0'
p461
tp462
Rp463
a(g2
(g6
S'\xad\x16\x0e\x16Z\x01\x00\xc0'
p464
tp465
Rp466
g453
tp467
a(g466
F-0.00014066793500640216
tp468
aa(lp469
(g466
F-0.00014066793500640216
tp470
ag2
(g6
S'\x86\x1e,\xd4\x84E\x9b<'
p471
tp472
Rp473
aI31250000000
aF1.0
aF0.06138260600658041
ag2
(g6
S'm\x82\xbbrV\x01\x00\xc0'
p474
tp475
Rp476
a(g2
(g6
S'-\xeeh\xcfR\x01\x00\xc0'
p477
tp478
Rp479
g466
tp480
a(g479
F-0.0001377111467571977
tp481
aa(lp482
(g479
F-0.0001377111467571977
tp483
ag2
(g6
S'g\xdc\xd3\x1e\x93E\x9b<'
p484
tp485
Rp486
aI31250000000
aF1.0
aF0.061381491928622585
ag2
(g6
S'\xedY\x16,O\x01\x00\xc0'
p487
tp488
Rp489
a(g2
(g6
S'\xad\xc5\xc3\x88K\x01\x00\xc0'
p490
tp491
Rp492
g479
tp493
a(g492
F-0.0001347543348644879
tp494
aa(lp495
(g492
F-0.0001347543348644879
tp496
ag2
(g6
S'p\x9dji\xa1E\x9b<'
p497
tp498
Rp499
aI31250000000
aF1.0
aF0.061380378976564676
ag2
(g6
S'm1q\xe5G\x01\x00\xc0'
p500
tp501
Rp502
a(g2
(g6
S'-\x9d\x1eBD\x01\x00\xc0'
p503
tp504
Rp505
g492
tp506
a(g505
F-0.00013179749932870158
tp507
aa(lp508
(g505
F-0.00013179749932870158
tp509
ag2
(g6
S'[a\xf0\xb3\xafE\x9b<'
p510
tp511
Rp512
aI31250000000
aF1.0
aF0.06137926602450676
ag2
(g6
S'\xed\x08\xcc\x9e@\x01\x00\xc0'
p513
tp514
Rp515
a(g2
(g6
S'\xadty\xfb<\x01\x00\xc0'
p516
tp517
Rp518
g505
tp519
a(g518
F-0.0001288406401502676
tp520
aa(lp521
(g518
F-0.0001288406401502676
tp522
ag2
(g6
S'n(e\xfe\xbdE\x9b<'
p523
tp524
Rp525
aI31250000000
aF1.0
aF0.061378151946548935
ag2
(g6
S'm\xe0&X9\x01\x00\xc0'
p526
tp527
Rp528
a(g2
(g6
S'-L\xd4\xb45\x01\x00\xc0'
p529
tp530
Rp531
g518
tp532
a(g531
F-0.00012588375732961482
tp533
aa(lp534
(g531
F-0.00012588375732961482
tp535
ag2
(g6
S'\xa9\xf2\xc8H\xccE\x9b<'
p536
tp537
Rp538
aI31250000000
aF1.0
aF0.06137703955744098
ag2
(g6
S'\xed\xb7\x81\x112\x01\x00\xc0'
p539
tp540
Rp541
a(g2
(g6
S'\xad#/n.\x01\x00\xc0'
p542
tp543
Rp544
g531
tp545
a(g544
F-0.00012292685086717203
tp546
aa(lp547
(g2
(g6
S"-\xfb\x89''\x01\x00\xc0"
p548
tp549
Rp550
F-0.00011996992076336813
tp551
ag2
(g6
S'\x7f\xbf\x1b\x93\xdaE\x9b<'
p552
tp553
Rp554
aI31250000000
aF1.0
aF0.06137592604243311
ag2
(g6
S'm\x8f\xdc\xca*\x01\x00\xc0'
p555
tp556
Rp557
a(g550
g544
tp558
a(g544
F-0.00012292685086717203
tp559
aa(lp560
(g550
F-0.00011996992076336813
tp561
ag2
(g6
S'\xe7\x8f]\xdd\xe8E\x9b<'
p562
tp563
Rp564
aI31250000000
aF1.0
aF0.06137481252742524
ag2
(g6
S'\xedf7\x84#\x01\x00\xc0'
p565
tp566
Rp567
a(g2
(g6
S'\xad\xd2\xe4\xe0\x1f\x01\x00\xc0'
p568
tp569
Rp570
g550
tp571
a(g570
F-0.0001170129670186319
tp572
aa(lp573
(g570
F-0.0001170129670186319
tp574
ag2
(g6
S"1c\x8e'\xf7E\x9b<"
p575
tp576
Rp577
aI31250000000
aF1.0
aF0.06137369929389235
ag2
(g6
S'm>\x92=\x1c\x01\x00\xc0'
p578
tp579
Rp580
a(g2
(g6
S'-\xaa?\x9a\x18\x01\x00\xc0'
p581
tp582
Rp583
g570
tp584
a(g583
F-0.00011405598963339221
tp585
aa(lp586
(g583
F-0.00011405598963339221
tp587
ag2
(g6
S'\x809\xaeq\x05F\x9b<'
p588
tp589
Rp590
aI31250000000
aF1.0
aF0.06137258606035946
ag2
(g6
S'\xed\x15\xed\xf6\x14\x01\x00\xc0'
p591
tp592
Rp593
a(g2
(g6
S'\xad\x81\x9aS\x11\x01\x00\xc0'
p594
tp595
Rp596
g583
tp597
a(g596
F-0.00011109898860807789
tp598
aa(lp599
(g596
F-0.00011109898860807789
tp600
ag2
(g6
S'=\x13\xbd\xbb\x13F\x9b<'
p601
tp602
Rp603
aI31250000000
aF1.0
aF0.061371472545351594
ag2
(g6
S'm\xedG\xb0\r\x01\x00\xc0'
p604
tp605
Rp606
a(g2
(g6
S'-Y\xf5\x0c\n\x01\x00\xc0'
p607
tp608
Rp609
g596
tp610
a(g609
F-0.00010814196394311774
tp611
aa(lp612
(g609
F-0.00010814196394311774
tp613
ag2
(g6
S'\xb9\xef\xba\x05"F\x9b<'
p614
tp615
Rp616
aI31250000000
aF1.0
aF0.0613703593118187
ag2
(g6
S'\xed\xc4\xa2i\x06\x01\x00\xc0'
p617
tp618
Rp619
a(g2
(g6
S'\xad0P\xc6\x02\x01\x00\xc0'
p620
tp621
Rp622
g609
tp623
a(g622
F-0.00010518491563894065
tp624
aa(lp625
(g622
F-0.00010518491563894065
tp626
ag2
(g6
S'\xa3\xcf\xa7O0F\x9b<'
p627
tp628
Rp629
aI31250000000
aF1.0
aF0.06136924607828581
ag2
(g6
S'm\x9c\xfd"\xff\x00\x00\xc0'
p630
tp631
Rp632
a(g2
(g6
S'-\x08\xab\x7f\xfb\x00\x00\xc0'
p633
tp634
Rp635
g622
tp636
a(g635
F-0.0001022278436959754
tp637
aa(lp638
(g635
F-0.0001022278436959754
tp639
ag2
(g6
S'\x92\xb2\x83\x99>F\x9b<'
p640
tp641
Rp642
aI31250000000
aF1.0
aF0.06136813284475292
ag2
(g6
S'\xedsX\xdc\xf7\x00\x00\xc0'
p643
tp644
Rp645
a(g2
(g6
S'\xad\xdf\x059\xf4\x00\x00\xc0'
p646
tp647
Rp648
g635
tp649
a(g648
F-9.927074811465084e-05
tp650
aa(lp651
(g648
F-9.927074811465084e-05
tp652
ag2
(g6
S'\xcd\x98N\xe3LF\x9b<'
p653
tp654
Rp655
aI31250000000
aF1.0
aF0.061367019611220035
ag2
(g6
S'mK\xb3\x95\xf0\x00\x00\xc0'
p656
tp657
Rp658
a(g2
(g6
S'-\xb7`\xf2\xec\x00\x00\xc0'
p659
tp660
Rp661
g648
tp662
a(g661
F-9.631362889539579e-05
tp663
aa(lp664
(g661
F-9.631362889539579e-05
tp665
ag2
(g6
S'\x0c\x82\x08-[F\x9b<'
p666
tp667
Rp668
aI31250000000
aF1.0
aF0.06136590637768714
ag2
(g6
S'\xed"\x0eO\xe9\x00\x00\xc0'
p669
tp670
Rp671
a(g2
(g6
S'\xad\x8e\xbb\xab\xe5\x00\x00\xc0'
p672
tp673
Rp674
g661
tp675
a(g674
F-9.335648603863908e-05
tp676
aa(lp677
(g674
F-9.335648603863908e-05
tp678
ag2
(g6
S'\x97n\xb1viF\x9b<'
p679
tp680
Rp681
aI31250000000
aF1.0
aF0.06136479286267928
ag2
(g6
S'm\xfah\x08\xe2\x00\x00\xc0'
p682
tp683
Rp684
a(g2
(g6
S'-f\x16e\xde\x00\x00\xc0'
p685
tp686
Rp687
g674
tp688
a(g687
F-9.039931954480954e-05
tp689
aa(lp690
(g687
F-9.039931954480954e-05
tp691
ag2
(g6
S'J^I\xc0wF\x9b<'
p692
tp693
Rp694
aI31250000000
aF1.0
aF0.0613636793476714
ag2
(g6
S'\xed\xd1\xc3\xc1\xda\x00\x00\xc0'
p695
tp696
Rp697
a(g2
(g6
S'\xad=q\x1e\xd7\x00\x00\xc0'
p698
tp699
Rp700
g687
tp701
a(g700
F-8.7442129414336e-05
tp702
aa(lp703
(g700
F-8.7442129414336e-05
tp704
ag2
(g6
S'HQ\xd0\t\x86F\x9b<'
p705
tp706
Rp707
aI31250000000
aF1.0
aF0.06136256611413852
ag2
(g6
S'm\xa9\x1e{\xd3\x00\x00\xc0'
p708
tp709
Rp710
a(g2
(g6
S'-\x15\xcc\xd7\xcf\x00\x00\xc0'
p711
tp712
Rp713
g700
tp714
a(g713
F-8.448491564764726e-05
tp715
aa(lp716
(g713
F-8.448491564764726e-05
tp717
ag2
(g6
S'\x91GFS\x94F\x9b<'
p718
tp719
Rp720
aI31250000000
aF1.0
aF0.06136145288060563
ag2
(g6
S'\xed\x80y4\xcc\x00\x00\xc0'
p721
tp722
Rp723
a(g2
(g6
S'\xad\xec&\x91\xc8\x00\x00\xc0'
p724
tp725
Rp726
g713
tp727
a(g726
F-8.152767824517215e-05
tp728
aa(lp729
(g726
F-8.152767824517215e-05
tp730
ag2
(g6
S'\xdf@\xab\x9c\xa2F\x9b<'
p731
tp732
Rp733
aI31250000000
aF1.0
aF0.061360339647072736
ag2
(g6
S'mX\xd4\xed\xc4\x00\x00\xc0'
p734
tp735
Rp736
a(g2
(g6
S'-\xc4\x81J\xc1\x00\x00\xc0'
p737
tp738
Rp739
g726
tp740
a(g739
F-7.85704172073395e-05
tp741
aa(lp742
(g739
F-7.85704172073395e-05
tp743
ag2
(g6
S'\xbf=\xff\xe5\xb0F\x9b<'
p744
tp745
Rp746
aI31250000000
aF1.0
aF0.061359226413539844
ag2
(g6
S'\xed//\xa7\xbd\x00\x00\xc0'
p747
tp748
Rp749
a(g2
(g6
S'\xad\x9b\xdc\x03\xba\x00\x00\xc0'
p750
tp751
Rp752
g739
tp753
a(g752
F-7.561313253457812e-05
tp754
aa(lp755
(g752
F-7.561313253457812e-05
tp756
ag2
(g6
S'\xa4=B/\xbfF\x9b<'
p757
tp758
Rp759
aI31250000000
aF1.0
aF0.06135811346148193
ag2
(g6
S'm\x07\x8a`\xb6\x00\x00\xc0'
p760
tp761
Rp762
a(g2
(g6
S'-s7\xbd\xb2\x00\x00\xc0'
p763
tp764
Rp765
g752
tp766
a(g765
F-7.265582422731682e-05
tp767
aa(lp768
(g765
F-7.265582422731682e-05
tp769
ag2
(g6
S'\xf7@tx\xcdF\x9b<'
p770
tp771
Rp772
aI31250000000
aF1.0
aF0.061356999664999086
ag2
(g6
S'\xed\xde\xe4\x19\xaf\x00\x00\xc0'
p773
tp774
Rp775
a(g2
(g6
S'\xadJ\x92v\xab\x00\x00\xc0'
p776
tp777
Rp778
g765
tp779
a(g778
F-6.969849228598443e-05
tp780
aa(lp781
(g778
F-6.969849228598443e-05
tp782
ag2
(g6
S'\x95G\x95\xc1\xdbF\x9b<'
p783
tp784
Rp785
aI31250000000
aF1.0
aF0.06135588671294117
ag2
(g6
S'm\xb6?\xd3\xa7\x00\x00\xc0'
p786
tp787
Rp788
a(g2
(g6
S'-"\xed/\xa4\x00\x00\xc0'
p789
tp790
Rp791
g778
tp792
a(g791
F-6.674113671100976e-05
tp793
aa(lp794
(g791
F-6.674113671100976e-05
tp795
ag2
(g6
S'\\Q\xa5\n\xeaF\x9b<'
p796
tp797
Rp798
aI31250000000
aF1.0
aF0.06135477347940828
ag2
(g6
S'\xed\x8d\x9a\x8c\xa0\x00\x00\xc0'
p799
tp800
Rp801
a(g2
(g6
S'\xad\xf9G\xe9\x9c\x00\x00\xc0'
p802
tp803
Rp804
g791
tp805
a(g804
F-6.378375750282163e-05
tp806
aa(lp807
(g2
(g6
S'-\xd1\xa2\xa2\x95\x00\x00\xc0'
p808
tp809
Rp810
F-6.082635466184883e-05
tp811
ag2
(g6
S'\xb4^\xa4S\xf8F\x9b<'
p812
tp813
Rp814
aI31250000000
aF1.0
aF0.06135366024587539
ag2
(g6
S'me\xf5E\x99\x00\x00\xc0'
p815
tp816
Rp817
a(g810
g804
tp818
a(g804
F-6.378375750282163e-05
tp819
aa(lp820
(g810
F-6.082635466184883e-05
tp821
ag2
(g6
S'Fo\x92\x9c\x06G\x9b<'
p822
tp823
Rp824
aI31250000000
aF1.0
aF0.0613525470123425
ag2
(g6
S'\xed<P\xff\x91\x00\x00\xc0'
p825
tp826
Rp827
a(g2
(g6
S'\xad\xa8\xfd[\x8e\x00\x00\xc0'
p828
tp829
Rp830
g810
tp831
a(g830
F-5.786892818852019e-05
tp832
aa(lp833
(g830
F-5.786892818852019e-05
tp834
ag2
(g6
S'5\x83o\xe5\x14G\x9b<'
p835
tp836
Rp837
aI31250000000
aF1.0
aF0.06135143349733463
ag2
(g6
S'm\x14\xab\xb8\x8a\x00\x00\xc0'
p838
tp839
Rp840
a(g2
(g6
S'-\x80X\x15\x87\x00\x00\xc0'
p841
tp842
Rp843
g830
tp844
a(g843
F-5.491147808326451e-05
tp845
aa(lp846
(g2
(g6
S'-\x80X\x15\x87\x00\x00\xc0'
p847
tp848
Rp849
F-5.491147808326451e-05
tp850
ag2
(g6
S'\xdf\x1fmS$G\x9b<'
p851
tp852
Rp853
aI36261169155
aF1.0
aF0.06135023118255113
ag2
(g6
S',\xbc\xad\xdc\x82\x00\x00\xc0'
p854
tp855
Rp856
a(g2
(g6
S'*\xf8\x02\xa4~\x00\x00\xc0'
p857
tp858
Rp859
g849
tp860
a(g859
F-5.147974931063729e-05
tp861
aa(lp862
(g859
F-5.147974931063729e-05
tp863
ag2
(g6
S'\xdeX\x87\xe64G\x9b<'
p864
tp865
Rp866
aI36261169154
aF1.0
aF0.06134893944796706
ag2
(g6
S')4Xkz\x00\x00\xc0'
p867
tp868
Rp869
a(g2
(g6
S'(p\xad2v\x00\x00\xc0'
p870
tp871
Rp872
g859
tp873
a(g872
F-4.804798872063242e-05
tp874
aa(lp875
(g872
F-4.804798872063242e-05
tp876
ag2
(g6
S'\xc5\xb2\x8ayEG\x9b<'
p877
tp878
Rp879
aI36261169155
aF1.0
aF0.06134764760208909
ag2
(g6
S'&\xac\x02\xfaq\x00\x00\xc0'
p880
tp881
Rp882
a(g2
(g6
S'%\xe8W\xc1m\x00\x00\xc0'
p883
tp884
Rp885
g872
tp886
a(g885
F-4.461619631373057e-05
tp887
aa(lp888
(g885
F-4.461619631373057e-05
tp889
ag2
(g6
S'\xb4-w\x0cVG\x9b<'
p890
tp891
Rp892
aI36261169155
aF1.0
aF0.06134635586412131
ag2
(g6
S'$$\xad\x88i\x00\x00\xc0'
p893
tp894
Rp895
a(g2
(g6
S'"`\x02Pe\x00\x00\xc0'
p896
tp897
Rp898
g885
tp899
a(g898
F-4.1184372090696305e-05
tp900
aa(lp901
(g898
F-4.1184372090696305e-05
tp902
ag2
(g6
S'\x87\xc9L\x9ffG\x9b<'
p903
tp904
Rp905
aI36261169155
aF1.0
aF0.061345064126153516
ag2
(g6
S' \x9cW\x17a\x00\x00\xc0'
p906
tp907
Rp908
a(g2
(g6
S'\x1f\xd8\xac\xde\\\x00\x00\xc0'
p909
tp910
Rp911
g898
tp912
a(g911
F-3.775251605219956e-05
tp913
aa(lp914
(g911
F-3.775251605219956e-05
tp915
ag2
(g6
S'M\x86\x0b2wG\x9b<'
p916
tp917
Rp918
aI36261169155
aF1.0
aF0.061343772388185724
ag2
(g6
S'\x1e\x14\x02\xa6X\x00\x00\xc0'
p919
tp920
Rp921
a(g2
(g6
S'\x1cPWmT\x00\x00\xc0'
p922
tp923
Rp924
g911
tp925
a(g924
F-3.432062819891028e-05
tp926
aa(lp927
(g924
F-3.432062819891028e-05
tp928
ag2
(g6
S'4d\xb3\xc4\x87G\x9b<'
p929
tp930
Rp931
aI36261169155
aF1.0
aF0.06134248065021794
ag2
(g6
S'\x1a\x8c\xac4P\x00\x00\xc0'
p932
tp933
Rp934
a(g2
(g6
S'\x19\xc8\x01\xfcK\x00\x00\xc0'
p935
tp936
Rp937
g924
tp938
a(g937
F-3.088870853149837e-05
tp939
aa(lp940
(g2
(g6
S'\x18\x04W\xc3G\x00\x00\xc0'
p941
tp942
Rp943
F-2.9172736767753118e-05
tp944
ag2
(g6
S'\x17\xff\xa22\x94G\x9b<'
p945
tp946
Rp947
aI18130584577
aF1.0
aF0.061341512006915094
ag2
(g6
S'\x18f\xac\xdfI\x00\x00\xc0'
p948
tp949
Rp950
a(g943
g937
tp951
a(g937
F-3.088870853149837e-05
tp952
aa(lp953
(g943
F-2.9172736767753118e-05
tp954
ag2
(g6
S'\xd6\xc6\xe5{\x9cG\x9b<'
p955
tp956
Rp957
aI18130584578
aF1.0
aF0.061340866026638144
ag2
(g6
S'\x17\xa2\x01\xa7E\x00\x00\xc0'
p958
tp959
Rp960
a(g2
(g6
S'\x16@\xac\x8aC\x00\x00\xc0'
p961
tp962
Rp963
g943
tp964
a(g963
F-2.7456757050633783e-05
tp965
aa(lp966
(g963
F-2.7456757050633783e-05
tp967
ag2
(g6
S'\xca\xd6"\xc5\xa4G\x9b<'
p968
tp969
Rp970
aI18130584578
aF1.0
aF0.06134022005312783
ag2
(g6
S'\x15\xdeVnA\x00\x00\xc0'
p971
tp972
Rp973
a(g2
(g6
S'\x14|\x01R?\x00\x00\xc0'
p974
tp975
Rp976
g963
tp977
a(g976
F-2.5740769380318757e-05
tp978
aa(lp979
(g976
F-2.5740769380318757e-05
tp980
ag2
(g6
S'\xfb.Z\x0e\xadG\x9b<'
p981
tp982
Rp983
aI18130584577
aF1.0
aF0.06133957408638393
ag2
(g6
S'\x14\x1a\xac5=\x00\x00\xc0'
p984
tp985
Rp986
a(g2
(g6
S'\x13\xb8V\x19;\x00\x00\xc0'
p987
tp988
Rp989
g976
tp990
a(g989
F-2.4024773756986427e-05
tp991
aa(lp992
(g989
F-2.4024773756986427e-05
tp993
ag2
(g6
S's\xcf\x8bW\xb5G\x9b<'
p994
tp995
Rp996
aI18130584577
aF1.0
aF0.06133892832192645
ag2
(g6
S'\x12V\x01\xfd8\x00\x00\xc0'
p997
tp998
Rp999
a(g2
(g6
S'\x12\xf4\xab\xe06\x00\x00\xc0'
p1000
tp1001
Rp1002
g989
tp1003
a(g1002
F-2.2308770180625887e-05
tp1004
aa(lp1005
(g1002
F-2.2308770180625887e-05
tp1006
ag2
(g6
S';\xb8\xb7\xa0\xbdG\x9b<'
p1007
tp1008
Rp1009
aI18130584578
aF1.0
aF0.06133828234164979
ag2
(g6
S'\x11\x92V\xc44\x00\x00\xc0'
p1010
tp1011
Rp1012
a(g2
(g6
S'\x100\x01\xa82\x00\x00\xc0'
p1013
tp1014
Rp1015
g1002
tp1016
a(g1015
F-2.0592758651226227e-05
tp1017
aa(lp1018
(g1015
F-2.0592758651226227e-05
tp1019
ag2
(g6
S'3\xe9\xdd\xe9\xc5G\x9b<'
p1020
tp1021
Rp1022
aI18130584577
aF1.0
aF0.06133763658395859
ag2
(g6
S'\x10\xce\xab\x8b0\x00\x00\xc0'
p1023
tp1024
Rp1025
a(g2
(g6
S'\x0flVo.\x00\x00\xc0'
p1026
tp1027
Rp1028
g1015
tp1029
a(g1028
F-1.8876739169060487e-05
tp1030
aa(lp1031
(g1028
F-1.8876739169060487e-05
tp1032
ag2
(g6
S'\x8bb\xfe2\xceG\x9b<'
p1033
tp1034
Rp1035
aI18130584577
aF1.0
aF0.06133699081950112
ag2
(g6
S'\x0e\n\x01S,\x00\x00\xc0'
p1036
tp1037
Rp1038
a(g2
(g6
S'\x0e\xa8\xab6*\x00\x00\xc0'
p1039
tp1040
Rp1041
g1028
tp1042
a(g1041
F-1.7160711734117753e-05
tp1043
aa(lp1044
(g1041
F-1.7160711734117753e-05
tp1045
ag2
(g6
S'\x0f$\x19|\xd6G\x9b<'
p1046
tp1047
Rp1048
aI18130584578
aF1.0
aF0.06133634504827759
ag2
(g6
S'\rFV\x1a(\x00\x00\xc0'
p1049
tp1050
Rp1051
a(g2
(g6
S'\x0c\xe4\x00\xfe%\x00\x00\xc0'
p1052
tp1053
Rp1054
g1041
tp1055
a(g1054
F-1.5444676346387123e-05
tp1056
aa(lp1057
(g2
(g6
S'\x0b V\xc5!\x00\x00\xc0'
p1058
tp1059
Rp1060
F-1.3728633006141629e-05
tp1061
ag2
(g6
S'\xed-.\xc5\xdeG\x9b<'
p1062
tp1063
Rp1064
aI18130584577
aF1.0
aF0.06133569918605972
ag2
(g6
S'\x0c\x82\xab\xe1#\x00\x00\xc0'
p1065
tp1066
Rp1067
a(g1060
g1054
tp1068
a(g1054
F-1.5444676346387123e-05
tp1069
aa(lp1070
(g1060
F-1.3728633006141629e-05
tp1071
ag2
(g6
S'\x0e\x80=\x0e\xe7G\x9b<'
p1072
tp1073
Rp1074
aI18130584577
aF1.0
aF0.06133505321254933
ag2
(g6
S'\n\xbe\x00\xa9\x1f\x00\x00\xc0'
p1075
tp1076
Rp1077
a(g2
(g6
S'\n\\\xab\x8c\x1d\x00\x00\xc0'
p1078
tp1079
Rp1080
g1060
tp1081
a(g1080
F-1.2012581713370363e-05
tp1082
aa(lp1083
(g1080
F-1.2012581713370363e-05
tp1084
ag2
(g6
S't\x1aGW\xefG\x9b<'
p1085
tp1086
Rp1087
aI18130584578
aF1.0
aF0.061334407336799554
ag2
(g6
S'\t\xfaUp\x1b\x00\x00\xc0'
p1088
tp1089
Rp1090
a(g2
(g6
S'\x08\x98\x00T\x19\x00\x00\xc0'
p1091
tp1092
Rp1093
g1080
tp1094
a(g1093
F-1.0296522468062415e-05
tp1095
aa(lp1096
(g1093
F-1.0296522468062415e-05
tp1097
ag2
(g6
S'0\xfdJ\xa0\xf7G\x9b<'
p1098
tp1099
Rp1100
aI18130584577
aF1.0
aF0.06133376157910793
ag2
(g6
S'\x086\xab7\x17\x00\x00\xc0'
p1101
tp1102
Rp1103
a(g2
(g6
S'\x07\xd4U\x1b\x15\x00\x00\xc0'
p1104
tp1105
Rp1106
g1093
tp1107
a(g1106
F-8.580455270490821e-06
tp1108
aa(lp1109
(g2
(g6
S'\x06\x10\xab\xe2\x10\x00\x00\xc0'
p1110
tp1111
Rp1112
F-6.864380120644673e-06
tp1113
ag2
(g6
S'*(I\xe9\xffG\x9b<'
p1114
tp1115
Rp1116
aI18130584577
aF1.0
aF0.06133311560559754
ag2
(g6
S'\x06r\x00\xff\x12\x00\x00\xc0'
p1117
tp1118
Rp1119
a(g1112
g1106
tp1120
a(g1106
F-8.580455270490821e-06
tp1121
aa(lp1122
(g1112
F-6.864380120644673e-06
tp1123
ag2
(g6
S'q\x9bA2\x08H\x9b<'
p1124
tp1125
Rp1126
aI18130584578
aF1.0
aF0.06133246983437444
ag2
(g6
S'\x05\xaeU\xc6\x0e\x00\x00\xc0'
p1127
tp1128
Rp1129
a(g2
(g6
S'\x04L\x00\xaa\x0c\x00\x00\xc0'
p1130
tp1131
Rp1132
g1112
tp1133
a(g1132
F-5.148297018513058e-06
tp1134
aa(lp1135
(g1132
F-5.148297018513058e-06
tp1136
ag2
(g6
S'!_\xf8h\x0eH\x9b<'
p1137
tp1138
Rp1139
aI9065292288
aF1.0
aF0.06133198526324641
ag2
(g6
S'\x04\x9b\xd5\x9b\x0b\x00\x00\xc0'
p1140
tp1141
Rp1142
a(g2
(g6
S'\x04\xea\xaa\x8d\n\x00\x00\xc0'
p1143
tp1144
Rp1145
g1132
tp1146
a(g1145
F-4.2902524854965135e-06
tp1147
aa(lp1148
(g2
(g6
S'\x03\x88Uq\x08\x00\x00\xc0'
p1149
tp1150
Rp1151
F-3.432205964369016e-06
tp1152
ag2
(g6
S'\xf6Np\x8d\x12H\x9b<'
p1153
tp1154
Rp1155
aI9065292289
aF1.0
aF0.061331662681065914
ag2
(g6
S'\x049\x80\x7f\t\x00\x00\xc0'
p1156
tp1157
Rp1158
a(g1151
g1145
tp1159
a(g1145
F-4.2902524854965135e-06
tp1160
aa(lp1161
(g1151
F-3.432205964369016e-06
tp1162
ag2
(g6
S'\xe9\xd0\xe6\xb1\x16H\x9b<'
p1163
tp1164
Rp1165
aI9065292289
aF1.0
aF0.061331339589784296
ag2
(g6
S'\x02\xd7*c\x07\x00\x00\xc0'
p1166
tp1167
Rp1168
a(g2
(g6
S'\x02&\x00U\x06\x00\x00\xc0'
p1169
tp1170
Rp1171
g1151
tp1172
a(g1171
F-2.574157455235683e-06
tp1173
aa(lp1174
(g2
(g6
S'\x02\xc4\xaa8\x04\x00\x00\xc0'
p1175
tp1176
Rp1177
F-1.716106958201635e-06
tp1178
ag2
(g6
S'\xea\xe4[\xd6\x1aH\x9b<'
p1179
tp1180
Rp1181
aI9065292288
aF1.0
aF0.06133101672108655
ag2
(g6
S'\x02u\xd5F\x05\x00\x00\xc0'
p1182
tp1183
Rp1184
a(g1177
g1171
tp1185
a(g1171
F-2.574157455235683e-06
tp1186
aa(lp1187
(g2
(g6
S'\x01bU\x1c\x02\x00\x00\xc0'
p1188
tp1189
Rp1190
F-8.58054473088034e-07
tp1191
ag2
(g6
S'\x04\x8b\xcf\xfa\x1eH\x9b<'
p1192
tp1193
Rp1194
aI9065292289
aF1.0
aF0.06133069372080044
ag2
(g6
S'\x02\x13\x80*\x03\x00\x00\xc0'
p1195
tp1196
Rp1197
a(g1190
g1177
tp1198
a(g1177
F-1.716106958201635e-06
tp1199
aa(lp1200
(g2
(g6
S'\x00\xb1*\x0e\x01\x00\x00\xc0'
p1201
tp1202
Rp1203
F-4.2902748499284057e-07
tp1204
ag2
(g6
S'\xe3b%\x16"H\x9b<'
p1205
tp1206
Rp1207
aI4532646145
aF1.0
aF0.061330451623992935
ag2
(g6
S'\x80\t@\x95\x01\x00\x00\xc0'
p1208
tp1209
Rp1210
a(g1203
g1190
tp1211
a(g1190
F-8.58054473088034e-07
tp1212
aa(lp1213
(g2
(g6
S'\x80X\x15\x87\x00\x00\x00\xc0'
p1214
tp1215
Rp1216
F-2.14513804620376e-07
tp1217
ag2
(g6
S'\xc5\xfe\xcf\xa3#H\x9b<'
p1218
tp1219
Rp1220
aI2266323072
aF1.0
aF0.061330330609416214
ag2
(g6
S'\xc0\x04\xa0\xca\x00\x00\x00\xc0'
p1221
tp1222
Rp1223
a(g1216
g1203
tp1224
a(g1203
F-4.2902748499284057e-07
tp1225
aa(lp1226
(g2
(g6
S'\x00\x00\x00\x00\x00\x00\x00\xc0'
p1227
tp1228
Rp1229
F0.0
tp1230
ag2
(g6
S'4H\xec\xac$H\x9b<'
p1231
tp1232
Rp1233
aI2266323072
aF1.0
aF0.06133024970593772
ag2
(g6
S'@\xac\x8aC\x00\x00\x00\xc0'
p1234
tp1235
Rp1236
a(g1229
g1216
tp1237
a(g1216
F-2.14513804620376e-07
tp1238
aa(lp1239
(g2
(g6
S'\xff\xff\xff\xff\xff\xff\xff\xbf'
p1240
tp1241
Rp1242
F4.732640932675401e-17
tp1243
ag2
(g6
S'I\xe8\xb6\xa3%H\x8b<'
p1244
tp1245
Rp1246
aI3906250000
aF1.0
aF0.0613301745367686
ag2
(g6
S'w\xad\x95\x8b\xff\xff\xff\xbf'
p1247
tp1248
Rp1249
a(g2
(g6
S'\xefZ+\x17\xff\xff\xff\xbf'
p1250
tp1251
Rp1252
g1242
tp1253
a(g1252
F1.8486883261966316e-07
tp1254
aa(lp1255
(g1252
F1.8486883261966316e-07
tp1256
ag2
(g6
S'\xf2\xe2/\x88&H\x8b<'
p1257
tp1258
Rp1259
aI3906250000
aF1.0
aF0.06133010501244936
ag2
(g6
S'g\x08\xc1\xa2\xfe\xff\xff\xbf'
p1260
tp1261
Rp1262
a(g2
(g6
S'\xdf\xb5V.\xfe\xff\xff\xbf'
p1263
tp1264
Rp1265
g1252
tp1266
a(g1265
F3.69737757471338e-07
tp1267
aa(lp1268
(g1265
F3.69737757471338e-07
tp1269
ag2
(g6
S"\xf58\xe5\xde'H\x8b<"
p1270
tp1271
Rp1272
aI7812500000
aF1.0
aF0.061330000585233
ag2
(g6
S'\xcf\x10\x82E\xfd\xff\xff\xbf'
p1273
tp1274
Rp1275
a(g2
(g6
S'\xbfk\xad\\\xfc\xff\xff\xbf'
p1276
tp1277
Rp1278
g1265
tp1279
a(g1278
F7.39475884012283e-07
tp1280
aa(lp1281
(g1278
F7.39475884012283e-07
tp1282
ag2
(g6
S'\x18nO\x8c*H\x8b<'
p1283
tp1284
Rp1285
aI15625000000
aF1.0
aF0.06132979194190651
ag2
(g6
S'\x9f!\x04\x8b\xfa\xff\xff\xbf'
p1286
tp1287
Rp1288
a(g2
(g6
S'\x7f\xd7Z\xb9\xf8\xff\xff\xbf'
p1289
tp1290
Rp1291
g1278
tp1292
a(g1291
F1.4789532444416237e-06
tp1293
aa(lp1294
(g1291
F1.4789532444416237e-06
tp1295
ag2
(g6
S'\x1d}1\x1e.H\x8b<'
p1296
tp1297
Rp1298
aI15625000000
aF1.0
aF0.061329513563154546
ag2
(g6
S'_\x8d\xb1\xe7\xf6\xff\xff\xbf'
p1299
tp1300
Rp1301
a(g2
(g6
S'?C\x08\x16\xf5\xff\xff\xbf'
p1302
tp1303
Rp1304
g1291
tp1305
a(g1304
F2.2184320813286484e-06
tp1306
aa(lp1307
(g1304
F2.2184320813286484e-06
tp1308
ag2
(g6
S'_|\x12\xb01H\x8b<'
p1309
tp1310
Rp1311
aI15625000000
aF1.0
aF0.06132923539550881
ag2
(g6
S'\x1f\xf9^D\xf3\xff\xff\xbf'
p1312
tp1313
Rp1314
a(g2
(g6
S'\xff\xae\xb5r\xf1\xff\xff\xbf'
p1315
tp1316
Rp1317
g1304
tp1318
a(g1317
F2.9579123946666576e-06
tp1319
aa(lp1320
(g1317
F2.9579123946666576e-06
tp1321
ag2
(g6
S'\xdek\xf2A5H\x8b<'
p1322
tp1323
Rp1324
aI15625000000
aF1.0
aF0.06132895701675684
ag2
(g6
S'\xdfd\x0c\xa1\xef\xff\xff\xbf'
p1325
tp1326
Rp1327
a(g2
(g6
S'\xbf\x1ac\xcf\xed\xff\xff\xbf'
p1328
tp1329
Rp1330
g1317
tp1331
a(g1330
F3.697394184448952e-06
tp1332
aa(lp1333
(g1330
F3.697394184448952e-06
tp1334
ag2
(g6
S'\x8bK\xd1\xd38H\x8b<'
p1335
tp1336
Rp1337
aI15625000000
aF1.0
aF0.06132867849726739
ag2
(g6
S'\x9f\xd0\xb9\xfd\xeb\xff\xff\xbf'
p1338
tp1339
Rp1340
a(g2
(g6
S'\x7f\x86\x10,\xea\xff\xff\xbf'
p1341
tp1342
Rp1343
g1330
tp1344
a(g1343
F4.436877450668831e-06
tp1345
aa(lp1346
(g1343
F4.436877450668831e-06
tp1347
ag2
(g6
S'\x9a{\x9d.>H\x8b<'
p1348
tp1349
Rp1350
aI31250000000
aF1.0
aF0.06132826128098316
ag2
(g6
S'?\xf2\xbd\x88\xe6\xff\xff\xbf'
p1351
tp1352
Rp1353
a(g2
(g6
S'\xff]k\xe5\xe2\xff\xff\xbf'
p1354
tp1355
Rp1356
g1343
tp1357
a(g1356
F5.915848412394546e-06
tp1358
aa(lp1359
(g1356
F5.915848412394546e-06
tp1360
ag2
(g6
S'\\\xdcTREH\x8b<'
p1361
tp1362
Rp1363
aI31250000000
aF1.0
aF0.06132770466421671
ag2
(g6
S'\xbf\xc9\x18B\xdf\xff\xff\xbf'
p1364
tp1365
Rp1366
a(g2
(g6
S'\x7f5\xc6\x9e\xdb\xff\xff\xbf'
p1367
tp1368
Rp1369
g1356
tp1370
a(g1369
F7.3948252797902045e-06
tp1371
aa(lp1372
(g1369
F7.3948252797902045e-06
tp1373
ag2
(g6
S'\x19\xfe\x07vLH\x8b<'
p1374
tp1375
Rp1376
aI31250000000
aF1.0
aF0.061327148117819016
ag2
(g6
S'?\xa1s\xfb\xd7\xff\xff\xbf'
p1377
tp1378
Rp1379
a(g2
(g6
S'\xff\x0c!X\xd4\xff\xff\xbf'
p1380
tp1381
Rp1382
g1369
tp1383
a(g1382
F8.873808052802211e-06
tp1384
aa(lp1385
(g1382
F8.873808052802211e-06
tp1386
ag2
(g6
S'\xa9\xe0\xb6\x99SH\x8b<'
p1387
tp1388
Rp1389
aI31250000000
aF1.0
aF0.06132659150105257
ag2
(g6
S'\xbfx\xce\xb4\xd0\xff\xff\xbf'
p1390
tp1391
Rp1392
a(g2
(g6
S'\x7f\xe4{\x11\xcd\xff\xff\xbf'
p1393
tp1394
Rp1395
g1382
tp1396
a(g1395
F1.0352796731376964e-05
tp1397
aa(lp1398
(g1395
F1.0352796731376964e-05
tp1399
ag2
(g6
S'A\x84a\xbdZH\x8b<'
p1400
tp1401
Rp1402
aI31250000000
aF1.0
aF0.06132603502502361
ag2
(g6
S'?P)n\xc9\xff\xff\xbf'
p1403
tp1404
Rp1405
a(g2
(g6
S'\xff\xbb\xd6\xca\xc5\xff\xff\xbf'
p1406
tp1407
Rp1408
g1395
tp1409
a(g1408
F1.1831791315460871e-05
tp1410
aa(lp1411
(g1408
F1.1831791315460871e-05
tp1412
ag2
(g6
S'\xab\xe8\x07\xe1aH\x8b<'
p1413
tp1414
Rp1415
aI31250000000
aF1.0
aF0.06132547840825717
ag2
(g6
S"\xbf'\x84'\xc2\xff\xff\xbf"
p1416
tp1417
Rp1418
a(g2
(g6
S'\x7f\x931\x84\xbe\xff\xff\xbf'
p1419
tp1420
Rp1421
g1408
tp1422
a(g1421
F1.3310791805000332e-05
tp1423
aa(lp1424
(g1421
F1.3310791805000332e-05
tp1425
ag2
(g6
S'\x0c\x0e\xaa\x04iH\x8b<'
p1426
tp1427
Rp1428
aI31250000000
aF1.0
aF0.06132492179149072
ag2
(g6
S'?\xff\xde\xe0\xba\xff\xff\xbf'
p1429
tp1430
Rp1431
a(g2
(g6
S'\xffj\x8c=\xb7\xff\xff\xbf'
p1432
tp1433
Rp1434
g1421
tp1435
a(g1434
F1.478979819994175e-05
tp1436
aa(lp1437
(g1434
F1.478979819994175e-05
tp1438
ag2
(g6
S'P\xf4G(pH\x8b<'
p1439
tp1440
Rp1441
aI31250000000
aF1.0
aF0.061324365174724275
ag2
(g6
S'\xbf\xd69\x9a\xb3\xff\xff\xbf'
p1442
tp1443
Rp1444
a(g2
(g6
S'\x7fB\xe7\xf6\xaf\xff\xff\xbf'
p1445
tp1446
Rp1447
g1434
tp1448
a(g1447
F1.6268810500231526e-05
tp1449
aa(lp1450
(g1447
F1.6268810500231526e-05
tp1451
ag2
(g6
S'\x94\x9b\xe1KwH\x8b<'
p1452
tp1453
Rp1454
aI31250000000
aF1.0
aF0.06132380869869532
ag2
(g6
S'?\xae\x94S\xac\xff\xff\xbf'
p1455
tp1456
Rp1457
a(g2
(g6
S'\xff\x19B\xb0\xa8\xff\xff\xbf'
p1458
tp1459
Rp1460
g1447
tp1461
a(g1460
F1.7747828705816068e-05
tp1462
aa(lp1463
(g1460
F1.7747828705816068e-05
tp1464
ag2
(g6
S'\xbc\x03wo~H\x8b<'
p1465
tp1466
Rp1467
aI31250000000
aF1.0
aF0.061323251941191384
ag2
(g6
S'\xbf\x85\xef\x0c\xa5\xff\xff\xbf'
p1468
tp1469
Rp1470
a(g2
(g6
S'\x7f\xf1\x9ci\xa1\xff\xff\xbf'
p1471
tp1472
Rp1473
g1460
tp1474
a(g1473
F1.9226852816641777e-05
tp1475
aa(lp1476
(g1473
F1.9226852816641777e-05
tp1477
ag2
(g6
S'\xbf,\x08\x93\x85H\x8b<'
p1478
tp1479
Rp1480
aI31250000000
aF1.0
aF0.0613226957466374
ag2
(g6
S'?]J\xc6\x9d\xff\xff\xbf'
p1481
tp1482
Rp1483
a(g2
(g6
S'\xff\xc8\xf7"\x9a\xff\xff\xbf'
p1484
tp1485
Rp1486
g1473
tp1487
a(g1486
F2.0705882832655053e-05
tp1488
aa(lp1489
(g1486
F2.0705882832655053e-05
tp1490
ag2
(g6
S'\xc2\x16\x95\xb6\x8cH\x8b<'
p1491
tp1492
Rp1493
aI31250000000
aF1.0
aF0.06132213898913347
ag2
(g6
S'\xbf4\xa5\x7f\x96\xff\xff\xbf'
p1494
tp1495
Rp1496
a(g2
(g6
S'\x7f\xa0R\xdc\x92\xff\xff\xbf'
p1497
tp1498
Rp1499
g1486
tp1500
a(g1499
F2.2184918753802302e-05
tp1501
aa(lp1502
(g1499
F2.2184918753802302e-05
tp1503
ag2
(g6
S'\xb1\xc1\x1d\xda\x93H\x8b<'
p1504
tp1505
Rp1506
aI31250000000
aF1.0
aF0.061321582231629534
ag2
(g6
S'?\x0c\x009\x8f\xff\xff\xbf'
p1507
tp1508
Rp1509
a(g2
(g6
S'\xffw\xad\x95\x8b\xff\xff\xbf'
p1510
tp1511
Rp1512
g1499
tp1513
a(g1512
F2.3663960580029927e-05
tp1514
aa(lp1515
(g1512
F2.3663960580029927e-05
tp1516
ag2
(g6
S'\x8e-\xa2\xfd\x9aH\x8b<'
p1517
tp1518
Rp1519
aI31250000000
aF1.0
aF0.06132102575560058
ag2
(g6
S'\xbf\xe3Z\xf2\x87\xff\xff\xbf'
p1520
tp1521
Rp1522
a(g2
(g6
S'\x7fO\x08O\x84\xff\xff\xbf'
p1523
tp1524
Rp1525
g1512
tp1526
a(g1525
F2.5143008311284332e-05
tp1527
aa(lp1528
(g1525
F2.5143008311284332e-05
tp1529
ag2
(g6
S'XZ"!\xa2H\x8b<'
p1530
tp1531
Rp1532
aI31250000000
aF1.0
aF0.06132046899809664
ag2
(g6
S'?\xbb\xb5\xab\x80\xff\xff\xbf'
p1533
tp1534
Rp1535
a(g2
(g6
S'\xff&c\x08}\xff\xff\xbf'
p1536
tp1537
Rp1538
g1525
tp1539
a(g1538
F2.662206194751192e-05
tp1540
aa(lp1541
(g1538
F2.662206194751192e-05
tp1542
ag2
(g6
S'\x0fH\x9eD\xa9H\x8b<'
p1543
tp1544
Rp1545
aI31250000000
aF1.0
aF0.06131991224059271
ag2
(g6
S'\xbf\x92\x10ey\xff\xff\xbf'
p1546
tp1547
Rp1548
a(g2
(g6
S'\x7f\xfe\xbd\xc1u\xff\xff\xbf'
p1549
tp1550
Rp1551
g1538
tp1552
a(g1551
F2.8101121488659093e-05
tp1553
aa(lp1554
(g1551
F2.8101121488659093e-05
tp1555
ag2
(g6
S'\xc5\xf6\x15h\xb0H\x8b<'
p1556
tp1557
Rp1558
aI31250000000
aF1.0
aF0.061319356046038734
ag2
(g6
S'?jk\x1er\xff\xff\xbf'
p1559
tp1560
Rp1561
a(g2
(g6
S'\xff\xd5\x18{n\xff\xff\xbf'
p1562
tp1563
Rp1564
g1551
tp1565
a(g1564
F2.9580186934672258e-05
tp1566
aa(lp1567
(g1564
F2.9580186934672258e-05
tp1568
ag2
(g6
S'Wf\x89\x8b\xb7H\x8b<'
p1569
tp1570
Rp1571
aI31250000000
aF1.0
aF0.0613187992885348
ag2
(g6
S'\xbfA\xc6\xd7j\xff\xff\xbf'
p1572
tp1573
Rp1574
a(g2
(g6
S'\x7f\xads4g\xff\xff\xbf'
p1575
tp1576
Rp1577
g1564
tp1578
a(g1577
F3.1059258285497816e-05
tp1579
aa(lp1580
(g1577
F3.1059258285497816e-05
tp1581
ag2
(g6
S'\xd6\x96\xf8\xae\xbeH\x8b<'
p1582
tp1583
Rp1584
aI31250000000
aF1.0
aF0.06131824281250584
ag2
(g6
S'?\x19!\x91c\xff\xff\xbf'
p1585
tp1586
Rp1587
a(g2
(g6
S'\xff\x84\xce\xed_\xff\xff\xbf'
p1588
tp1589
Rp1590
g1577
tp1591
a(g1590
F3.253833554108217e-05
tp1592
aa(lp1593
(g1590
F3.253833554108217e-05
tp1594
ag2
(g6
S'\x9b\xe1\x16d\xc9H\x8b<'
p1595
tp1596
Rp1597
aI62500000000
aF1.0
aF0.06131740795772492
ag2
(g6
S'\x7f\\)\xa7X\xff\xff\xbf'
p1598
tp1599
Rp1600
a(g2
(g6
S'\xff3\x84`Q\xff\xff\xbf'
p1601
tp1602
Rp1603
g1590
tp1604
a(g1603
F3.549650776631289e-05
tp1605
aa(lp1606
(g1603
F3.549650776631289e-05
tp1607
ag2
(g6
S'\\\xc8\xdb\xaa\xd7H\x8b<'
p1608
tp1609
Rp1610
aI62500000000
aF1.0
aF0.061316294724192026
ag2
(g6
S'\x7f\x0b\xdf\x19J\xff\xff\xbf'
p1611
tp1612
Rp1613
a(g2
(g6
S'\xff\xe29\xd3B\xff\xff\xbf'
p1614
tp1615
Rp1616
g1603
tp1617
a(g1616
F3.845470360993565e-05
tp1618
aa(lp1619
(g1616
F3.845470360993565e-05
tp1620
ag2
(g6
S'\xe5\xb2\x8f\xf1\xe5H\x8b<'
p1621
tp1622
Rp1623
aI62500000000
aF1.0
aF0.06131518177213411
ag2
(g6
S'\x7f\xba\x94\x8c;\xff\xff\xbf'
p1624
tp1625
Rp1626
a(g2
(g6
S'\xff\x91\xefE4\xff\xff\xbf'
p1627
tp1628
Rp1629
g1616
tp1630
a(g1629
F4.141292307152168e-05
tp1631
aa(lp1632
(g1629
F4.141292307152168e-05
tp1633
ag2
(g6
S'3\xa128\xf4H\x8b<'
p1634
tp1635
Rp1636
aI62500000000
aF1.0
aF0.061314068538601225
ag2
(g6
S'\x7fiJ\xff,\xff\xff\xbf'
p1637
tp1638
Rp1639
a(g2
(g6
S'\xff@\xa5\xb8%\xff\xff\xbf'
p1640
tp1641
Rp1642
g1629
tp1643
a(g1642
F4.4371166150642214e-05
tp1644
aa(lp1645
(g1642
F4.4371166150642214e-05
tp1646
ag2
(g6
S'k\x93\xc4~\x02I\x8b<'
p1647
tp1648
Rp1649
aI62500000000
aF1.0
aF0.06131295544580582
ag2
(g6
S'\x7f\x18\x00r\x1e\xff\xff\xbf'
p1650
tp1651
Rp1652
a(g2
(g6
S'\xff\xefZ+\x17\xff\xff\xbf'
p1653
tp1654
Rp1655
g1642
tp1656
a(g1655
F4.7329432846868496e-05
tp1657
aa(lp1658
(g2
(g6
S'\xff\xefZ+\x17\xff\xff\xbf'
p1659
tp1660
Rp1661
F4.7329432846868496e-05
tp1662
ag2
(g6
S'X\x89E\xc5\x10I\x8b<'
p1663
tp1664
Rp1665
aI62500000000
aF1.0
aF0.06131184235301042
ag2
(g6
S'\x7f\xc7\xb5\xe4\x0f\xff\xff\xbf'
p1666
tp1667
Rp1668
a(g2
(g6
S'\xff\x9e\x10\x9e\x08\xff\xff\xbf'
p1669
tp1670
Rp1671
g1661
tp1672
a(g1671
F5.028772315977175e-05
tp1673
aa(lp1674
(g1671
F5.028772315977175e-05
tp1675
ag2
(g6
S'/\x83\xb5\x0b\x1fI\x8b<'
p1676
tp1677
Rp1678
aI62500000000
aF1.0
aF0.061310729119477526
ag2
(g6
S'\x7fvkW\x01\xff\xff\xbf'
p1679
tp1680
Rp1681
a(g2
(g6
S'\xffM\xc6\x10\xfa\xfe\xff\xbf'
p1682
tp1683
Rp1684
g1671
tp1685
a(g1684
F5.3246037088923226e-05
tp1686
aa(lp1687
(g1684
F5.3246037088923226e-05
tp1688
ag2
(g6
S'\xef\x80\x14R-I\x8b<'
p1689
tp1690
Rp1691
aI62500000000
aF1.0
aF0.061309615885944635
ag2
(g6
S'\x7f%!\xca\xf2\xfe\xff\xbf'
p1692
tp1693
Rp1694
a(g2
(g6
S'\xff\xfc{\x83\xeb\xfe\xff\xbf'
p1695
tp1696
Rp1697
g1684
tp1698
a(g1697
F5.6204374633894164e-05
tp1699
aa(lp1700
(g1697
F5.6204374633894164e-05
tp1701
ag2
(g6
S'v\x82b\x98;I\x8b<'
p1702
tp1703
Rp1704
aI62500000000
aF1.0
aF0.061308502933886726
ag2
(g6
S'\x7f\xd4\xd6<\xe4\xfe\xff\xbf'
p1705
tp1706
Rp1707
a(g2
(g6
S'\xff\xab1\xf6\xdc\xfe\xff\xbf'
p1708
tp1709
Rp1710
g1697
tp1711
a(g1710
F5.91627357942558e-05
tp1712
aa(lp1713
(g1710
F5.91627357942558e-05
tp1714
ag2
(g6
S'\xf8\x87\x9f\xdeII\x8b<'
p1715
tp1716
Rp1717
aI62500000000
aF1.0
aF0.061307389700353834
ag2
(g6
S'\x7f\x83\x8c\xaf\xd5\xfe\xff\xbf'
p1718
tp1719
Rp1720
a(g2
(g6
S'\xffZ\xe7h\xce\xfe\xff\xbf'
p1721
tp1722
Rp1723
g1710
tp1724
a(g1723
F6.212112056957938e-05
tp1725
aa(lp1726
(g1723
F6.212112056957938e-05
tp1727
ag2
(g6
S'/\x91\xcb$XI\x8b<'
p1728
tp1729
Rp1730
aI62500000000
aF1.0
aF0.06130627674829592
ag2
(g6
S'\x7f2B"\xc7\xfe\xff\xbf'
p1731
tp1732
Rp1733
a(g2
(g6
S'\xff\t\x9d\xdb\xbf\xfe\xff\xbf'
p1734
tp1735
Rp1736
g1723
tp1737
a(g1736
F6.507952895943614e-05
tp1738
aa(lp1739
(g1736
F6.507952895943614e-05
tp1740
ag2
(g6
S'\x95\x9e\xe6jfI\x8b<'
p1741
tp1742
Rp1743
aI62500000000
aF1.0
aF0.06130516351476303
ag2
(g6
S'\x7f\xe1\xf7\x94\xb8\xfe\xff\xbf'
p1744
tp1745
Rp1746
a(g2
(g6
S'\xff\xb8RN\xb1\xfe\xff\xbf'
p1747
tp1748
Rp1749
g1736
tp1750
a(g1749
F6.803796096339734e-05
tp1751
aa(lp1752
(g1749
F6.803796096339734e-05
tp1753
ag2
(g6
S'\xb1\xaf\xf0\xb0tI\x8b<'
p1754
tp1755
Rp1756
aI62500000000
aF1.0
aF0.061304050281230135
ag2
(g6
S'\x7f\x90\xad\x07\xaa\xfe\xff\xbf'
p1757
tp1758
Rp1759
a(g2
(g6
S'\xffg\x08\xc1\xa2\xfe\xff\xbf'
p1760
tp1761
Rp1762
g1749
tp1763
a(g1762
F7.099641658103422e-05
tp1764
aa(lp1765
(g1762
F7.099641658103422e-05
tp1766
ag2
(g6
S'\xc8\xc4\xe9\xf6\x82I\x8b<'
p1767
tp1768
Rp1769
aI62500000000
aF1.0
aF0.061302937329172226
ag2
(g6
S'\x7f?cz\x9b\xfe\xff\xbf'
p1770
tp1771
Rp1772
a(g2
(g6
S'\xff\x16\xbe3\x94\xfe\xff\xbf'
p1773
tp1774
Rp1775
g1762
tp1776
a(g1775
F7.395489581191802e-05
tp1777
aa(lp1778
(g1775
F7.395489581191802e-05
tp1779
ag2
(g6
S'\xda\xdd\xd1<\x91I\x8b<'
p1780
tp1781
Rp1782
aI62500000000
aF1.0
aF0.061301824095639335
ag2
(g6
S'\x7f\xee\x18\xed\x8c\xfe\xff\xbf'
p1783
tp1784
Rp1785
a(g2
(g6
S'\xff\xc5s\xa6\x85\xfe\xff\xbf'
p1786
tp1787
Rp1788
g1775
tp1789
a(g1788
F7.691339865561999e-05
tp1790
aa(lp1791
(g1788
F7.691339865561999e-05
tp1792
ag2
(g6
S'\xe7\xfa\xa8\x82\x9fI\x8b<'
p1793
tp1794
Rp1795
aI62500000000
aF1.0
aF0.06130071114358142
ag2
(g6
S'\x7f\x9d\xce_~\xfe\xff\xbf'
p1796
tp1797
Rp1798
a(g2
(g6
S'\xfft)\x19w\xfe\xff\xbf'
p1799
tp1800
Rp1801
g1788
tp1802
a(g1801
F7.987192511171139e-05
tp1803
aa(lp1804
(g1801
F7.987192511171139e-05
tp1805
ag2
(g6
S'\xef\x1bo\xc8\xadI\x8b<'
p1806
tp1807
Rp1808
aI62500000000
aF1.0
aF0.06129959791004853
ag2
(g6
S'\x7fL\x84\xd2o\xfe\xff\xbf'
p1809
tp1810
Rp1811
a(g2
(g6
S'\xff#\xdf\x8bh\xfe\xff\xbf'
p1812
tp1813
Rp1814
g1801
tp1815
a(g1814
F8.283047517976348e-05
tp1816
aa(lp1817
(g1814
F8.283047517976348e-05
tp1818
ag2
(g6
S'\xf3@$\x0e\xbcI\x8b<'
p1819
tp1820
Rp1821
aI62500000000
aF1.0
aF0.06129848495799061
ag2
(g6
S'\x7f\xfb9Ea\xfe\xff\xbf'
p1822
tp1823
Rp1824
a(g2
(g6
S'\xff\xd2\x94\xfeY\xfe\xff\xbf'
p1825
tp1826
Rp1827
g1814
tp1828
a(g1827
F8.578904885934749e-05
tp1829
aa(lp1830
(g1827
F8.578904885934749e-05
tp1831
ag2
(g6
S'\xf1i\xc8S\xcaI\x8b<'
p1832
tp1833
Rp1834
aI62500000000
aF1.0
aF0.061297371724457726
ag2
(g6
S'\x7f\xaa\xef\xb7R\xfe\xff\xbf'
p1835
tp1836
Rp1837
a(g2
(g6
S'\xff\x81JqK\xfe\xff\xbf'
p1838
tp1839
Rp1840
g1827
tp1841
a(g1840
F8.874764615003469e-05
tp1842
aa(lp1843
(g1840
F8.874764615003469e-05
tp1844
ag2
(g6
S'\xeb\x96[\x99\xd8I\x8b<'
p1845
tp1846
Rp1847
aI62500000000
aF1.0
aF0.06129625877239981
ag2
(g6
S'\x7fY\xa5*D\xfe\xff\xbf'
p1848
tp1849
Rp1850
a(g2
(g6
S'\xff0\x00\xe4<\xfe\xff\xbf'
p1851
tp1852
Rp1853
g1840
tp1854
a(g1853
F9.170626705139633e-05
tp1855
aa(lp1856
(g1853
F9.170626705139633e-05
tp1857
ag2
(g6
S'\x04\xc8\xdd\xde\xe6I\x8b<'
p1858
tp1859
Rp1860
aI62500000000
aF1.0
aF0.061295145820341894
ag2
(g6
S'\x7f\x08[\x9d5\xfe\xff\xbf'
p1861
tp1862
Rp1863
a(g2
(g6
S'\xff\xdf\xb5V.\xfe\xff\xbf'
p1864
tp1865
Rp1866
g1853
tp1867
a(g1866
F9.466491156300367e-05
tp1868
aa(lp1869
(g2
(g6
S'\xff\xdf\xb5V.\xfe\xff\xbf'
p1870
tp1871
Rp1872
F9.466491156300367e-05
tp1873
ag2
(g6
S'\x17\xfdN$\xf5I\x8b<'
p1874
tp1875
Rp1876
aI62500000000
aF1.0
aF0.061294032868283985
ag2
(g6
S"\x7f\xb7\x10\x10'\xfe\xff\xbf"
p1877
tp1878
Rp1879
a(g2
(g6
S'\xff\x8ek\xc9\x1f\xfe\xff\xbf'
p1880
tp1881
Rp1882
g1872
tp1883
a(g1882
F9.762357968442797e-05
tp1884
aa(lp1885
(g1882
F9.762357968442797e-05
tp1886
ag2
(g6
S'&6\xafi\x03J\x8b<'
p1887
tp1888
Rp1889
aI62500000000
aF1.0
aF0.06129291963475109
ag2
(g6
S'\x7ff\xc6\x82\x18\xfe\xff\xbf'
p1890
tp1891
Rp1892
a(g2
(g6
S'\xff=!<\x11\xfe\xff\xbf'
p1893
tp1894
Rp1895
g1882
tp1896
a(g1895
F0.00010058227141524047
tp1897
aa(lp1898
(g1895
F0.00010058227141524047
tp1899
ag2
(g6
S'ws\xfe\xae\x11J\x8b<'
p1900
tp1901
Rp1902
aI62500000000
aF1.0
aF0.0612918064012182
ag2
(g6
S'\x7f\x15|\xf5\t\xfe\xff\xbf'
p1903
tp1904
Rp1905
a(g2
(g6
S'\xff\xec\xd6\xae\x02\xfe\xff\xbf'
p1906
tp1907
Rp1908
g1895
tp1909
a(g1908
F0.00010354098675501246
tp1910
aa(lp1911
(g1908
F0.00010354098675501246
tp1912
ag2
(g6
S'\xc2\xb4<\xf4\x1fJ\x8b<'
p1913
tp1914
Rp1915
aI62500000000
aF1.0
aF0.061290693449160286
ag2
(g6
S'\x7f\xc41h\xfb\xfd\xff\xbf'
p1916
tp1917
Rp1918
a(g2
(g6
S'\xff\x9b\x8c!\xf4\xfd\xff\xbf'
p1919
tp1920
Rp1921
g1908
tp1922
a(g1921
F0.00010649972570331519
tp1923
aa(lp1924
(g1921
F0.00010649972570331519
tp1925
ag2
(g6
S',\xfai9.J\x8b<'
p1926
tp1927
Rp1928
aI62500000000
aF1.0
aF0.061289580215627394
ag2
(g6
S'\x7fs\xe7\xda\xec\xfd\xff\xbf'
p1929
tp1930
Rp1931
a(g2
(g6
S'\xffJB\x94\xe5\xfd\xff\xbf'
p1932
tp1933
Rp1934
g1921
tp1935
a(g1934
F0.00010945848825971992
tp1936
aa(lp1937
(g1934
F0.00010945848825971992
tp1938
ag2
(g6
S'\x91C\x86~<J\x8b<'
p1939
tp1940
Rp1941
aI62500000000
aF1.0
aF0.061288467263569485
ag2
(g6
S'\x7f"\x9dM\xde\xfd\xff\xbf'
p1942
tp1943
Rp1944
a(g2
(g6
S'\xff\xf9\xf7\x06\xd7\xfd\xff\xbf'
p1945
tp1946
Rp1947
g1934
tp1948
a(g1947
F0.00011241727442379791
tp1949
aa(lp1950
(g1947
F0.00011241727442379791
tp1951
ag2
(g6
S'[\x91\x91\xc3JJ\x8b<'
p1952
tp1953
Rp1954
aI62500000000
aF1.0
aF0.06128735431151157
ag2
(g6
S'\x7f\xd1R\xc0\xcf\xfd\xff\xbf'
p1955
tp1956
Rp1957
a(g2
(g6
S'\xff\xa8\xady\xc8\xfd\xff\xbf'
p1958
tp1959
Rp1960
g1947
tp1961
a(g1960
F0.00011537608419512045
tp1962
aa(lp1963
(g1960
F0.00011537608419512045
tp1964
ag2
(g6
S'\xfd\xe2\x8b\x08YJ\x8b<'
p1965
tp1966
Rp1967
aI62500000000
aF1.0
aF0.06128624107797868
ag2
(g6
S'\x7f\x80\x083\xc1\xfd\xff\xbf'
p1968
tp1969
Rp1970
a(g2
(g6
S'\xffWc\xec\xb9\xfd\xff\xbf'
p1971
tp1972
Rp1973
g1960
tp1974
a(g1973
F0.00011833491757325878
tp1975
aa(lp1976
(g1973
F0.00011833491757325878
tp1977
ag2
(g6
S'\x049uMgJ\x8b<'
p1978
tp1979
Rp1980
aI62500000000
aF1.0
aF0.061285128407395736
ag2
(g6
S'\x7f/\xbe\xa5\xb2\xfd\xff\xbf'
p1981
tp1982
Rp1983
a(g2
(g6
S'\xff\x06\x19_\xab\xfd\xff\xbf'
p1984
tp1985
Rp1986
g1973
tp1987
a(g1986
F0.0001212937745577842
tp1988
aa(lp1989
(g1986
F0.0001212937745577842
tp1990
ag2
(g6
S')\x93M\x92uJ\x8b<'
p1991
tp1992
Rp1993
aI62500000000
aF1.0
aF0.06128401489238787
ag2
(g6
S'\x7f\xdes\x18\xa4\xfd\xff\xbf'
p1994
tp1995
Rp1996
a(g2
(g6
S'\xff\xb5\xce\xd1\x9c\xfd\xff\xbf'
p1997
tp1998
Rp1999
g1986
tp2000
a(g1999
F0.00012425265514826795
tp2001
aa(lp2002
(g1999
F0.00012425265514826795
tp2003
ag2
(g6
S'&\xf1\x14\xd7\x83J\x8b<'
p2004
tp2005
Rp2006
aI62500000000
aF1.0
aF0.06128290194032996
ag2
(g6
S'\x7f\x8d)\x8b\x95\xfd\xff\xbf'
p2007
tp2008
Rp2009
a(g2
(g6
S'\xffd\x84D\x8e\xfd\xff\xbf'
p2010
tp2011
Rp2012
g1999
tp2013
a(g2012
F0.0001272115593442813
tp2014
aa(lp2015
(g2012
F0.0001272115593442813
tp2016
ag2
(g6
S'\xf1S\xcb\x1b\x92J\x8b<'
p2017
tp2018
Rp2019
aI62500000000
aF1.0
aF0.061281788988272044
ag2
(g6
S'\x7f<\xdf\xfd\x86\xfd\xff\xbf'
p2020
tp2021
Rp2022
a(g2
(g6
S'\xff\x13:\xb7\x7f\xfd\xff\xbf'
p2023
tp2024
Rp2025
g2012
tp2026
a(g2025
F0.00013017048714539556
tp2027
aa(lp2028
(g2025
F0.00013017048714539556
tp2029
ag2
(g6
S'r\xbap`\xa0J\x8b<'
p2030
tp2031
Rp2032
aI62500000000
aF1.0
aF0.06128067603621413
ag2
(g6
S'\x7f\xeb\x94px\xfd\xff\xbf'
p2033
tp2034
Rp2035
a(g2
(g6
S'\xff\xc2\xef)q\xfd\xff\xbf'
p2036
tp2037
Rp2038
g2025
tp2039
a(g2038
F0.00013312943855118197
tp2040
aa(lp2041
(g2038
F0.00013312943855118197
tp2042
ag2
(g6
S'3%\x05\xa5\xaeJ\x8b<'
p2043
tp2044
Rp2045
aI62500000000
aF1.0
aF0.06127956252120626
ag2
(g6
S'\x7f\x9aJ\xe3i\xfd\xff\xbf'
p2046
tp2047
Rp2048
a(g2
(g6
S'\xffq\xa5\x9cb\xfd\xff\xbf'
p2049
tp2050
Rp2051
g2038
tp2052
a(g2051
F0.0001360884135612118
tp2053
aa(lp2054
(g2051
F0.0001360884135612118
tp2055
ag2
(g6
S'}\x94\x88\xe9\xbcJ\x8b<'
p2056
tp2057
Rp2058
aI62500000000
aF1.0
aF0.0612784501320983
ag2
(g6
S'\x7fI\x00V[\xfd\xff\xbf'
p2059
tp2060
Rp2061
a(g2
(g6
S'\xff [\x0fT\xfd\xff\xbf'
p2062
tp2063
Rp2064
g2051
tp2065
a(g2064
F0.00013904741217505637
tp2066
aa(lp2067
(g2064
F0.00013904741217505637
tp2068
ag2
(g6
S'\xc2\x07\xfb-\xcbJ\x8b<'
p2069
tp2070
Rp2071
aI62500000000
aF1.0
aF0.06127733718004039
ag2
(g6
S'\x7f\xf8\xb5\xc8L\xfd\xff\xbf'
p2072
tp2073
Rp2074
a(g2
(g6
S'\xff\xcf\x10\x82E\xfd\xff\xbf'
p2075
tp2076
Rp2077
g2064
tp2078
a(g2077
F0.00014200643439228692
tp2079
aa(lp2080
(g2
(g6
S'\xff\xcf\x10\x82E\xfd\xff\xbf'
p2081
tp2082
Rp2083
F0.00014200643439228692
tp2084
ag2
(g6
S'I\x7f\\r\xd9J\x8b<'
p2085
tp2086
Rp2087
aI62500000000
aF1.0
aF0.06127622366503252
ag2
(g6
S'\x7f\xa7k;>\xfd\xff\xbf'
p2088
tp2089
Rp2090
a(g2
(g6
S'\xff~\xc6\xf46\xfd\xff\xbf'
p2091
tp2092
Rp2093
g2083
tp2094
a(g2093
F0.00014496548021247473
tp2095
aa(lp2096
(g2093
F0.00014496548021247473
tp2097
ag2
(g6
S'W\xfb\xac\xb6\xe7J\x8b<'
p2098
tp2099
Rp2100
aI62500000000
aF1.0
aF0.06127511127592456
ag2
(g6
S'\x7fV!\xae/\xfd\xff\xbf'
p2101
tp2102
Rp2103
a(g2
(g6
S'\xff-|g(\xfd\xff\xbf'
p2104
tp2105
Rp2106
g2093
tp2107
a(g2106
F0.0001479245496351911
tp2108
aa(lp2109
(g2106
F0.0001479245496351911
tp2110
ag2
(g6
S'a{\xec\xfa\xf5J\x8b<'
p2111
tp2112
Rp2113
aI62500000000
aF1.0
aF0.061273998323866645
ag2
(g6
S'\x7f\x05\xd7 !\xfd\xff\xbf'
p2114
tp2115
Rp2116
a(g2
(g6
S'\xff\xdc1\xda\x19\xfd\xff\xbf'
p2117
tp2118
Rp2119
g2106
tp2120
a(g2119
F0.0001508836426600073
tp2121
aa(lp2122
(g2119
F0.0001508836426600073
tp2123
ag2
(g6
S'\xac\xff\x1a?\x04K\x8b<'
p2124
tp2125
Rp2126
aI62500000000
aF1.0
aF0.06127288480885878
ag2
(g6
S'\x7f\xb4\x8c\x93\x12\xfd\xff\xbf'
p2127
tp2128
Rp2129
a(g2
(g6
S'\xff\x8b\xe7L\x0b\xfd\xff\xbf'
p2130
tp2131
Rp2132
g2119
tp2133
a(g2132
F0.0001538427592864946
tp2134
aa(lp2135
(g2132
F0.0001538427592864946
tp2136
ag2
(g6
S'\xc6\x888\x83\x12K\x8b<'
p2137
tp2138
Rp2139
aI62500000000
aF1.0
aF0.06127177185680087
ag2
(g6
S'\x7fcB\x06\x04\xfd\xff\xbf'
p2140
tp2141
Rp2142
a(g2
(g6
S'\xff:\x9d\xbf\xfc\xfc\xff\xbf'
p2143
tp2144
Rp2145
g2132
tp2146
a(g2145
F0.00015680189951422434
tp2147
aa(lp2148
(g2145
F0.00015680189951422434
tp2149
ag2
(g6
S'\x94\x15E\xc7 K\x8b<'
p2150
tp2151
Rp2152
aI62500000000
aF1.0
aF0.0612706594676929
ag2
(g6
S'\x7f\x12\xf8x\xf5\xfc\xff\xbf'
p2153
tp2154
Rp2155
a(g2
(g6
S'\xff\xe9R2\xee\xfc\xff\xbf'
p2156
tp2157
Rp2158
g2145
tp2159
a(g2158
F0.00015976106334276773
tp2160
aa(lp2161
(g2158
F0.00015976106334276773
tp2162
ag2
(g6
S'1\xa7@\x0b/K\x8b<'
p2163
tp2164
Rp2165
aI62500000000
aF1.0
aF0.061269545389735086
ag2
(g6
S'\x7f\xc1\xad\xeb\xe6\xfc\xff\xbf'
p2166
tp2167
Rp2168
a(g2
(g6
S'\xff\x98\x08\xa5\xdf\xfc\xff\xbf'
p2169
tp2170
Rp2171
g2158
tp2172
a(g2171
F0.00016272025077169612
tp2173
aa(lp2174
(g2171
F0.00016272025077169612
tp2175
ag2
(g6
S'\xc9<+O=K\x8b<'
p2176
tp2177
Rp2178
aI62500000000
aF1.0
aF0.06126843243767717
ag2
(g6
S'\x7fpc^\xd8\xfc\xff\xbf'
p2179
tp2180
Rp2181
a(g2
(g6
S'\xffG\xbe\x17\xd1\xfc\xff\xbf'
p2182
tp2183
Rp2184
g2171
tp2185
a(g2184
F0.00016567946180058075
tp2186
aa(lp2187
(g2184
F0.00016567946180058075
tp2188
ag2
(g6
S'/\xd7\x04\x93KK\x8b<'
p2189
tp2190
Rp2191
aI62500000000
aF1.0
aF0.06126732004856921
ag2
(g6
S'\x7f\x1f\x19\xd1\xc9\xfc\xff\xbf'
p2192
tp2193
Rp2194
a(g2
(g6
S'\xff\xf6s\x8a\xc2\xfc\xff\xbf'
p2195
tp2196
Rp2197
g2184
tp2198
a(g2197
F0.00016863869642899296
tp2199
aa(lp2200
(g2197
F0.00016863869642899296
tp2201
ag2
(g6
S'\x90u\xcd\xd6YK\x8b<'
p2202
tp2203
Rp2204
aI62500000000
aF1.0
aF0.061266207096511295
ag2
(g6
S'\x7f\xce\xceC\xbb\xfc\xff\xbf'
p2205
tp2206
Rp2207
a(g2
(g6
S'\xff\xa5)\xfd\xb3\xfc\xff\xbf'
p2208
tp2209
Rp2210
g2197
tp2211
a(g2210
F0.000171597954656504
tp2212
aa(lp2213
(g2210
F0.000171597954656504
tp2214
ag2
(g6
S'z\x18\x85\x1ahK\x8b<'
p2215
tp2216
Rp2217
aI62500000000
aF1.0
aF0.06126509414445338
ag2
(g6
S'\x7f}\x84\xb6\xac\xfc\xff\xbf'
p2218
tp2219
Rp2220
a(g2
(g6
S'\xffT\xdfo\xa5\xfc\xff\xbf'
p2221
tp2222
Rp2223
g2210
tp2224
a(g2223
F0.00017455723648268518
tp2225
aa(lp2226
(g2223
F0.00017455723648268518
tp2227
ag2
(g6
S'\xa5\xbf+^vK\x8b<'
p2228
tp2229
Rp2230
aI62500000000
aF1.0
aF0.06126398119239547
ag2
(g6
S'\x7f,:)\x9e\xfc\xff\xbf'
p2231
tp2232
Rp2233
a(g2
(g6
S'\xff\x03\x95\xe2\x96\xfc\xff\xbf'
p2234
tp2235
Rp2236
g2223
tp2237
a(g2236
F0.00017751654190710777
tp2238
aa(lp2239
(g2236
F0.00017751654190710777
tp2240
ag2
(g6
S'\x9ek\xc1\xa1\x84K\x8b<'
p2241
tp2242
Rp2243
aI62500000000
aF1.0
aF0.061262868240337554
ag2
(g6
S'\x7f\xdb\xef\x9b\x8f\xfc\xff\xbf'
p2244
tp2245
Rp2246
a(g2
(g6
S'\xff\xb2JU\x88\xfc\xff\xbf'
p2247
tp2248
Rp2249
g2236
tp2250
a(g2249
F0.0001804758709293431
tp2251
aa(lp2252
(g2249
F0.0001804758709293431
tp2253
ag2
(g6
S'\x92\x1bF\xe5\x92K\x8b<'
p2254
tp2255
Rp2256
aI62500000000
aF1.0
aF0.06126175528827964
ag2
(g6
S'\x7f\x8a\xa5\x0e\x81\xfc\xff\xbf'
p2257
tp2258
Rp2259
a(g2
(g6
S'\xffa\x00\xc8y\xfc\xff\xbf'
p2260
tp2261
Rp2262
g2249
tp2263
a(g2262
F0.00018343522354896246
tp2264
aa(lp2265
(g2262
F0.00018343522354896246
tp2266
ag2
(g6
S'\x0f\xd0\xb9(\xa1K\x8b<'
p2267
tp2268
Rp2269
aI62500000000
aF1.0
aF0.06126064233622173
ag2
(g6
S'\x7f9[\x81r\xfc\xff\xbf'
p2270
tp2271
Rp2272
a(g2
(g6
S'\xff\x10\xb6:k\xfc\xff\xbf'
p2273
tp2274
Rp2275
g2262
tp2276
a(g2275
F0.0001863945997655371
tp2277
aa(lp2278
(g2275
F0.0001863945997655371
tp2279
ag2
(g6
S'Y\x89\x1cl\xafK\x8b<'
p2280
tp2281
Rp2282
aI62500000000
aF1.0
aF0.06125952882121386
ag2
(g6
S'\x7f\xe8\x10\xf4c\xfc\xff\xbf'
p2283
tp2284
Rp2285
a(g2
(g6
S'\xff\xbfk\xad\\\xfc\xff\xbf'
p2286
tp2287
Rp2288
g2275
tp2289
a(g2288
F0.0001893539995786384
tp2290
aa(lp2291
(g2
(g6
S'\xff\xbfk\xad\\\xfc\xff\xbf'
p2292
tp2293
Rp2294
F0.0001893539995786384
tp2295
ag2
(g6
S'\xe6Fn\xaf\xbdK\x8b<'
p2296
tp2297
Rp2298
aI62500000000
aF1.0
aF0.061258415869155945
ag2
(g6
S'\x7f\x97\xc6fU\xfc\xff\xbf'
p2299
tp2300
Rp2301
a(g2
(g6
S'\xffn! N\xfc\xff\xbf'
p2302
tp2303
Rp2304
g2294
tp2305
a(g2304
F0.00019231342298783763
tp2306
aa(lp2307
(g2304
F0.00019231342298783763
tp2308
ag2
(g6
S'\xfa\x08\xaf\xf2\xcbK\x8b<'
p2309
tp2310
Rp2311
aI62500000000
aF1.0
aF0.06125730291709803
ag2
(g6
S'\x7fF|\xd9F\xfc\xff\xbf'
p2312
tp2313
Rp2314
a(g2
(g6
S'\xff\x1d\xd7\x92?\xfc\xff\xbf'
p2315
tp2316
Rp2317
g2304
tp2318
a(g2317
F0.00019527286999270607
tp2319
aa(lp2320
(g2317
F0.00019527286999270607
tp2321
ag2
(g6
S'P\xcf\xde5\xdaK\x8b<'
p2322
tp2323
Rp2324
aI62500000000
aF1.0
aF0.06125618996504012
ag2
(g6
S'\x7f\xf51L8\xfc\xff\xbf'
p2325
tp2326
Rp2327
a(g2
(g6
S'\xff\xcc\x8c\x051\xfc\xff\xbf'
p2328
tp2329
Rp2330
g2317
tp2331
a(g2330
F0.00019823234059281503
tp2332
aa(lp2333
(g2330
F0.00019823234059281503
tp2334
ag2
(g6
S'.\x9a\xfdx\xe8K\x8b<'
p2335
tp2336
Rp2337
aI62500000000
aF1.0
aF0.061255077012982204
ag2
(g6
S'\x7f\xa4\xe7\xbe)\xfc\xff\xbf'
p2338
tp2339
Rp2340
a(g2
(g6
S'\xff{Bx"\xfc\xff\xbf'
p2341
tp2342
Rp2343
g2330
tp2344
a(g2343
F0.0002011918347877358
tp2345
aa(lp2346
(g2343
F0.0002011918347877358
tp2347
ag2
(g6
S' j\x0b\xbc\xf6K\x8b<'
p2348
tp2349
Rp2350
aI62500000000
aF1.0
aF0.061253964623874245
ag2
(g6
S'\x7fS\x9d1\x1b\xfc\xff\xbf'
p2351
tp2352
Rp2353
a(g2
(g6
S'\xff*\xf8\xea\x13\xfc\xff\xbf'
p2354
tp2355
Rp2356
g2343
tp2357
a(g2356
F0.00020415135257703974
tp2358
aa(lp2359
(g2356
F0.00020415135257703974
tp2360
ag2
(g6
S'\xc7=\x08\xff\x04L\x8b<'
p2361
tp2362
Rp2363
aI62500000000
aF1.0
aF0.06125285110886638
ag2
(g6
S'\x7f\x02S\xa4\x0c\xfc\xff\xbf'
p2364
tp2365
Rp2366
a(g2
(g6
S'\xff\xd9\xad]\x05\xfc\xff\xbf'
p2367
tp2368
Rp2369
g2356
tp2370
a(g2369
F0.00020711089396029808
tp2371
aa(lp2372
(g2369
F0.00020711089396029808
tp2373
ag2
(g6
S'\xca\x16\xf4A\x13L\x8b<'
p2374
tp2375
Rp2376
aI62500000000
aF1.0
aF0.06125173815680846
ag2
(g6
S'\x7f\xb1\x08\x17\xfe\xfb\xff\xbf'
p2377
tp2378
Rp2379
a(g2
(g6
S'\xff\x88c\xd0\xf6\xfb\xff\xbf'
p2380
tp2381
Rp2382
g2369
tp2383
a(g2382
F0.0002100704589370822
tp2384
aa(lp2385
(g2382
F0.0002100704589370822
tp2386
ag2
(g6
S'\xc7\xf3\xce\x84!L\x8b<'
p2387
tp2388
Rp2389
aI62500000000
aF1.0
aF0.0612506257677005
ag2
(g6
S'\x7f`\xbe\x89\xef\xfb\xff\xbf'
p2390
tp2391
Rp2392
a(g2
(g6
S'\xff7\x19C\xe8\xfb\xff\xbf'
p2393
tp2394
Rp2395
g2382
tp2396
a(g2395
F0.00021303004750696338
tp2397
aa(lp2398
(g2395
F0.00021303004750696338
tp2399
ag2
(g6
S'\x93\xd5\x98\xc7/L\x8b<'
p2400
tp2401
Rp2402
aI62500000000
aF1.0
aF0.06124951281564259
ag2
(g6
S'\x7f\x0ft\xfc\xe0\xfb\xff\xbf'
p2403
tp2404
Rp2405
a(g2
(g6
S'\xff\xe6\xce\xb5\xd9\xfb\xff\xbf'
p2406
tp2407
Rp2408
g2395
tp2409
a(g2408
F0.00021598965966951292
tp2410
aa(lp2411
(g2408
F0.00021598965966951292
tp2412
ag2
(g6
S'\xe7\xbbQ\n>L\x8b<'
p2413
tp2414
Rp2415
aI62500000000
aF1.0
aF0.06124839986358467
ag2
(g6
S'\x7f\xbe)o\xd2\xfb\xff\xbf'
p2416
tp2417
Rp2418
a(g2
(g6
S'\xff\x95\x84(\xcb\xfb\xff\xbf'
p2419
tp2420
Rp2421
g2408
tp2422
a(g2421
F0.00021894929542430215
tp2423
aa(lp2424
(g2421
F0.00021894929542430215
tp2425
ag2
(g6
S'\xc2\xa6\xf9LLL\x8b<'
p2426
tp2427
Rp2428
aI62500000000
aF1.0
aF0.06124728691152676
ag2
(g6
S'\x7fm\xdf\xe1\xc3\xfb\xff\xbf'
p2429
tp2430
Rp2431
a(g2
(g6
S'\xffD:\x9b\xbc\xfb\xff\xbf'
p2432
tp2433
Rp2434
g2421
tp2435
a(g2434
F0.00022190895477090236
tp2436
aa(lp2437
(g2434
F0.00022190895477090236
tp2438
ag2
(g6
S'\xb3\x96\x90\x8fZL\x8b<'
p2439
tp2440
Rp2441
aI62500000000
aF1.0
aF0.061246173396518895
ag2
(g6
S'\x7f\x1c\x95T\xb5\xfb\xff\xbf'
p2442
tp2443
Rp2444
a(g2
(g6
S'\xff\xf3\xef\r\xae\xfb\xff\xbf'
p2445
tp2446
Rp2447
g2434
tp2448
a(g2447
F0.00022486863770888491
tp2449
aa(lp2450
(g2447
F0.00022486863770888491
tp2451
ag2
(g6
S'\x9e\x8a\x16\xd2hL\x8b<'
p2452
tp2453
Rp2454
aI62500000000
aF1.0
aF0.06124506044446098
ag2
(g6
S'\x7f\xcbJ\xc7\xa6\xfb\xff\xbf'
p2455
tp2456
Rp2457
a(g2
(g6
S'\xff\xa2\xa5\x80\x9f\xfb\xff\xbf'
p2458
tp2459
Rp2460
g2447
tp2461
a(g2460
F0.00022782834423782107
tp2462
aa(lp2463
(g2460
F0.00022782834423782107
tp2464
ag2
(g6
S'\x9f\x83\x8b\x14wL\x8b<'
p2465
tp2466
Rp2467
aI62500000000
aF1.0
aF0.06124394805535302
ag2
(g6
S'\x7fz\x00:\x98\xfb\xff\xbf'
p2468
tp2469
Rp2470
a(g2
(g6
S'\xffQ[\xf3\x90\xfb\xff\xbf'
p2471
tp2472
Rp2473
g2460
tp2474
a(g2473
F0.00023078807435728219
tp2475
aa(lp2476
(g2473
F0.00023078807435728219
tp2477
ag2
(g6
S'\xe1\x80\xefV\x85L\x8b<'
p2478
tp2479
Rp2480
aI62500000000
aF1.0
aF0.061242835103295104
ag2
(g6
S'\x7f)\xb6\xac\x89\xfb\xff\xbf'
p2481
tp2482
Rp2483
a(g2
(g6
S'\xff\x00\x11f\x82\xfb\xff\xbf'
p2484
tp2485
Rp2486
g2473
tp2487
a(g2486
F0.00023374782806683954
tp2488
aa(lp2489
(g2486
F0.00023374782806683954
tp2490
ag2
(g6
S'}\x83B\x99\x93L\x8b<'
p2491
tp2492
Rp2493
aI62500000000
aF1.0
aF0.06124172215123719
ag2
(g6
S'\x7f\xd8k\x1f{\xfb\xff\xbf'
p2494
tp2495
Rp2496
a(g2
(g6
S'\xff\xaf\xc6\xd8s\xfb\xff\xbf'
p2497
tp2498
Rp2499
g2486
tp2500
a(g2499
F0.00023670760536606452
tp2501
aa(lp2502
(g2
(g6
S'\xff\xaf\xc6\xd8s\xfb\xff\xbf'
p2503
tp2504
Rp2505
F0.00023670760536606452
tp2506
ag2
(g6
S'\x82&\x1d\xae\xa3L\x8b<'
p2507
tp2508
Rp2509
aI78478408994
aF1.0
aF0.061240466882292226
ag2
(g6
S'n\xf1\xef\xb5j\xfb\xff\xbf'
p2510
tp2511
Rp2512
a(g2
(g6
S'\xdd2\x19\x93a\xfb\xff\xbf'
p2513
tp2514
Rp2515
g2505
tp2516
a(g2515
F0.00024042409658689903
tp2517
aa(lp2518
(g2515
F0.00024042409658689903
tp2519
ag2
(g6
S'p\xe3x\x95\xb5L\x8b<'
p2520
tp2521
Rp2522
aI78478408994
aF1.0
aF0.06123906938728919
ag2
(g6
S'LtBpX\xfb\xff\xbf'
p2523
tp2524
Rp2525
a(g2
(g6
S'\xbb\xb5kMO\xfb\xff\xbf'
p2526
tp2527
Rp2528
g2515
tp2529
a(g2528
F0.00024414062499929085
tp2530
aa.