(lp0
(lp1
(cnumpy.core.multiarray
scalar
p2
(cnumpy
dtype
p3
(S'f8'
p4
I0
I1
tp5
Rp6
(I3
S'<'
p7
NNNI-1
I-1
I0
tp8
bS'j#\x11\x15D {\xc0'
p9
tp10
Rp11
F-3.051757659504586e-05
tp12
ag2
(g6
S'\x90\xf7\x90i\xe5\x99D='
p13
tp14
Rp15
aI208481826
aF1.0
aF0.009933851678693973
ag2
(g6
S'{\xbaG\x1bD {\xc0'
p16
tp17
Rp18
a(g11
g2
(g6
S'\x8cQ~!D {\xc0'
p19
tp20
Rp21
tp22
a(g21
F-6.103515111336886e-05
tp23
aa(lp24
(g2
(g6
S'Y\x8c\xda\x0eD {\xc0'
p25
tp26
Rp27
F-1.5258788522058948e-05
tp28
ag2
(g6
S'\xf3\x1a\x00|\xe5\x99D='
p29
tp30
Rp31
aI104240913
aF1.0
aF0.004966925646348681
ag2
(g6
S'\xe2\xd7\xf5\x11D {\xc0'
p32
tp33
Rp34
a(g27
g11
tp35
a(g11
F-3.051757659504586e-05
tp36
aa(lp37
(F-434.01660980268616
F-2.1655048440896812e-13
tp38
ag2
(g6
S'4nD\x81\xe5\x99D='
p39
tp40
Rp41
aI104240913
aF1.0
aF0.0016556420429481482
ag2
(g6
S'\xd0@\xbf\x0bD {\xc0'
p42
tp43
Rp44
a(F-434.01660980268616
g27
tp45
a(g27
F-1.5258788522058948e-05
tp46
aa(lp47
(F-434.01660980268616
F-2.1655048440896812e-13
tp48
ag2
(g6
S'\x8a\xe7^\x7f\xe5\x99D='
p49
tp50
Rp51
aI185319532
aF1.0
aF-0.002943400696150875
ag2
(g6
S'\x12\x15\x1e\x03D {\xc0'
p52
tp53
Rp54
a(g2
(g6
S'\xdc4\x98\xfdC {\xc0'
p55
tp56
Rp57
F-434.01660980268616
tp58
a(g57
F2.7127078880954136e-05
tp59
aa(lp60
(g57
F2.7127078880954136e-05
tp61
ag2
(g6
S'\xbeU\x15k\xe5\x99D='
p62
tp63
Rp64
aI231644151
aF1.0
aF-0.009565968185904722
ag2
(g6
S'\xe0\xe6\xb0\xf6C {\xc0'
p65
tp66
Rp67
a(g2
(g6
S'\xe5\x98\xc9\xefC {\xc0'
p68
tp69
Rp70
g57
tp71
a(g70
F6.1035155218048566e-05
tp72
aa.