(lp0
(lp1
(cnumpy.core.multiarray
scalar
p2
(cnumpy
dtype
p3
(S'f8'
p4
I0
I1
tp5
Rp6
(I3
S'<'
p7
NNNI-1
I-1
I0
tp8
bS'\x16\xc9:\xb9\xcc\x08i@'
p9
tp10
Rp11
F-0.00012207031237424445
tp12
ag2
(g6
S'\x90\x96y\xab\xe6\xdd\xdc<'
p13
tp14
Rp15
aI596821430
aF1.0
aF-7.996147024153656e-05
ag2
(g6
S'\xf1+\x04\xcb\xcc\x08i@'
p16
tp17
Rp18
a(g2
(g6
S'\xcc\x8e\xcd\xdc\xcc\x08i@'
p19
tp20
Rp21
g11
tp22
a(g21
F-0.00012111394819485678
tp23
aa(lp24
(g21
F-0.00012111394819485678
tp25
ag2
(g6
S'\xc1\xdf\x1e\x94\xe6\xdd\xdc<'
p26
tp27
Rp28
aI595933173
aF1.0
aF-8.043943855168385e-05
ag2
(g6
S'\xc6*\x90\xee\xcc\x08i@'
p29
tp30
Rp31
a(g2
(g6
S'\xc1\xc6R\x00\xcd\x08i@'
p32
tp33
Rp34
g21
tp35
a(g34
F-0.00012015900743061068
tp36
aa(lp37
(g34
F-0.00012015900743061068
tp38
ag2
(g6
S'v\x01\xad|\xe6\xdd\xdc<'
p39
tp40
Rp41
aI594357752
aF1.0
aF-8.091639567554336e-05
ag2
(g6
S'\xbd]\t\x12\xcd\x08i@'
p42
tp43
Rp44
a(g2
(g6
S'\xb9\xf4\xbf#\xcd\x08i@'
p45
tp46
Rp47
g34
tp48
a(g47
F-0.00011920659121320613
tp49
aa(lp50
(g47
F-0.00011920659121320613
tp51
ag2
(g6
S'\x1c3$e\xe6\xdd\xdc<'
p52
tp53
Rp54
aI593467991
aF1.0
aF-8.13920459031092e-05
ag2
(g6
S'\xe4\xc1o5\xcd\x08i@'
p55
tp56
Rp57
a(g2
(g6
S'\x10\x8f\x1fG\xcd\x08i@'
p58
tp59
Rp60
g47
tp61
a(g60
F-0.00011825560082102216
tp62
aa(lp63
(g60
F-0.00011825560082102216
tp64
ag2
(g6
S'\x8c\xb7iM\xe6\xdd\xdc<'
p65
tp66
Rp67
aI597158658
aF1.0
aF-8.186902678910144e-05
ag2
(g6
S'\x91\x84\xebX\xcd\x08i@'
p68
tp69
Rp70
a(g2
(g6
S'\x12z\xb7j\xcd\x08i@'
p71
tp72
Rp73
g60
tp74
a(g73
F-0.00011729869644343855
tp75
aa(lp76
(g73
F-0.00011729869644343855
tp77
ag2
(g6
S'\xc2E}5\xe6\xdd\xdc<'
p78
tp79
Rp80
aI596283097
aF1.0
aF-8.234707137136192e-05
ag2
(g6
S'~\xc1||\xcd\x08i@'
p81
tp82
Rp83
a(g2
(g6
S'\xeb\x08B\x8e\xcd\x08i@'
p84
tp85
Rp86
g73
tp87
a(g86
F-0.00011634319513743106
tp88
aa(lp89
(g86
F-0.00011634319513743106
tp90
ag2
(g6
S'\n\xc3\x7f\x1d\xe6\xdd\xdc<'
p91
tp92
Rp93
aI593569295
aF1.0
aF-8.282387277755311e-05
ag2
(g6
S'\xf2\x9b\xf2\x9f\xcd\x08i@'
p94
tp95
Rp96
a(g2
(g6
S'\xfa.\xa3\xb1\xcd\x08i@'
p97
tp98
Rp99
g86
tp100
a(g99
F-0.00011539204255346964
tp101
aa(lp102
(g99
F-0.00011539204255346964
tp103
ag2
(g6
S'k\xeal\x05\xe6\xdd\xdc<'
p104
tp105
Rp106
aI593569296
aF1.0
aF-8.329929705792131e-05
ag2
(g6
S'\x02\xc2S\xc3\xcd\x08i@'
p107
tp108
Rp109
a(g2
(g6
S'\nU\x04\xd5\xcd\x08i@'
p110
tp111
Rp112
g99
tp113
a(g112
F-0.00011444089001518533
tp114
aa(lp115
(g112
F-0.00011444089001518533
tp116
ag2
(g6
S'\xf4\x8f&\xed\xe5\xdd\xdc<'
p117
tp118
Rp119
aI596665214
aF1.0
aF-8.377604660599129e-05
ag2
(g6
S'\xc9\x86\xcc\xe6\xcd\x08i@'
p120
tp121
Rp122
a(g2
(g6
S'\x88\xb8\x94\xf8\xcd\x08i@'
p123
tp124
Rp125
g112
tp126
a(g125
F-0.00011348477653664004
tp127
aa(lp128
(g125
F-0.00011348477653664004
tp129
ag2
(g6
S'\xc1\xef\xb0\xd4\xe5\xdd\xdc<'
p130
tp131
Rp132
aI595814423
aF1.0
aF-8.425385453962826e-05
ag2
(g6
S'\x94lV\n\xce\x08i@'
p133
tp134
Rp135
a(g2
(g6
S'\x9f \x18\x1c\xce\x08i@'
p136
tp137
Rp138
g125
tp139
a(g138
F-0.00011253002643825177
tp140
aa(lp141
(g138
F-0.00011253002643825177
tp142
ag2
(g6
S'\xc6h#\xbc\xe5\xdd\xdc<'
p143
tp144
Rp145
aI594456344
aF1.0
aF-8.473060752350857e-05
ag2
(g6
S'+x\xcf-\xce\x08i@'
p146
tp147
Rp148
a(g2
(g6
S'\xb7\xcf\x86?\xce\x08i@'
p149
tp150
Rp151
g138
tp152
a(g151
F-0.00011157745261284773
tp153
aa(lp154
(g151
F-0.00011157745261284773
tp155
ag2
(g6
S'c\xf6}\xa3\xe5\xdd\xdc<'
p156
tp157
Rp158
aI593644365
aF1.0
aF-8.520648911067832e-05
ag2
(g6
S'^\xf57Q\xce\x08i@'
p159
tp160
Rp161
a(g2
(g6
S'\x04\x1b\xe9b\xce\x08i@'
p162
tp163
Rp164
g151
tp165
a(g164
F-0.00011062617997419662
tp166
aa(lp167
(g164
F-0.00011062617997419662
tp168
ag2
(g6
S'\x9b\x9d\xa9\x8a\xe5\xdd\xdc<'
p169
tp170
Rp171
aI596611584
aF1.0
aF-8.568326574027744e-05
ag2
(g6
S'\x04\xe4\xb0t\xce\x08i@'
p172
tp173
Rp174
a(g2
(g6
S'\x04\xadx\x86\xce\x08i@'
p175
tp176
Rp177
g164
tp178
a(g177
F-0.00010967015262832153
tp179
aa(lp180
(g177
F-0.00010967015262832153
tp181
ag2
(g6
S'\xaaY\xa6q\xe5\xdd\xdc<'
p182
tp183
Rp184
aI595773677
aF1.0
aF-8.616097189965768e-05
ag2
(g6
S'z\x11:\x98\xce\x08i@'
p185
tp186
Rp187
a(g2
(g6
S'\xf1u\xfb\xa9\xce\x08i@'
p188
tp189
Rp190
g177
tp191
a(g190
F-0.00010871546801772606
tp192
aa(lp193
(g190
F-0.00010871546801772606
tp194
ag2
(g6
S'\xed\x1a\x8dX\xe5\xdd\xdc<'
p195
tp196
Rp197
aI594097542
aF1.0
aF-8.663756448557873e-05
ag2
(g6
S'\xb4\x10\xb0\xbb\xce\x08i@'
p198
tp199
Rp200
a(g2
(g6
S'w\xabd\xcd\xce\x08i@'
p201
tp202
Rp203
g190
tp204
a(g203
F-0.00010776346934265428
tp205
aa(lp206
(g203
F-0.00010776346934265428
tp207
ag2
(g6
S'\x9f\x87Y?\xe5\xdd\xdc<'
p208
tp209
Rp210
aI594097542
aF1.0
aF-8.711366505479989e-05
ag2
(g6
S':F\x19\xdf\xce\x08i@'
p211
tp212
Rp213
a(g2
(g6
S'\xfd\xe0\xcd\xf0\xce\x08i@'
p214
tp215
Rp216
g203
tp217
a(g216
F-0.00010681147071712112
tp218
aa(lp219
(g216
F-0.00010681147071712112
tp220
ag2
(g6
S'`W\xf7%\xe5\xdd\xdc<'
p221
tp222
Rp223
aI596154069
aF1.0
aF-8.759036570860604e-05
ag2
(g6
S'h,\x92\x02\xcf\x08i@'
p224
tp225
Rp226
a(g2
(g6
S'\xd2wV\x14\xcf\x08i@'
p227
tp228
Rp229
g216
tp230
a(g229
F-0.00010585617670489984
tp231
aa(lp232
(g229
F-0.00010585617670489984
tp233
ag2
(g6
S'\x80^f\x0c\xe5\xdd\xdc<'
p234
tp235
Rp236
aI596154068
aF1.0
aF-8.80680969597927e-05
ag2
(g6
S'<\xc3\x1a&\xcf\x08i@'
p237
tp238
Rp239
a(g2
(g6
S'\xa6\x0e\xdf7\xcf\x08i@'
p240
tp241
Rp242
g229
tp243
a(g242
F-0.00010490088274471073
tp244
aa(lp245
(g242
F-0.00010490088274471073
tp246
ag2
(g6
S'\x00\xc4\xba\xf2\xe4\xdd\xdc<'
p247
tp248
Rp249
aI594537224
aF1.0
aF-8.854509269993907e-05
ag2
(g6
S'*\x04\x97I\xcf\x08i@'
p250
tp251
Rp252
a(g2
(g6
S'\xae\xf9N[\xcf\x08i@'
p253
tp254
Rp255
g242
tp256
a(g255
F-0.00010394817971108747
tp257
aa(lp258
(g255
F-0.00010394817971108747
tp259
ag2
(g6
S'\x0f\x1e\xf9\xd8\xe4\xdd\xdc<'
p260
tp261
Rp262
aI593734984
aF1.0
aF-8.90211620099315e-05
ag2
(g6
S'R\xd0\x00m\xcf\x08i@'
p263
tp264
Rp265
a(g2
(g6
S'\xf6\xa6\xb2~\xcf\x08i@'
p266
tp267
Rp268
g255
tp269
a(g268
F-0.00010299676225981904
tp270
aa(lp271
(g268
F-0.00010299676225981904
tp272
ag2
(g6
S'z\x1f\n\xbf\xe4\xdd\xdc<'
p273
tp274
Rp275
aI596321588
aF1.0
aF-8.949781374473933e-05
ag2
(g6
S'\x909x\x90\xcf\x08i@'
p276
tp277
Rp278
a(g2
(g6
S'*\xcc=\xa2\xcf\x08i@'
p279
tp280
Rp281
g268
tp282
a(g281
F-0.00010204120001353116
tp283
aa(lp284
(g281
F-0.00010204120001353116
tp285
ag2
(g6
S'\x95e\xeb\xa4\xe4\xdd\xdc<'
p286
tp287
Rp288
aI595919520
aF1.0
aF-8.997540822135293e-05
ag2
(g6
S'zM\x00\xb4\xcf\x08i@'
p289
tp290
Rp291
a(g2
(g6
S'\xca\xce\xc2\xc5\xcf\x08i@'
p292
tp293
Rp294
g281
tp295
a(g294
F-0.00010108628210365596
tp296
aa(lp297
(g294
F-0.00010108628210365596
tp298
ag2
(g6
S'\x11\x02\xb3\x8a\xe4\xdd\xdc<'
p299
tp300
Rp301
aI594566968
aF1.0
aF-9.045243726449365e-05
ag2
(g6
S'f\xfez\xd7\xcf\x08i@'
p302
tp303
Rp304
a(g2
(g6
S'\x02.3\xe9\xcf\x08i@'
p305
tp306
Rp307
g294
tp308
a(g307
F-0.00010013353161207168
tp309
aa(lp310
(g307
F-0.00010013353161207168
tp311
ag2
(g6
S'9Vcp\xe4\xdd\xdc<'
p312
tp313
Rp314
aI593772270
aF1.0
aF-9.09284632025255e-05
ag2
(g6
S'yM\xe5\xfa\xcf\x08i@'
p315
tp316
Rp317
a(g2
(g6
S'\xf0l\x97\x0c\xd0\x08i@'
p318
tp319
Rp320
g307
tp321
a(g320
F-9.918205461815059e-05
tp322
aa(lp323
(g320
F-9.918205461815059e-05
tp324
ag2
(g6
S'\xbdW\xe4U\xe4\xdd\xdc<'
p325
tp326
Rp327
aI596658163
aF1.0
aF-9.140523002664196e-05
ag2
(g6
S'\xea\x90_\x1e\xd0\x08i@'
p328
tp329
Rp330
a(g2
(g6
S"\xe3\xb4'0\xd0\x08i@"
p331
tp332
Rp333
g320
tp334
a(g333
F-9.822595324233065e-05
tp335
aa(lp336
(g333
F-9.822595324233065e-05
tp337
ag2
(g6
S'[\xcf5;\xe4\xdd\xdc<'
p338
tp339
Rp340
aI595875620
aF1.0
aF-9.188304311984447e-05
ag2
(g6
S'u\xe0\xe9A\xd0\x08i@'
p341
tp342
Rp343
a(g2
(g6
S'\x07\x0c\xacS\xd0\x08i@'
p344
tp345
Rp346
g333
tp347
a(g346
F-9.727110588744397e-05
tp348
aa(lp349
(g346
F-9.727110588744397e-05
tp350
ag2
(g6
S';\xa1p \xe4\xdd\xdc<'
p351
tp352
Rp353
aI594413474
aF1.0
aF-9.23599408308997e-05
ag2
(g6
S'\xd8\x0fce\xd0\x08i@'
p354
tp355
Rp356
a(g2
(g6
S'\xa9\x13\x1aw\xd0\x08i@'
p357
tp358
Rp359
g346
tp360
a(g359
F-9.631860156785987e-05
tp361
aa(lp362
(g359
F-9.631860156785987e-05
tp363
ag2
(g6
S'\xef\xfc\x94\x05\xe4\xdd\xdc<'
p364
tp365
Rp366
aI593633089
aF1.0
aF-9.283564154264331e-05
ag2
(g6
S'J#\xcb\x88\xd0\x08i@'
p367
tp368
Rp369
a(g2
(g6
S'\xea2|\x9a\xd0\x08i@'
p370
tp371
Rp372
g359
tp373
a(g372
F-9.536734781118084e-05
tp374
aa(lp375
(g372
F-9.536734781118084e-05
tp376
ag2
(g6
S'7\x19\x8a\xea\xe3\xdd\xdc<'
p377
tp378
Rp379
aI596452373
aF1.0
aF-9.33124363178673e-05
ag2
(g6
S'\xf4\xc4B\xac\xd0\x08i@'
p380
tp381
Rp382
a(g2
(g6
S'\xffV\t\xbe\xd0\x08i@'
p383
tp384
Rp385
g372
tp386
a(g385
F-9.441157641075076e-05
tp387
aa(lp388
(g385
F-9.441157641075076e-05
tp389
ag2
(g6
S'L\xc5O\xcf\xe3\xdd\xdc<'
p390
tp391
Rp392
aI595679480
aF1.0
aF-9.379001339903829e-05
ag2
(g6
S'{\x03\xca\xcf\xd0\x08i@'
p393
tp394
Rp395
a(g2
(g6
S'\xf7\xaf\x8a\xe1\xd0\x08i@'
p396
tp397
Rp398
g385
tp399
a(g398
F-9.345704356861415e-05
tp400
aa(lp401
(g398
F-9.345704356861415e-05
tp402
ag2
(g6
S'6\xc3\xfc\xb3\xe3\xdd\xdc<'
p403
tp404
Rp405
aI594602290
aF1.0
aF-9.426680947333025e-05
ag2
(g6
S'\x90$C\xf3\xd0\x08i@'
p406
tp407
Rp408
a(g2
(g6
S')\x99\xfb\x04\xd1\x08i@'
p409
tp410
Rp411
g398
tp412
a(g411
F-9.250423689850244e-05
tp413
aa(lp414
(g411
F-9.250423689850244e-05
tp415
ag2
(g6
S'\x9e#\x91\x98\xe3\xdd\xdc<'
p416
tp417
Rp418
aI593846203
aF1.0
aF-9.47427818982121e-05
ag2
(g6
S'\x06I\xae\x16\xd1\x08i@'
p419
tp420
Rp421
a(g2
(g6
S'\xe4\xf8`(\xd1\x08i@'
p422
tp423
Rp424
g411
tp425
a(g424
F-9.155264185637238e-05
tp426
aa(lp427
(g424
F-9.155264185637238e-05
tp428
ag2
(g6
S'\xe4Q\xf7|\xe3\xdd\xdc<'
p429
tp430
Rp431
aI596419368
aF1.0
aF-9.521953686526611e-05
ag2
(g6
S"xJ':\xd1\x08i@"
p432
tp433
Rp434
a(g2
(g6
S'\x0c\x9c\xedK\xd1\x08i@'
p435
tp436
Rp437
g424
tp438
a(g437
F-9.059692356027673e-05
tp439
aa(lp440
(g437
F-9.059692356027673e-05
tp441
ag2
(g6
S'u+/a\xe3\xdd\xdc<'
p442
tp443
Rp444
aI595665044
aF1.0
aF-9.569727402127704e-05
ag2
(g6
S'V,\xae]\xd1\x08i@'
p445
tp446
Rp447
a(g2
(g6
S'\xa0\xbcno\xd1\x08i@'
p448
tp449
Rp450
g437
tp451
a(g450
F-8.964241406782425e-05
tp452
aa(lp453
(g450
F-8.964241406782425e-05
tp454
ag2
(g6
S'\xaaCNE\xe3\xdd\xdc<'
p455
tp456
Rp457
aI594618906
aF1.0
aF-9.617399350456967e-05
ag2
(g6
S"\xadQ'\x81\xd1\x08i@"
p458
tp459
Rp460
a(g2
(g6
S'\xba\xe6\xdf\x92\xd1\x08i@'
p461
tp462
Rp463
g450
tp464
a(g463
F-8.868958098954637e-05
tp465
aa(lp466
(g463
F-8.868958098954637e-05
tp467
ag2
(g6
S'\xb3\xafT)\xe3\xdd\xdc<'
p468
tp469
Rp470
aI593877028
aF1.0
aF-9.6649990118329e-05
ag2
(g6
S'\xcc\xd2\x92\xa4\xd1\x08i@'
p471
tp472
Rp473
a(g2
(g6
S'\xde\xbeE\xb6\xd1\x08i@'
p474
tp475
Rp476
g463
tp477
a(g476
F-8.773793677118785e-05
tp478
aa(lp479
(g476
F-8.773793677118785e-05
tp480
ag2
(g6
S'Y:/\r\xe3\xdd\xdc<'
p481
tp482
Rp483
aI596019398
aF1.0
aF-9.712654884170202e-05
ag2
(g6
S'A\x03\t\xc8\xd1\x08i@'
p484
tp485
Rp486
a(g2
(g6
S'\xa4G\xcc\xd9\xd1\x08i@'
p487
tp488
Rp489
g476
tp490
a(g489
F-8.678285961812393e-05
tp491
aa(lp492
(g489
F-8.678285961812393e-05
tp493
ag2
(g6
S'\tC\xd9\xf0\xe2\xdd\xdc<'
p494
tp495
Rp496
aI596019399
aF1.0
aF-9.760411755798134e-05
ag2
(g6
S'\x08\x8c\x8f\xeb\xd1\x08i@'
p497
tp498
Rp499
a(g2
(g6
S'k\xd0R\xfd\xd1\x08i@'
p500
tp501
Rp502
g489
tp503
a(g502
F-8.582778251933757e-05
tp504
aa(lp505
(g502
F-8.582778251933757e-05
tp506
ag2
(g6
S'\xe80h\xd4\xe2\xdd\xdc<'
p507
tp508
Rp509
aI594638532
aF1.0
aF-9.808111001245394e-05
ag2
(g6
S'\xcd\x8b\x0b\x0f\xd2\x08i@'
p510
tp511
Rp512
a(g2
(g6
S'/G\xc4 \xd2\x08i@'
p513
tp514
Rp515
g502
tp516
a(g515
F-8.48749182139652e-05
tp517
aa(lp518
(g515
F-8.48749182139652e-05
tp519
ag2
(g6
S'*\xa9\xe0\xb7\xe2\xdd\xdc<'
p520
tp521
Rp522
aI593903017
aF1.0
aF-9.855726537523936e-05
ag2
(g6
S'\x04fw2\xd2\x08i@'
p523
tp524
Rp525
a(g2
(g6
S'\xd8\x84*D\xd2\x08i@'
p526
tp527
Rp528
g515
tp529
a(g528
F-8.392323257308982e-05
tp530
aa(lp531
(g528
F-8.392323257308982e-05
tp532
ag2
(g6
S'\xd5t0\x9b\xe2\xdd\xdc<'
p533
tp534
Rp535
aI595493793
aF1.0
aF-9.903383864423132e-05
ag2
(g6
S'\xa8\xc6\xe9U\xd2\x08i@'
p536
tp537
Rp538
a(g2
(g6
S'y\x08\xa9g\xd2\x08i@'
p539
tp540
Rp541
g528
tp542
a(g541
F-8.296899788790381e-05
tp543
aa(lp544
(g541
F-8.296899788790381e-05
tp545
ag2
(g6
S'<JW~\xe2\xdd\xdc<'
p546
tp547
Rp548
aI594796380
aF1.0
aF-9.951072363637664e-05
ag2
(g6
S"'\xf8by\xd2\x08i@"
p549
tp550
Rp551
a(g2
(g6
S'\xd5\xe7\x1c\x8b\xd2\x08i@'
p552
tp553
Rp554
g541
tp555
a(g554
F-8.20158808121553e-05
tp556
aa(lp557
(g554
F-8.20158808121553e-05
tp558
ag2
(g6
S'v\xa9Za\xe2\xdd\xdc<'
p559
tp560
Rp561
aI595490750
aF1.0
aF-9.998733278875455e-05
ag2
(g6
S'\xb4#\xdc\x9c\xd2\x08i@'
p562
tp563
Rp564
a(g2
(g6
S'\x93_\x9b\xae\xd2\x08i@'
p565
tp566
Rp567
g554
tp568
a(g567
F-8.10616511171047e-05
tp569
aa(lp570
(g567
F-8.10616511171047e-05
tp571
ag2
(g6
S'\xdd\x8c:D\xe2\xdd\xdc<'
p572
tp573
Rp574
aI594799423
aF1.0
aF-0.00010046421315727702
ag2
(g6
S'2UU\xc0\xd2\x08i@'
p575
tp576
Rp577
a(g2
(g6
S'\xd2J\x0f\xd2\xd2\x08i@'
p578
tp579
Rp580
g567
tp581
a(g580
F-8.010852927954089e-05
tp582
aa(lp583
(g580
F-8.010852927954089e-05
tp584
ag2
(g6
S'\xbd\xe4\xf6&\xe2\xdd\xdc<'
p585
tp586
Rp587
aI595501537
aF1.0
aF-0.0001009410782007481
ag2
(g6
S'\xc2\x9b\xce\xe3\xd2\x08i@'
p588
tp589
Rp590
a(g2
(g6
S'\xb3\xec\x8d\xf5\xd2\x08i@'
p591
tp592
Rp593
g580
tp594
a(g593
F-7.915428241417218e-05
tp595
aa(lp596
(g593
F-7.915428241417218e-05
tp597
ag2
(g6
S' \xd6\x8f\t\xe2\xdd\xdc<'
p598
tp599
Rp600
aI594788635
aF1.0
aF-0.00010141784720986084
ag2
(g6
S'@\xcdG\x07\xd3\x08i@'
p601
tp602
Rp603
a(g2
(g6
S'\xce\xad\x01\x19\xd3\x08i@'
p604
tp605
Rp606
g593
tp607
a(g606
F-7.820117797903181e-05
tp608
aa(lp609
(g606
F-7.820117797903181e-05
tp610
ag2
(g6
S'\x15\x93\x07\xec\xe1\xdd\xdc<'
p611
tp612
Rp613
aI595145086
aF1.0
aF-0.00010189473656991081
ag2
(g6
S'\x8dF\xbe*\xd3\x08i@'
p614
tp615
Rp616
a(g2
(g6
S'L\xdfz<\xd3\x08i@'
p617
tp618
Rp619
g606
tp620
a(g619
F-7.7247502415898e-05
tp621
aa(lp622
(g619
F-7.7247502415898e-05
tp623
ag2
(g6
S'%\x95Y\xce\xe1\xdd\xdc<'
p624
tp625
Rp626
aI595145087
aF1.0
aF-0.00010237143586145698
ag2
(g6
S'\x0cx7N\xd3\x08i@'
p627
tp628
Rp629
a(g2
(g6
S'\xcb\x10\xf4_\xd3\x08i@'
p630
tp631
Rp632
g619
tp633
a(g632
F-7.629382690960605e-05
tp634
aa(lp635
(g632
F-7.629382690960605e-05
tp636
ag2
(g6
S'#\xe0\x85\xb0\xe1\xdd\xdc<'
p637
tp638
Rp639
aI595493605
aF1.0
aF-0.00010284814529889916
ag2
(g6
S'>R\xb3q\xd3\x08i@'
p640
tp641
Rp642
a(g2
(g6
S'\xb0\x93r\x83\xd3\x08i@'
p643
tp644
Rp645
g632
tp646
a(g645
F-7.53395929880446e-05
tp647
aa(lp648
(g645
F-7.53395929880446e-05
tp649
ag2
(g6
S'\x16\xef\x90\x92\xe1\xdd\xdc<'
p650
tp651
Rp652
aI594796568
aF1.0
aF-0.00010332512414208064
ag2
(g6
S'\xbc\x83,\x95\xd3\x08i@'
p653
tp654
Rp655
a(g2
(g6
S'\xc8s\xe6\xa6\xd3\x08i@'
p656
tp657
Rp658
g645
tp659
a(g658
F-7.438647607504885e-05
tp660
aa(lp661
(g658
F-7.438647607504885e-05
tp662
ag2
(g6
S'\xf0\x84xt\xe1\xdd\xdc<'
p663
tp664
Rp665
aI595492175
aF1.0
aF-0.00010380187368277777
ag2
(g6
S'p\xb2\xa5\xb8\xd3\x08i@'
p666
tp667
Rp668
a(g2
(g6
S'\x17\xf1d\xca\xd3\x08i@'
p669
tp670
Rp671
g658
tp672
a(g671
F-7.343224456327725e-05
tp673
aa(lp674
(g671
F-7.343224456327725e-05
tp675
ag2
(g6
S'\x80\xa2<V\xe1\xdd\xdc<'
p676
tp677
Rp678
aI594797997
aF1.0
aF-0.00010427876058016948
ag2
(g6
S'\xee\xe3\x1e\xdc\xd3\x08i@'
p679
tp680
Rp681
a(g2
(g6
S'\xc4\xd6\xd8\xed\xd3\x08i@'
p682
tp683
Rp684
g671
tp685
a(g684
F-7.247912547914546e-05
tp686
aa(lp687
(g684
F-7.247912547914546e-05
tp688
ag2
(g6
S'\xdc\x8a\xdf7\xe1\xdd\xdc<'
p689
tp690
Rp691
aI595145086
aF1.0
aF-0.00010475531331784593
ag2
(g6
S'\x83o\x95\xff\xd3\x08i@'
p692
tp693
Rp694
a(g2
(g6
S'B\x08R\x11\xd4\x08i@'
p695
tp696
Rp697
g684
tp698
a(g697
F-7.152545027077016e-05
tp699
aa(lp700
(g697
F-7.152545027077016e-05
tp701
ag2
(g6
S'\xf7\xb7\\\x19\xe1\xdd\xdc<'
p702
tp703
Rp704
aI595145087
aF1.0
aF-0.00010523220206704216
ag2
(g6
S'\x02\xa1\x0e#\xd4\x08i@'
p705
tp706
Rp707
a(g2
(g6
S'\xc19\xcb4\xd4\x08i@'
p708
tp709
Rp710
g697
tp711
a(g710
F-7.057177512087384e-05
tp712
aa(lp713
(g710
F-7.057177512087384e-05
tp714
ag2
(g6
S';\xf9\xb1\xfa\xe0\xdd\xdc<'
p715
tp716
Rp717
aI595818013
aF1.0
aF-0.00010570920399839795
ag2
(g6
S'\xd0\xf4\x8cF\xd4\x08i@'
p718
tp719
Rp720
a(g2
(g6
S'\xde\xafNX\xd4\x08i@'
p721
tp722
Rp723
g710
tp724
a(g723
F-6.961702171823312e-05
tp725
aa(lp726
(g723
F-6.961702171823312e-05
tp727
ag2
(g6
S'a1\xe8\xdb\xe0\xdd\xdc<'
p728
tp729
Rp730
aI594472160
aF1.0
aF-0.00010618629685074296
ag2
(g6
S'N&\x06j\xd4\x08i@'
p731
tp732
Rp733
a(g2
(g6
S'\xbe\x9c\xbd{\xd4\x08i@'
p734
tp735
Rp736
g723
tp737
a(g736
F-6.866442500401925e-05
tp738
aa(lp739
(g736
F-6.866442500401925e-05
tp740
ag2
(g6
S'\xe0j\xff\xbc\xe0\xdd\xdc<'
p741
tp742
Rp743
aI595145086
aF1.0
aF-0.00010666268026190891
ag2
(g6
S'}5z\x8d\xd4\x08i@'
p744
tp745
Rp746
a(g2
(g6
S'<\xce6\x9f\xd4\x08i@'
p747
tp748
Rp749
g736
tp750
a(g749
F-6.771075003760666e-05
tp751
aa(lp752
(g749
F-6.771075003760666e-05
tp753
ag2
(g6
S'9\xb4\xee\x9d\xe0\xdd\xdc<'
p754
tp755
Rp756
aI595145087
aF1.0
aF-0.00010713956900469538
ag2
(g6
S'\xfcf\xf3\xb0\xd4\x08i@'
p757
tp758
Rp759
a(g2
(g6
S'\xbb\xff\xaf\xc2\xd4\x08i@'
p760
tp761
Rp762
g749
tp763
a(g762
F-6.675707513076448e-05
tp764
aa(lp765
(g762
F-6.675707513076448e-05
tp766
ag2
(g6
S'\\K\xb8~\xe0\xdd\xdc<'
p767
tp768
Rp769
aI595475929
aF1.0
aF-0.00010761651980713533
ag2
(g6
S'\xa8\x1eo\xd4\xd4\x08i@'
p770
tp771
Rp772
a(g2
(g6
S'\x94=.\xe6\xd4\x08i@'
p773
tp774
Rp775
g762
tp776
a(g775
F-6.580287013618268e-05
tp777
aa(lp778
(g775
F-6.580287013618268e-05
tp779
ag2
(g6
S'J\xa2`_\xe0\xdd\xdc<'
p780
tp781
Rp782
aI594814244
aF1.0
aF-0.0001080935601163936
ag2
(g6
S'&P\xe8\xf7\xd4\x08i@'
p783
tp784
Rp785
a(g2
(g6
S'\xb8b\xa2\t\xd5\x08i@'
p786
tp787
Rp788
g775
tp789
a(g788
F-6.484972550329237e-05
tp790
aa(lp791
(g788
F-6.484972550329237e-05
tp792
ag2
(g6
S'\xf3}\xe5?\xe0\xdd\xdc<'
p793
tp794
Rp795
aI595476137
aF1.0
aF-0.0001085702981732616
ag2
(g6
S'\x0c\x82a\x1b\xd5\x08i@'
p796
tp797
Rp798
a(g2
(g6
S'a\xa1 -\xd5\x08i@'
p799
tp800
Rp801
g788
tp802
a(g801
F-6.38955202991852e-05
tp803
aa(lp804
(g801
F-6.38955202991852e-05
tp805
ag2
(g6
S'\x1a\xe3F \xe0\xdd\xdc<'
p806
tp807
Rp808
aI594814036
aF1.0
aF-0.00010904695846057653
ag2
(g6
S'\x8b\xb3\xda>\xd5\x08i@'
p809
tp810
Rp811
a(g2
(g6
S'\xb5\xc5\x94P\xd5\x08i@'
p812
tp813
Rp814
g801
tp815
a(g814
F-6.294237612378573e-05
tp816
aa(lp817
(g814
F-6.294237612378573e-05
tp818
ag2
(g6
S'\t\xf2\x85\x00\xe0\xdd\xdc<'
p819
tp820
Rp821
aI595309242
aF1.0
aF-0.0001095238382716086
ag2
(g6
S'\x12\x9fRb\xd5\x08i@'
p822
tp823
Rp824
a(g2
(g6
S'ox\x10t\xd5\x08i@'
p825
tp826
Rp827
g814
tp828
a(g827
F-6.198843848104531e-05
tp829
aa(lp830
(g2
(g6
S'\xb2(\x87\x97\xd5\x08i@'
p831
tp832
Rp833
F-6.103502699442738e-05
tp834
ag2
(g6
S'\xb4f\xa0\xe0\xdf\xdd\xdc<'
p835
tp836
Rp837
aI594980931
aF1.0
aF-0.00011000056863757202
ag2
(g6
S'\x90\xd0\xcb\x85\xd5\x08i@'
p838
tp839
Rp840
a(g833
g827
tp841
a(g827
F-6.198843848104531e-05
tp842
aa(lp843
(g833
F-6.103502699442738e-05
tp844
ag2
(g6
S'\xcf3\x9f\xc8\xdf\xdd\xdc<'
p845
tp846
Rp847
aI297572543
aF1.0
aF-0.0001103578603066154
ag2
(g6
S'\x12ue\xa0\xd5\x08i@'
p848
tp849
Rp850
a(g2
(g6
S'q\xc1C\xa9\xd5\x08i@'
p851
tp852
Rp853
g833
tp854
a(g853
F-6.055818975182986e-05
tp855
aa(lp856
(g853
F-6.055818975182986e-05
tp857
ag2
(g6
S'E\xd3\x91\xb8\xdf\xdd\xdc<'
p858
tp859
Rp860
aI297572543
aF1.0
aF-0.00011059658905892685
ag2
(g6
S'\xd0\r"\xb2\xd5\x08i@'
p861
tp862
Rp863
a(g2
(g6
S'0Z\x00\xbb\xd5\x08i@'
p864
tp865
Rp866
g853
tp867
a(g866
F-6.008135252503715e-05
tp868
aa(lp869
(g866
F-6.008135252503715e-05
tp870
ag2
(g6
S'\x8e\x95{\xa8\xdf\xdd\xdc<'
p871
tp872
Rp873
aI297572544
aF1.0
aF-0.00011083455919725869
ag2
(g6
S'\x90\xa6\xde\xc3\xd5\x08i@'
p874
tp875
Rp876
a(g2
(g6
S'\xf0\xf2\xbc\xcc\xd5\x08i@'
p877
tp878
Rp879
g866
tp880
a(g879
F-5.960451531248092e-05
tp881
aa(lp882
(g879
F-5.960451531248092e-05
tp883
ag2
(g6
S'\xcex\\\x98\xdf\xdd\xdc<'
p884
tp885
Rp886
aI297572543
aF1.0
aF-0.00011107328869449478
ag2
(g6
S'P?\x9b\xd5\xd5\x08i@'
p887
tp888
Rp889
a(g2
(g6
S'\xaf\x8by\xde\xd5\x08i@'
p890
tp891
Rp892
g879
tp893
a(g892
F-5.912767811740013e-05
tp894
aa(lp895
(g892
F-5.912767811740013e-05
tp896
ag2
(g6
S'o~4\x88\xdf\xdd\xdc<'
p897
tp898
Rp899
aI297572543
aF1.0
aF-0.00011131163851227875
ag2
(g6
S'\x0e\xd8W\xe7\xd5\x08i@'
p900
tp901
Rp902
a(g2
(g6
S'n$6\xf0\xd5\x08i@'
p903
tp904
Rp905
g892
tp906
a(g905
F-5.865084093822645e-05
tp907
aa(lp908
(g905
F-5.865084093822645e-05
tp909
ag2
(g6
S'\x8b\xa5\x03x\xdf\xdd\xdc<'
p910
tp911
Rp912
aI297572544
aF1.0
aF-0.00011154998758032966
ag2
(g6
S'\xcep\x14\xf9\xd5\x08i@'
p913
tp914
Rp915
a(g2
(g6
S'.\xbd\xf2\x01\xd6\x08i@'
p916
tp917
Rp918
g905
tp919
a(g918
F-5.817400377339158e-05
tp920
aa(lp921
(g918
F-5.817400377339158e-05
tp922
ag2
(g6
S'\x80\xee\xc9g\xdf\xdd\xdc<'
p923
tp924
Rp925
aI297572543
aF1.0
aF-0.0001117883381478467
ag2
(g6
S'\x8e\t\xd1\n\xd6\x08i@'
p926
tp927
Rp928
a(g2
(g6
S'\xedU\xaf\x13\xd6\x08i@'
p929
tp930
Rp931
g918
tp932
a(g931
F-5.769716662613447e-05
tp933
aa(lp934
(g931
F-5.769716662613447e-05
tp935
ag2
(g6
S'eY\x87W\xdf\xdd\xdc<'
p936
tp937
Rp938
aI297572543
aF1.0
aF-0.00011202668796563066
ag2
(g6
S'L\xa2\x8d\x1c\xd6\x08i@'
p939
tp940
Rp941
a(g2
(g6
S'\xac\xeek%\xd6\x08i@'
p942
tp943
Rp944
g931
tp945
a(g944
F-5.722032949488679e-05
tp946
aa(lp947
(g944
F-5.722032949488679e-05
tp948
ag2
(g6
S'\xbd\xe5;G\xdf\xdd\xdc<'
p949
tp950
Rp951
aI297572543
aF1.0
aF-0.00011226503778341463
ag2
(g6
S'\x0c;J.\xd6\x08i@'
p952
tp953
Rp954
a(g2
(g6
S'k\x87(7\xd6\x08i@'
p955
tp956
Rp957
g944
tp958
a(g957
F-5.674349237968266e-05
tp959
aa(lp960
(g957
F-5.674349237968266e-05
tp961
ag2
(g6
S'q\x94\xe76\xdf\xdd\xdc<'
p962
tp963
Rp964
aI297572543
aF1.0
aF-0.00011250376653572608
ag2
(g6
S'\xca\xd3\x06@\xd6\x08i@'
p965
tp966
Rp967
a(g2
(g6
S'* \xe5H\xd6\x08i@'
p968
tp969
Rp970
g957
tp971
a(g970
F-5.626665528055618e-05
tp972
aa(lp973
(g970
F-5.626665528055618e-05
tp974
ag2
(g6
S'2d\x8a&\xdf\xdd\xdc<'
p975
tp976
Rp977
aI297572544
aF1.0
aF-0.00011274211559576464
ag2
(g6
S'\x8al\xc3Q\xd6\x08i@'
p978
tp979
Rp980
a(g2
(g6
S'\xea\xb8\xa1Z\xd6\x08i@'
p981
tp982
Rp983
g970
tp984
a(g983
F-5.5789818195939044e-05
tp985
aa(lp986
(g983
F-5.5789818195939044e-05
tp987
ag2
(g6
S'\xaaV$\x16\xdf\xdd\xdc<'
p988
tp989
Rp990
aI297572543
aF1.0
aF-0.0001129808451058215
ag2
(g6
S'J\x05\x80c\xd6\x08i@'
p991
tp992
Rp993
a(g2
(g6
S'\xa9Q^l\xd6\x08i@'
p994
tp995
Rp996
g983
tp997
a(g996
F-5.531298112907019e-05
tp998
aa(lp999
(g996
F-5.531298112907019e-05
tp1000
ag2
(g6
S'.j\xb5\x05\xdf\xdd\xdc<'
p1001
tp1002
Rp1003
aI297572543
aF1.0
aF-0.000113218815989078
ag2
(g6
S'\x08\x9e<u\xd6\x08i@'
p1004
tp1005
Rp1006
a(g2
(g6
S'h\xea\x1a~\xd6\x08i@'
p1007
tp1008
Rp1009
g996
tp1010
a(g1009
F-5.483614407838131e-05
tp1011
aa(lp1012
(g1009
F-5.483614407838131e-05
tp1013
ag2
(g6
S'\x1d\xa0=\xf5\xde\xdd\xdc<'
p1014
tp1015
Rp1016
aI297572544
aF1.0
aF-0.00011345716504431065
ag2
(g6
S'\xc86\xf9\x86\xd6\x08i@'
p1017
tp1018
Rp1019
a(g2
(g6
S'(\x83\xd7\x8f\xd6\x08i@'
p1020
tp1021
Rp1022
g1009
tp1023
a(g1022
F-5.435930704230408e-05
tp1024
aa(lp1025
(g1022
F-5.435930704230408e-05
tp1026
ag2
(g6
S'a\xf7\xbc\xe4\xde\xdd\xdc<'
p1027
tp1028
Rp1029
aI297572543
aF1.0
aF-0.00011369551562464593
ag2
(g6
S'\x88\xcf\xb5\x98\xd6\x08i@'
p1030
tp1031
Rp1032
a(g2
(g6
S'\xe7\x1b\x94\xa1\xd6\x08i@'
p1033
tp1034
Rp1035
g1022
tp1036
a(g1035
F-5.3882470024077456e-05
tp1037
aa(lp1038
(g1035
F-5.3882470024077456e-05
tp1039
ag2
(g6
S'*p3\xd4\xde\xdd\xdc<'
p1040
tp1041
Rp1042
aI297572543
aF1.0
aF-0.0001139338654424299
ag2
(g6
S'Fhr\xaa\xd6\x08i@'
p1043
tp1044
Rp1045
a(g2
(g6
S'\xa6\xb4P\xb3\xd6\x08i@'
p1046
tp1047
Rp1048
g1035
tp1049
a(g1048
F-5.340563302213313e-05
tp1050
aa(lp1051
(g1048
F-5.340563302213313e-05
tp1052
ag2
(g6
S'n\xec\x9f\xc3\xde\xdd\xdc<'
p1053
tp1054
Rp1055
aI297729767
aF1.0
aF-0.00011417279485725803
ag2
(g6
S'\x1a40\xbc\xd6\x08i@'
p1056
tp1057
Rp1058
a(g2
(g6
S'\x8d\xb3\x0f\xc5\xd6\x08i@'
p1059
tp1060
Rp1061
g1048
tp1062
a(g1061
F-5.2928544097209364e-05
tp1063
aa(lp1064
(g1061
F-5.2928544097209364e-05
tp1065
ag2
(g6
S'\xd7h\x02\xb3\xde\xdd\xdc<'
p1066
tp1067
Rp1068
aI297729767
aF1.0
aF-0.00011441127154220413
ag2
(g6
S'\x003\xef\xcd\xd6\x08i@'
p1069
tp1070
Rp1071
a(g2
(g6
S't\xb2\xce\xd6\xd6\x08i@'
p1072
tp1073
Rp1074
g1061
tp1075
a(g1074
F-5.24514551886534e-05
tp1076
aa(lp1077
(g1074
F-5.24514551886534e-05
tp1078
ag2
(g6
S'>F^\xa2\xde\xdd\xdc<'
p1079
tp1080
Rp1081
aI297415320
aF1.0
aF-0.0001146495322931782
ag2
(g6
S'\xc0\xcb\xab\xdf\xd6\x08i@'
p1082
tp1083
Rp1084
a(g2
(g6
S'\x0c\xe5\x88\xe8\xd6\x08i@'
p1085
tp1086
Rp1087
g1074
tp1088
a(g1087
F-5.1974870173454005e-05
tp1089
aa(lp1090
(g1087
F-5.1974870173454005e-05
tp1091
ag2
(g6
S'Q\x86\xb3\x91\xde\xdd\xdc<'
p1092
tp1093
Rp1094
aI297415319
aF1.0
aF-0.00011488813494841867
ag2
(g6
S'X\xfee\xf1\xd6\x08i@'
p1095
tp1096
Rp1097
a(g2
(g6
S'\xa3\x17C\xfa\xd6\x08i@'
p1098
tp1099
Rp1100
g1087
tp1101
a(g1100
F-5.149828517625843e-05
tp1102
aa(lp1103
(g1100
F-5.149828517625843e-05
tp1104
ag2
(g6
S'\x02\xca\xfe\x80\xde\xdd\xdc<'
p1105
tp1106
Rp1107
aI297572543
aF1.0
aF-0.00011512637240040471
ag2
(g6
S'\x02d!\x03\xd7\x08i@'
p1108
tp1109
Rp1110
a(g2
(g6
S'b\xb0\xff\x0b\xd7\x08i@'
p1111
tp1112
Rp1113
g1100
tp1114
a(g1113
F-5.102144825623715e-05
tp1115
aa(lp1116
(g1113
F-5.102144825623715e-05
tp1117
ag2
(g6
S'\xdc\r@p\xde\xdd\xdc<'
p1118
tp1119
Rp1120
aI297572544
aF1.0
aF-0.00011536434250829166
ag2
(g6
S'\xc2\xfc\xdd\x14\xd7\x08i@'
p1121
tp1122
Rp1123
a(g2
(g6
S'"I\xbc\x1d\xd7\x08i@'
p1124
tp1125
Rp1126
g1113
tp1127
a(g1126
F-5.0544611351100375e-05
tp1128
aa(lp1129
(g1126
F-5.0544611351100375e-05
tp1130
ag2
(g6
S'qsx_\xde\xdd\xdc<'
p1131
tp1132
Rp1133
aI297572543
aF1.0
aF-0.00011560307203597264
ag2
(g6
S'\x82\x95\x9a&\xd7\x08i@'
p1134
tp1135
Rp1136
a(g2
(g6
S'\xe1\xe1x/\xd7\x08i@'
p1137
tp1138
Rp1139
g1126
tp1140
a(g1139
F-5.0067774464087066e-05
tp1141
aa(lp1142
(g1139
F-5.0067774464087066e-05
tp1143
ag2
(g6
S'w\xfb\xa7N\xde\xdd\xdc<'
p1144
tp1145
Rp1146
aI297572543
aF1.0
aF-0.00011584142185375662
ag2
(g6
S'@.W8\xd7\x08i@'
p1147
tp1148
Rp1149
a(g2
(g6
S'\xa0z5A\xd7\x08i@'
p1150
tp1151
Rp1152
g1139
tp1153
a(g1152
F-4.959093759362889e-05
tp1154
aa(lp1155
(g1152
F-4.959093759362889e-05
tp1156
ag2
(g6
S'\xf2\xa4\xce=\xde\xdd\xdc<'
p1157
tp1158
Rp1159
aI297572543
aF1.0
aF-0.00011607977167154059
ag2
(g6
S'\x00\xc7\x13J\xd7\x08i@'
p1160
tp1161
Rp1162
a(g2
(g6
S'_\x13\xf2R\xd7\x08i@'
p1163
tp1164
Rp1165
g1152
tp1166
a(g1165
F-4.911410073975997e-05
tp1167
aa(lp1168
(g1165
F-4.911410073975997e-05
tp1169
ag2
(g6
S'\xe1o\xec,\xde\xdd\xdc<'
p1170
tp1171
Rp1172
aI297572543
aF1.0
aF-0.00011631812148932456
ag2
(g6
S'\xbe_\xd0[\xd7\x08i@'
p1173
tp1174
Rp1175
a(g2
(g6
S'\x1e\xac\xaed\xd7\x08i@'
p1176
tp1177
Rp1178
g1165
tp1179
a(g1178
F-4.8637263902514406e-05
tp1180
aa(lp1181
(g1178
F-4.8637263902514406e-05
tp1182
ag2
(g6
S'+]\x01\x1c\xde\xdd\xdc<'
p1183
tp1184
Rp1185
aI297572543
aF1.0
aF-0.00011655685024163601
ag2
(g6
S'~\xf8\x8cm\xd7\x08i@'
p1186
tp1187
Rp1188
a(g2
(g6
S'\xddDkv\xd7\x08i@'
p1189
tp1190
Rp1191
g1178
tp1192
a(g1191
F-4.81604270819263e-05
tp1193
aa(lp1194
(g1191
F-4.81604270819263e-05
tp1195
ag2
(g6
S']l\r\x0b\xde\xdd\xdc<'
p1196
tp1197
Rp1198
aI297572543
aF1.0
aF-0.0001167948211248925
ag2
(g6
S'<\x91I\x7f\xd7\x08i@'
p1199
tp1200
Rp1201
a(g2
(g6
S"\x9c\xdd'\x88\xd7\x08i@"
p1202
tp1203
Rp1204
g1191
tp1205
a(g1204
F-4.768359027802976e-05
tp1206
aa(lp1207
(g1204
F-4.768359027802976e-05
tp1208
ag2
(g6
S'W}\x0f\xfa\xdd\xdd\xdc<'
p1209
tp1210
Rp1211
aI297725881
aF1.0
aF-0.00011703340624251932
ag2
(g6
S'xU\x07\x91\xd7\x08i@'
p1212
tp1213
Rp1214
a(g2
(g6
S'U\xcd\xe6\x99\xd7\x08i@'
p1215
tp1216
Rp1217
g1204
tp1218
a(g1217
F-4.720650777867978e-05
tp1219
aa(lp1220
(g1217
F-4.720650777867978e-05
tp1221
ag2
(g6
S'\xfb\x8f\x07\xe9\xdd\xdd\xdc<'
p1222
tp1223
Rp1224
aI297725881
aF1.0
aF-0.00011727226769713456
ag2
(g6
S'2E\xc6\xa2\xd7\x08i@'
p1225
tp1226
Rp1227
a(g2
(g6
S'\x0e\xbd\xa5\xab\xd7\x08i@'
p1228
tp1229
Rp1230
g1217
tp1231
a(g1230
F-4.672942529610688e-05
tp1232
aa(lp1233
(g1230
F-4.672942529610688e-05
tp1234
ag2
(g6
S'\xdd\x02\xf9\xd7\xdd\xdd\xdc<'
p1235
tp1236
Rp1237
aI297419206
aF1.0
aF-0.00011751082210065116
ag2
(g6
S'\xf1\xdd\x82\xb4\xd7\x08i@'
p1238
tp1239
Rp1240
a(g2
(g6
S'\xd4\xfe_\xbd\xd7\x08i@'
p1241
tp1242
Rp1243
g1230
tp1244
a(g1243
F-4.625283425306639e-05
tp1245
aa(lp1246
(g1243
F-4.625283425306639e-05
tp1247
ag2
(g6
S'\x15\xd9\xe3\xc6\xdd\xdd\xdc<'
p1248
tp1249
Rp1250
aI297419205
aF1.0
aF-0.00011774865988943275
ag2
(g6
S'\xb6\x1f=\xc6\xd7\x08i@'
p1251
tp1252
Rp1253
a(g2
(g6
S'\x99@\x1a\xcf\xd7\x08i@'
p1254
tp1255
Rp1256
g1243
tp1257
a(g1256
F-4.5776243228439e-05
tp1258
aa(lp1259
(g1256
F-4.5776243228439e-05
tp1260
ag2
(g6
S'\xc4\xb1\xc4\xb5\xdd\xdd\xdc<'
p1261
tp1262
Rp1263
aI297572543
aF1.0
aF-0.00011798694914833982
ag2
(g6
S'\xf8\x8c\xf8\xd7\xd7\x08i@'
p1264
tp1265
Rp1266
a(g2
(g6
S'X\xd9\xd6\xe0\xd7\x08i@'
p1267
tp1268
Rp1269
g1256
tp1270
a(g1269
F-4.52994065085119e-05
tp1271
aa(lp1272
(g1269
F-4.52994065085119e-05
tp1273
ag2
(g6
S'-\x8b\x9b\xa4\xdd\xdd\xdc<'
p1274
tp1275
Rp1276
aI297572544
aF1.0
aF-0.00011822529817152562
ag2
(g6
S'\xb8%\xb5\xe9\xd7\x08i@'
p1277
tp1278
Rp1279
a(g2
(g6
S'\x18r\x93\xf2\xd7\x08i@'
p1280
tp1281
Rp1282
g1269
tp1283
a(g1282
F-4.4822569803878586e-05
tp1284
aa(lp1285
(g1282
F-4.4822569803878586e-05
tp1286
ag2
(g6
S' \x87i\x93\xdd\xdd\xdc<'
p1287
tp1288
Rp1289
aI297572543
aF1.0
aF-0.00011846364878390776
ag2
(g6
S'x\xbeq\xfb\xd7\x08i@'
p1290
tp1291
Rp1292
a(g2
(g6
S'\xd7\nP\x04\xd8\x08i@'
p1293
tp1294
Rp1295
g1282
tp1296
a(g1295
F-4.4345733117778e-05
tp1297
aa(lp1298
(g1295
F-4.4345733117778e-05
tp1299
ag2
(g6
S'6\xa4.\x82\xdd\xdd\xdc<'
p1300
tp1301
Rp1302
aI297572543
aF1.0
aF-0.00011870199860169174
ag2
(g6
S'6W.\r\xd8\x08i@'
p1303
tp1304
Rp1305
a(g2
(g6
S'\x96\xa3\x0c\x16\xd8\x08i@'
p1306
tp1307
Rp1308
g1295
tp1309
a(g1308
F-4.386889644864184e-05
tp1310
aa(lp1311
(g1308
F-4.386889644864184e-05
tp1312
ag2
(g6
S'\xa7\xe3\xeap\xdd\xdd\xdc<'
p1313
tp1314
Rp1315
aI297572543
aF1.0
aF-0.00011894072735400318
ag2
(g6
S'\xf6\xef\xea\x1e\xd8\x08i@'
p1316
tp1317
Rp1318
a(g2
(g6
S"U<\xc9'\xd8\x08i@"
p1319
tp1320
Rp1321
g1308
tp1322
a(g1321
F-4.33920597965042e-05
tp1323
aa(lp1324
(g1321
F-4.33920597965042e-05
tp1325
ag2
(g6
S'\x19D\x9e_\xdd\xdd\xdc<'
p1326
tp1327
Rp1328
aI297572543
aF1.0
aF-0.00011917907717178715
ag2
(g6
S'\xb4\x88\xa70\xd8\x08i@'
p1329
tp1330
Rp1331
a(g2
(g6
S'\x14\xd5\x859\xd8\x08i@'
p1332
tp1333
Rp1334
g1321
tp1335
a(g1334
F-4.29152231613992e-05
tp1336
aa(lp1337
(g1334
F-4.29152231613992e-05
tp1338
ag2
(g6
S'Z\xc7HN\xdd\xdd\xdc<'
p1339
tp1340
Rp1341
aI297572543
aF1.0
aF-0.0001194178059240986
ag2
(g6
S't!dB\xd8\x08i@'
p1342
tp1343
Rp1344
a(g2
(g6
S'\xd3mBK\xd8\x08i@'
p1345
tp1346
Rp1347
g1334
tp1348
a(g1347
F-4.2438386543360934e-05
tp1349
aa(lp1350
(g1347
F-4.2438386543360934e-05
tp1351
ag2
(g6
S'\x9ck\xea<\xdd\xdd\xdc<'
p1352
tp1353
Rp1354
aI297572543
aF1.0
aF-0.00011965577680735509
ag2
(g6
S'2\xba T\xd8\x08i@'
p1355
tp1356
Rp1357
a(g2
(g6
S'\x92\x06\xff\\\xd8\x08i@'
p1358
tp1359
Rp1360
g1347
tp1361
a(g1360
F-4.1961549942423516e-05
tp1362
aa(lp1363
(g1360
F-4.1961549942423516e-05
tp1364
ag2
(g6
S'92\x83+\xdd\xdd\xdc<'
p1365
tp1366
Rp1367
aI297572543
aF1.0
aF-0.00011989450555966653
ag2
(g6
S'\xf2R\xdde\xd8\x08i@'
p1368
tp1369
Rp1370
a(g2
(g6
S'Q\x9f\xbbn\xd8\x08i@'
p1371
tp1372
Rp1373
g1360
tp1374
a(g1373
F-4.1484713358621046e-05
tp1375
aa(lp1376
(g1373
F-4.1484713358621046e-05
tp1377
ag2
(g6
S'\xbd\x1a\x13\x1a\xdd\xdd\xdc<'
p1378
tp1379
Rp1380
aI297572543
aF1.0
aF-0.0001201328553774505
ag2
(g6
S'\xb0\xeb\x99w\xd8\x08i@'
p1381
tp1382
Rp1383
a(g2
(g6
S'\x108x\x80\xd8\x08i@'
p1384
tp1385
Rp1386
g1373
tp1387
a(g1386
F-4.100787679198763e-05
tp1388
aa(lp1389
(g1386
F-4.100787679198763e-05
tp1390
ag2
(g6
S'n$\x9a\x08\xdd\xdd\xdc<'
p1391
tp1392
Rp1393
aI297572544
aF1.0
aF-0.00012037120438621356
ag2
(g6
S'p\x84V\x89\xd8\x08i@'
p1394
tp1395
Rp1396
a(g2
(g6
S'\xd0\xd04\x92\xd8\x08i@'
p1397
tp1398
Rp1399
g1386
tp1400
a(g1399
F-4.053104024095496e-05
tp1401
aa(lp1402
(g1399
F-4.053104024095496e-05
tp1403
ag2
(g6
S'#P\x18\xf7\xdc\xdd\xdc<'
p1404
tp1405
Rp1406
aI297572543
aF1.0
aF-0.00012060955501301845
ag2
(g6
S'0\x1d\x13\x9b\xd8\x08i@'
p1407
tp1408
Rp1409
a(g2
(g6
S'\x8fi\xf1\xa3\xd8\x08i@'
p1410
tp1411
Rp1412
g1399
tp1413
a(g1412
F-4.005420370876198e-05
tp1414
aa(lp1415
(g1412
F-4.005420370876198e-05
tp1416
ag2
(g6
S'\xec\x9d\x8d\xe5\xdc\xdd\xdc<'
p1417
tp1418
Rp1419
aI297572543
aF1.0
aF-0.00012084790483080241
ag2
(g6
S'\xee\xb5\xcf\xac\xd8\x08i@'
p1420
tp1421
Rp1422
a(g2
(g6
S'N\x02\xae\xb5\xd8\x08i@'
p1423
tp1424
Rp1425
g1412
tp1426
a(g1425
F-3.957736719384038e-05
tp1427
aa(lp1428
(g1425
F-3.957736719384038e-05
tp1429
ag2
(g6
S'W\r\xfa\xd3\xdc\xdd\xdc<'
p1430
tp1431
Rp1432
aI297572544
aF1.0
aF-0.0001210862538347596
ag2
(g6
S'\xaeN\x8c\xbe\xd8\x08i@'
p1433
tp1434
Rp1435
a(g2
(g6
S'\x0e\x9bj\xc7\xd8\x08i@'
p1436
tp1437
Rp1438
g1425
tp1439
a(g1438
F-3.910053069462184e-05
tp1440
aa(lp1441
(g1438
F-3.910053069462184e-05
tp1442
ag2
(g6
S'\xc1\x9e]\xc2\xdc\xdd\xdc<'
p1443
tp1444
Rp1445
aI297572543
aF1.0
aF-0.00012132498340089783
ag2
(g6
S'n\xe7H\xd0\xd8\x08i@'
p1446
tp1447
Rp1448
a(g2
(g6
S"\xcd3'\xd9\xd8\x08i@"
p1449
tp1450
Rp1451
g1438
tp1452
a(g1451
F-3.862369421434531e-05
tp1453
aa(lp1454
(g1451
F-3.862369421434531e-05
tp1455
ag2
(g6
S'ZQ\xb8\xb0\xdc\xdd\xdc<'
p1456
tp1457
Rp1458
aI297572543
aF1.0
aF-0.00012156295428415433
ag2
(g6
S',\x80\x05\xe2\xd8\x08i@'
p1459
tp1460
Rp1461
a(g2
(g6
S'\x8c\xcc\xe3\xea\xd8\x08i@'
p1462
tp1463
Rp1464
g1451
tp1465
a(g1464
F-3.814685775144248e-05
tp1466
aa(lp1467
(g1464
F-3.814685775144248e-05
tp1468
ag2
(g6
S'\xb4\x06\t\x9f\xdc\xdd\xdc<'
p1469
tp1470
Rp1471
aI297720245
aF1.0
aF-0.00012180199770438838
ag2
(g6
S'f9\xc3\xf3\xd8\x08i@'
p1472
tp1473
Rp1474
a(g2
(g6
S'A\xa6\xa2\xfc\xd8\x08i@'
p1475
tp1476
Rp1477
g1464
tp1478
a(g1477
F-3.766978462518828e-05
tp1479
aa(lp1480
(g1477
F-3.766978462518828e-05
tp1481
ag2
(g6
S'\xe3\xbbO\x8d\xdc\xdd\xdc<'
p1482
tp1483
Rp1484
aI297720245
aF1.0
aF-0.00012204011108536522
ag2
(g6
S'\x1c\x13\x82\x05\xd9\x08i@'
p1485
tp1486
Rp1487
a(g2
(g6
S'\xf6\x7fa\x0e\xd9\x08i@'
p1488
tp1489
Rp1490
g1477
tp1491
a(g1490
F-3.719271151639333e-05
tp1492
aa(lp1493
(g1490
F-3.719271151639333e-05
tp1494
ag2
(g6
S'\xe8\xd2\x8f{\xdc\xdd\xdc<'
p1495
tp1496
Rp1497
aI297424842
aF1.0
aF-0.00012227885936967497
ag2
(g6
S'\xdb\xab>\x17\xd9\x08i@'
p1498
tp1499
Rp1500
a(g2
(g6
S'\xc0\xd7\x1b \xd9\x08i@'
p1501
tp1502
Rp1503
g1490
tp1504
a(g1503
F-3.671611178497298e-05
tp1505
aa(lp1506
(g1503
F-3.671611178497298e-05
tp1507
ag2
(g6
S'\xbaN\xc9i\xdc\xdd\xdc<'
p1508
tp1509
Rp1510
aI297424841
aF1.0
aF-0.00012251706748786872
ag2
(g6
S'\xa4\x03\xf9(\xd9\x08i@'
p1511
tp1512
Rp1513
a(g2
(g6
S'\x89/\xd61\xd9\x08i@'
p1514
tp1515
Rp1516
g1503
tp1517
a(g1516
F-3.623951207264781e-05
tp1518
aa(lp1519
(g1516
F-3.623951207264781e-05
tp1520
ag2
(g6
S'F\xcc\xf8W\xdc\xdd\xdc<'
p1521
tp1522
Rp1523
aI297572543
aF1.0
aF-0.00012275508230760165
ag2
(g6
S'\xe8{\xb4:\xd9\x08i@'
p1524
tp1525
Rp1526
a(g2
(g6
S'H\xc8\x92C\xd9\x08i@'
p1527
tp1528
Rp1529
g1516
tp1530
a(g1529
F-3.576267569712505e-05
tp1531
aa(lp1532
(g1529
F-3.576267569712505e-05
tp1533
ag2
(g6
S'\x10J\x1eF\xdc\xdd\xdc<'
p1534
tp1535
Rp1536
aI297572544
aF1.0
aF-0.0001229934312987406
ag2
(g6
S'\xa8\x14qL\xd9\x08i@'
p1537
tp1538
Rp1539
a(g2
(g6
S'\x08aOU\xd9\x08i@'
p1540
tp1541
Rp1542
g1529
tp1543
a(g1542
F-3.5285839337578205e-05
tp1544
aa(lp1545
(g1542
F-3.5285839337578205e-05
tp1546
ag2
(g6
S'\xc9\xe9:4\xdc\xdd\xdc<'
p1547
tp1548
Rp1549
aI297572543
aF1.0
aF-0.00012323216087769707
ag2
(g6
S'h\xad-^\xd9\x08i@'
p1550
tp1551
Rp1552
a(g2
(g6
S'\xc7\xf9\x0bg\xd9\x08i@'
p1553
tp1554
Rp1555
g1542
tp1556
a(g1555
F-3.480900299724622e-05
tp1557
aa(lp1558
(g1555
F-3.480900299724622e-05
tp1559
ag2
(g6
S'-\xabN"\xdc\xdd\xdc<'
p1560
tp1561
Rp1562
aI297572543
aF1.0
aF-0.00012347051069548103
ag2
(g6
S'&F\xeao\xd9\x08i@'
p1563
tp1564
Rp1565
a(g2
(g6
S'\x86\x92\xc8x\xd9\x08i@'
p1566
tp1567
Rp1568
g1555
tp1569
a(g1568
F-3.4332166674560786e-05
tp1570
aa(lp1571
(g1568
F-3.4332166674560786e-05
tp1572
ag2
(g6
S'\xddmX\x10\xdc\xdd\xdc<'
p1573
tp1574
Rp1575
aI297718432
aF1.0
aF-0.00012370916854591337
ag2
(g6
S'\xd6\xfb\xa7\x81\xd9\x08i@'
p1576
tp1577
Rp1578
a(g2
(g6
S'&e\x87\x8a\xd9\x08i@'
p1579
tp1580
Rp1581
g1568
tp1582
a(g1581
F-3.3855096594054716e-05
tp1583
aa(lp1584
(g1581
F-3.3855096594054716e-05
tp1585
ag2
(g6
S'\xd6/X\xfe\xdb\xdd\xdc<'
p1586
tp1587
Rp1588
aI297718433
aF1.0
aF-0.0001239476625575463
ag2
(g6
S'v\xcef\x93\xd9\x08i@'
p1589
tp1590
Rp1591
a(g2
(g6
S'\xc77F\x9c\xd9\x08i@'
p1592
tp1593
Rp1594
g1581
tp1595
a(g1594
F-3.3378026529678375e-05
tp1596
aa(lp1597
(g1594
F-3.3378026529678375e-05
tp1598
ag2
(g6
S']UQ\xec\xdb\xdd\xdc<'
p1599
tp1600
Rp1601
aI297426654
aF1.0
aF-0.00012418603905155188
ag2
(g6
S'6g#\xa5\xd9\x08i@'
p1602
tp1603
Rp1604
a(g2
(g6
S'\xa5\x96\x00\xae\xd9\x08i@'
p1605
tp1606
Rp1607
g1594
tp1608
a(g1607
F-3.2901424035638514e-05
tp1609
aa(lp1610
(g1607
F-3.2901424035638514e-05
tp1611
ag2
(g6
S'\x87\xe1C\xda\xdb\xdd\xdc<'
p1612
tp1613
Rp1614
aI297426654
aF1.0
aF-0.00012442386413710491
ag2
(g6
S'\x14\xc6\xdd\xb6\xd9\x08i@'
p1615
tp1616
Rp1617
a(g2
(g6
S'\x83\xf5\xba\xbf\xd9\x08i@'
p1618
tp1619
Rp1620
g1607
tp1621
a(g1620
F-3.2424821559364206e-05
tp1622
aa(lp1623
(g1620
F-3.2424821559364206e-05
tp1624
ag2
(g6
S'An,\xc8\xdb\xdd\xdc<'
p1625
tp1626
Rp1627
aI297572543
aF1.0
aF-0.00012466263871892838
ag2
(g6
S'\xe2A\x99\xc8\xd9\x08i@'
p1628
tp1629
Rp1630
a(g2
(g6
S'B\x8ew\xd1\xd9\x08i@'
p1631
tp1632
Rp1633
g1620
tp1634
a(g1633
F-3.19479853254231e-05
tp1635
aa(lp1636
(g1633
F-3.19479853254231e-05
tp1637
ag2
(g6
S'\xde\xfa\n\xb6\xdb\xdd\xdc<'
p1638
tp1639
Rp1640
aI297572544
aF1.0
aF-0.0001249006087627216
ag2
(g6
S'\xa2\xdaU\xda\xd9\x08i@'
p1641
tp1642
Rp1643
a(g2
(g6
S"\x02'4\xe3\xd9\x08i@"
p1644
tp1645
Rp1646
g1633
tp1647
a(g1646
F-3.147114910773075e-05
tp1648
aa(lp1649
(g1646
F-3.147114910773075e-05
tp1650
ag2
(g6
S'\xe6\xa8\xe0\xa3\xdb\xdd\xdc<'
p1651
tp1652
Rp1653
aI297572543
aF1.0
aF-0.0001251393383544963
ag2
(g6
S'bs\x12\xec\xd9\x08i@'
p1654
tp1655
Rp1656
a(g2
(g6
S'\xc1\xbf\xf0\xf4\xd9\x08i@'
p1657
tp1658
Rp1659
g1646
tp1660
a(g1659
F-3.099431290952612e-05
tp1661
aa(lp1662
(g2
(g6
S'\x80X\xad\x06\xda\x08i@'
p1663
tp1664
Rp1665
F-3.051747672924088e-05
tp1666
ag2
(g6
S'\x15y\xad\x91\xdb\xdd\xdc<'
p1667
tp1668
Rp1669
aI297572543
aF1.0
aF-0.00012537806710680776
ag2
(g6
S' \x0c\xcf\xfd\xd9\x08i@'
p1670
tp1671
Rp1672
a(g1665
g1659
tp1673
a(g1659
F-3.099431290952612e-05
tp1674
aa(lp1675
(g1665
F-3.051747672924088e-05
tp1676
ag2
(g6
S'\xf2jq\x7f\xdb\xdd\xdc<'
p1677
tp1678
Rp1679
aI297572543
aF1.0
aF-0.00012561622745732798
ag2
(g6
S'\xe0\xa4\x8b\x0f\xda\x08i@'
p1680
tp1681
Rp1682
a(g2
(g6
S'?\xf1i\x18\xda\x08i@'
p1683
tp1684
Rp1685
g1665
tp1686
a(g1685
F-3.0040640566909148e-05
tp1687
aa(lp1688
(g1685
F-3.0040640566909148e-05
tp1689
ag2
(g6
S'\xb6~,m\xdb\xdd\xdc<'
p1690
tp1691
Rp1692
aI297572543
aF1.0
aF-0.00012585457727511197
ag2
(g6
S'\x9e=H!\xda\x08i@'
p1693
tp1694
Rp1695
a(g2
(g6
S'\xfe\x89&*\xda\x08i@'
p1696
tp1697
Rp1698
g1685
tp1699
a(g1698
F-2.9563804422565023e-05
tp1700
aa(lp1701
(g1698
F-2.9563804422565023e-05
tp1702
ag2
(g6
S'2\xb4\xdeZ\xdb\xdd\xdc<'
p1703
tp1704
Rp1705
aI297572544
aF1.0
aF-0.00012609273677815656
ag2
(g6
S'^\xd6\x043\xda\x08i@'
p1706
tp1707
Rp1708
a(g2
(g6
S'\xbe"\xe3;\xda\x08i@'
p1709
tp1710
Rp1711
g1698
tp1712
a(g1711
F-2.9086968294640194e-05
tp1713
aa(lp1714
(g1711
F-2.9086968294640194e-05
tp1715
ag2
(g6
S'I\x0b\x88H\xdb\xdd\xdc<'
p1716
tp1717
Rp1718
aI297572543
aF1.0
aF-0.00012633127691067989
ag2
(g6
S'\x1eo\xc1D\xda\x08i@'
p1719
tp1720
Rp1721
a(g2
(g6
S'}\xbb\x9fM\xda\x08i@'
p1722
tp1723
Rp1724
g1711
tp1725
a(g1724
F-2.861013218637361e-05
tp1726
aa(lp1727
(g1724
F-2.861013218637361e-05
tp1728
ag2
(g6
S'\x8b\x84(6\xdb\xdd\xdc<'
p1729
tp1730
Rp1731
aI297572543
aF1.0
aF-0.0001265698161957276
ag2
(g6
S'\xdc\x07~V\xda\x08i@'
p1732
tp1733
Rp1734
a(g2
(g6
S'<T\\_\xda\x08i@'
p1735
tp1736
Rp1737
g1724
tp1738
a(g1737
F-2.8133296096196955e-05
tp1739
aa(lp1740
(g1737
F-2.8133296096196955e-05
tp1741
ag2
(g6
S'\x87\x1f\xc0#\xdb\xdd\xdc<'
p1742
tp1743
Rp1744
aI297572544
aF1.0
aF-0.00012680835462849
ag2
(g6
S'\x9c\xa0:h\xda\x08i@'
p1745
tp1746
Rp1747
a(g2
(g6
S'\xfc\xec\x18q\xda\x08i@'
p1748
tp1749
Rp1750
g1737
tp1751
a(g1750
F-2.7656460022541914e-05
tp1752
aa(lp1753
(g1750
F-2.7656460022541914e-05
tp1754
ag2
(g6
S'R\xdcN\x11\xdb\xdd\xdc<'
p1755
tp1756
Rp1757
aI297572543
aF1.0
aF-0.00012704651583129555
ag2
(g6
S'\\9\xf7y\xda\x08i@'
p1758
tp1759
Rp1760
a(g2
(g6
S'\xbb\x85\xd5\x82\xda\x08i@'
p1761
tp1762
Rp1763
g1750
tp1764
a(g1763
F-2.7179623968647433e-05
tp1765
aa(lp1766
(g1763
F-2.7179623968647433e-05
tp1767
ag2
(g6
S'\x9e\xba\xd4\xfe\xda\xdd\xdc<'
p1768
tp1769
Rp1770
aI297572543
aF1.0
aF-0.00012728486564907951
ag2
(g6
S'\x1a\xd2\xb3\x8b\xda\x08i@'
p1771
tp1772
Rp1773
a(g2
(g6
S'z\x1e\x92\x94\xda\x08i@'
p1774
tp1775
Rp1776
g1763
tp1777
a(g1776
F-2.6702787932945204e-05
tp1778
aa(lp1779
(g1776
F-2.6702787932945204e-05
tp1780
ag2
(g6
S'F\xbbQ\xec\xda\xdd\xdc<'
p1781
tp1782
Rp1783
aI297572543
aF1.0
aF-0.00012752340493412724
ag2
(g6
S'\xdajp\x9d\xda\x08i@'
p1784
tp1785
Rp1786
a(g2
(g6
S'9\xb7N\xa6\xda\x08i@'
p1787
tp1788
Rp1789
g1776
tp1790
a(g1789
F-2.6225951915469325e-05
tp1791
aa(lp1792
(g1789
F-2.6225951915469325e-05
tp1793
ag2
(g6
S'a\xdd\xc5\xd9\xda\xdd\xdc<'
p1794
tp1795
Rp1796
aI297572543
aF1.0
aF-0.0001277617547519112
ag2
(g6
S'\x98\x03-\xaf\xda\x08i@'
p1797
tp1798
Rp1799
a(g2
(g6
S'\xf8O\x0b\xb8\xda\x08i@'
p1800
tp1801
Rp1802
g1789
tp1803
a(g1802
F-2.5749115916253908e-05
tp1804
aa(lp1805
(g1802
F-2.5749115916253908e-05
tp1806
ag2
(g6
S'v!1\xc7\xda\xdd\xdc<'
p1807
tp1808
Rp1809
aI297572544
aF1.0
aF-0.00012800010370940003
ag2
(g6
S'X\x9c\xe9\xc0\xda\x08i@'
p1810
tp1811
Rp1812
a(g2
(g6
S'\xb8\xe8\xc7\xc9\xda\x08i@'
p1813
tp1814
Rp1815
g1802
tp1816
a(g1815
F-2.5272279933730636e-05
tp1817
aa(lp1818
(g1815
F-2.5272279933730636e-05
tp1819
ag2
(g6
S'\x16\x87\x93\xb4\xda\xdd\xdc<'
p1820
tp1821
Rp1822
aI297572543
aF1.0
aF-0.00012823864385474288
ag2
(g6
S'\x185\xa6\xd2\xda\x08i@'
p1823
tp1824
Rp1825
a(g2
(g6
S'w\x81\x84\xdb\xda\x08i@'
p1826
tp1827
Rp1828
g1815
tp1829
a(g1828
F-2.479544397113846e-05
tp1830
aa(lp1831
(g1828
F-2.479544397113846e-05
tp1832
ag2
(g6
S'\xe9\x0e\xed\xa1\xda\xdd\xdc<'
p1833
tp1834
Rp1835
aI297572543
aF1.0
aF-0.00012847699367252684
ag2
(g6
S'\xd6\xcdb\xe4\xda\x08i@'
p1836
tp1837
Rp1838
a(g2
(g6
S'6\x1aA\xed\xda\x08i@'
p1839
tp1840
Rp1841
g1828
tp1842
a(g1841
F-2.431860802690906e-05
tp1843
aa(lp1844
(g1841
F-2.431860802690906e-05
tp1845
ag2
(g6
S'E\xb8=\x8f\xda\xdd\xdc<'
p1846
tp1847
Rp1848
aI297572544
aF1.0
aF-0.00012871534262520854
ag2
(g6
S'\x96f\x1f\xf6\xda\x08i@'
p1849
tp1850
Rp1851
a(g2
(g6
S'\xf6\xb2\xfd\xfe\xda\x08i@'
p1852
tp1853
Rp1854
g1841
tp1855
a(g1854
F-2.384177209947413e-05
tp1856
aa(lp1857
(g1854
F-2.384177209947413e-05
tp1858
ag2
(g6
S'\x99\x83\x85|\xda\xdd\xdc<'
p1859
tp1860
Rp1861
aI297572543
aF1.0
aF-0.00012895388277535852
ag2
(g6
S'V\xff\xdb\x07\xdb\x08i@'
p1862
tp1863
Rp1864
a(g2
(g6
S'\xb5K\xba\x10\xdb\x08i@'
p1865
tp1866
Rp1867
g1854
tp1868
a(g1867
F-2.3364936192072607e-05
tp1869
aa(lp1870
(g1867
F-2.3364936192072607e-05
tp1871
ag2
(g6
S'\xb0p\xc4i\xda\xdd\xdc<'
p1872
tp1873
Rp1874
aI297572543
aF1.0
aF-0.00012919223259314248
ag2
(g6
S'\x14\x98\x98\x19\xdb\x08i@'
p1875
tp1876
Rp1877
a(g2
(g6
S't\xe4v"\xdb\x08i@'
p1878
tp1879
Rp1880
g1867
tp1881
a(g1880
F-2.2888100303136184e-05
tp1882
aa(lp1883
(g1880
F-2.2888100303136184e-05
tp1884
ag2
(g6
S'\xaf\x7f\xfaV\xda\xdd\xdc<'
p1885
tp1886
Rp1887
aI297572543
aF1.0
aF-0.00012943058241092647
ag2
(g6
S'\xd40U+\xdb\x08i@'
p1888
tp1889
Rp1890
a(g2
(g6
S'3}34\xdb\x08i@'
p1891
tp1892
Rp1893
g1880
tp1894
a(g1893
F-2.2411264432698963e-05
tp1895
aa(lp1896
(g1893
F-2.2411264432698963e-05
tp1897
ag2
(g6
S'"\xb0\'D\xda\xdd\xdc<'
p1898
tp1899
Rp1900
aI297572543
aF1.0
aF-0.00012966893222871042
ag2
(g6
S'\x92\xc9\x11=\xdb\x08i@'
p1901
tp1902
Rp1903
a(g2
(g6
S'\xf2\x15\xf0E\xdb\x08i@'
p1904
tp1905
Rp1906
g1893
tp1907
a(g1906
F-2.1934428580795057e-05
tp1908
aa(lp1909
(g1906
F-2.1934428580795057e-05
tp1910
ag2
(g6
S'\n\x03L1\xda\xdd\xdc<'
p1911
tp1912
Rp1913
aI297572544
aF1.0
aF-0.0001299074706406435
ag2
(g6
S'Rb\xceN\xdb\x08i@'
p1914
tp1915
Rp1916
a(g2
(g6
S'\xb2\xae\xacW\xdb\x08i@'
p1917
tp1918
Rp1919
g1906
tp1920
a(g1919
F-2.1457592745856143e-05
tp1921
aa(lp1922
(g1919
F-2.1457592745856143e-05
tp1923
ag2
(g6
S'2wg\x1e\xda\xdd\xdc<'
p1924
tp1925
Rp1926
aI297572543
aF1.0
aF-0.0001301458213315421
ag2
(g6
S'\x12\xfb\x8a`\xdb\x08i@'
p1927
tp1928
Rp1929
a(g2
(g6
S'qGii\xdb\x08i@'
p1930
tp1931
Rp1932
g1919
tp1933
a(g1932
F-2.0980756931121175e-05
tp1934
aa(lp1935
(g1932
F-2.0980756931121175e-05
tp1936
ag2
(g6
S']\rz\x0b\xda\xdd\xdc<'
p1937
tp1938
Rp1939
aI297572543
aF1.0
aF-0.00013038417114932607
ag2
(g6
S'\xd0\x93Gr\xdb\x08i@'
p1940
tp1941
Rp1942
a(g2
(g6
S'0\xe0%{\xdb\x08i@'
p1943
tp1944
Rp1945
g1932
tp1946
a(g1945
F-2.0503921135021835e-05
tp1947
aa(lp1948
(g1945
F-2.0503921135021835e-05
tp1949
ag2
(g6
S'R\xc5\x83\xf8\xd9\xdd\xdc<'
p1950
tp1951
Rp1952
aI297572544
aF1.0
aF-0.000130622709556452
ag2
(g6
S'\x90,\x04\x84\xdb\x08i@'
p1953
tp1954
Rp1955
a(g2
(g6
S'\xf0x\xe2\x8c\xdb\x08i@'
p1956
tp1957
Rp1958
g1945
tp1959
a(g1958
F-2.0027085355989813e-05
tp1960
aa(lp1961
(g1958
F-2.0027085355989813e-05
tp1962
ag2
(g6
S'/\x9f\x84\xe5\xd9\xdd\xdc<'
p1963
tp1964
Rp1965
aI297572543
aF1.0
aF-0.00013086106025215775
ag2
(g6
S'P\xc5\xc0\x95\xdb\x08i@'
p1966
tp1967
Rp1968
a(g2
(g6
S'\xaf\x11\x9f\x9e\xdb\x08i@'
p1969
tp1970
Rp1971
g1958
tp1972
a(g1971
F-1.955024959726405e-05
tp1973
aa(lp1974
(g1971
F-1.955024959726405e-05
tp1975
ag2
(g6
S'\xd7\x9a|\xd2\xd9\xdd\xdc<'
p1976
tp1977
Rp1978
aI297572543
aF1.0
aF-0.00013109941006994173
ag2
(g6
S'\x0e^}\xa7\xdb\x08i@'
p1979
tp1980
Rp1981
a(g2
(g6
S'n\xaa[\xb0\xdb\x08i@'
p1982
tp1983
Rp1984
g1971
tp1985
a(g1984
F-1.9073413857276237e-05
tp1986
aa(lp1987
(g1984
F-1.9073413857276237e-05
tp1988
ag2
(g6
S'-\xb8k\xbf\xd9\xdd\xdc<'
p1989
tp1990
Rp1991
aI297572543
aF1.0
aF-0.0001313377598877257
ag2
(g6
S'\xce\xf69\xb9\xdb\x08i@'
p1992
tp1993
Rp1994
a(g2
(g6
S'-C\x18\xc2\xdb\x08i@'
p1995
tp1996
Rp1997
g1984
tp1998
a(g1997
F-1.859657813606048e-05
tp1999
aa(lp2000
(g1997
F-1.859657813606048e-05
tp2001
ag2
(g6
S'j\xf7Q\xac\xd9\xdd\xdc<'
p2002
tp2003
Rp2004
aI297572543
aF1.0
aF-0.00013157629917277342
ag2
(g6
S'\x8c\x8f\xf6\xca\xdb\x08i@'
p2005
tp2006
Rp2007
a(g2
(g6
S'\xec\xdb\xd4\xd3\xdb\x08i@'
p2008
tp2009
Rp2010
g1997
tp2011
a(g2010
F-1.811974243365088e-05
tp2012
aa(lp2013
(g2010
F-1.811974243365088e-05
tp2014
ag2
(g6
S'\xb3X/\x99\xd9\xdd\xdc<'
p2015
tp2016
Rp2017
aI297572544
aF1.0
aF-0.0001318146481046245
ag2
(g6
S'L(\xb3\xdc\xdb\x08i@'
p2018
tp2019
Rp2020
a(g2
(g6
S'\xact\x91\xe5\xdb\x08i@'
p2021
tp2022
Rp2023
g2010
tp2024
a(g2023
F-1.764290674847913e-05
tp2025
aa(lp2026
(g2023
F-1.764290674847913e-05
tp2027
ag2
(g6
S'd\xdb\x03\x86\xd9\xdd\xdc<'
p2028
tp2029
Rp2030
aI297572543
aF1.0
aF-0.00013205299880834133
ag2
(g6
S'\x0c\xc1o\xee\xdb\x08i@'
p2031
tp2032
Rp2033
a(g2
(g6
S'k\rN\xf7\xdb\x08i@'
p2034
tp2035
Rp2036
g2023
tp2037
a(g2036
F-1.716607108378417e-05
tp2038
aa(lp2039
(g2036
F-1.716607108378417e-05
tp2040
ag2
(g6
S'Y\x80\xcfr\xd9\xdd\xdc<'
p2041
tp2042
Rp2043
aI297572543
aF1.0
aF-0.00013229153809338906
ag2
(g6
S'\xcaY,\x00\xdc\x08i@'
p2044
tp2045
Rp2046
a(g2
(g6
S'*\xa6\n\t\xdc\x08i@'
p2047
tp2048
Rp2049
g2036
tp2050
a(g2049
F-1.668923543799769e-05
tp2051
aa(lp2052
(g2049
F-1.668923543799769e-05
tp2053
ag2
(g6
S'\xaeF\x92_\xd9\xdd\xdc<'
p2054
tp2055
Rp2056
aI297572544
aF1.0
aF-0.00013252969755317054
ag2
(g6
S'\x8a\xf2\xe8\x11\xdc\x08i@'
p2057
tp2058
Rp2059
a(g2
(g6
S'\xea>\xc7\x1a\xdc\x08i@'
p2060
tp2061
Rp2062
g2049
tp2063
a(g2062
F-1.6212399809551378e-05
tp2064
aa(lp2065
(g2062
F-1.6212399809551378e-05
tp2066
ag2
(g6
S'\x13/LL\xd9\xdd\xdc<'
p2067
tp2068
Rp2069
aI297572543
aF1.0
aF-0.00013276842719622074
ag2
(g6
S'J\x8b\xa5#\xdc\x08i@'
p2070
tp2071
Rp2072
a(g2
(g6
S'\xa9\xd7\x83,\xdc\x08i@'
p2073
tp2074
Rp2075
g2062
tp2076
a(g2075
F-1.5735564201684176e-05
tp2077
aa(lp2078
(g2
(g6
S'hp@>\xdc\x08i@'
p2079
tp2080
Rp2081
F-1.5258728612827773e-05
tp2082
ag2
(g6
S'/9\xfd8\xd9\xdd\xdc<'
p2083
tp2084
Rp2085
aI297572543
aF1.0
aF-0.0001330067770140047
ag2
(g6
S'\x08$b5\xdc\x08i@'
p2086
tp2087
Rp2088
a(g2081
g2075
tp2089
a(g2075
F-1.5735564201684176e-05
tp2090
aa(lp2091
(g2081
F-1.5258728612827773e-05
tp2092
ag2
(g6
S'Pe\xa5%\xd9\xdd\xdc<'
p2093
tp2094
Rp2095
aI297572543
aF1.0
aF-0.00013324512683178869
ag2
(g6
S'\xc8\xbc\x1eG\xdc\x08i@'
p2096
tp2097
Rp2098
a(g2
(g6
S"'\t\xfdO\xdc\x08i@"
p2099
tp2100
Rp2101
g2081
tp2102
a(g2101
F-1.4781893043016273e-05
tp2103
aa(lp2104
(g2101
F-1.4781893043016273e-05
tp2105
ag2
(g6
S'\x02\xb3D\x12\xd9\xdd\xdc<'
p2106
tp2107
Rp2108
aI297572543
aF1.0
aF-0.0001334835713832045
ag2
(g6
S'\x86U\xdbX\xdc\x08i@'
p2109
tp2110
Rp2111
a(g2
(g6
S'\xe6\xa1\xb9a\xdc\x08i@'
p2112
tp2113
Rp2114
g2101
tp2115
a(g2114
F-1.4305057492283784e-05
tp2116
aa(lp2117
(g2114
F-1.4305057492283784e-05
tp2118
ag2
(g6
S'\xc7"\xdb\xfe\xd8\xdd\xdc<'
p2119
tp2120
Rp2121
aI297572544
aF1.0
aF-0.00013372192030223674
ag2
(g6
S'F\xee\x97j\xdc\x08i@'
p2122
tp2123
Rp2124
a(g2
(g6
S'\xa6:vs\xdc\x08i@'
p2125
tp2126
Rp2127
g2114
tp2128
a(g2127
F-1.3828221959061992e-05
tp2129
aa(lp2130
(g2127
F-1.3828221959061992e-05
tp2131
ag2
(g6
S'\x1d\xb4h\xeb\xd8\xdd\xdc<'
p2132
tp2133
Rp2134
aI297572543
aF1.0
aF-0.00013396036575240433
ag2
(g6
S'\x06\x87T|\xdc\x08i@'
p2135
tp2136
Rp2137
a(g2
(g6
S'e\xd32\x85\xdc\x08i@'
p2138
tp2139
Rp2140
g2127
tp2141
a(g2140
F-1.3351386446589843e-05
tp2142
aa(lp2143
(g2140
F-1.3351386446589843e-05
tp2144
ag2
(g6
S'ig\xed\xd7\xd8\xdd\xdc<'
p2145
tp2146
Rp2147
aI297572543
aF1.0
aF-0.00013419871557018829
ag2
(g6
S'\xc4\x1f\x11\x8e\xdc\x08i@'
p2148
tp2149
Rp2150
a(g2
(g6
S'$l\xef\x96\xdc\x08i@'
p2151
tp2152
Rp2153
g2140
tp2154
a(g2153
F-1.2874550953299023e-05
tp2155
aa(lp2156
(g2153
F-1.2874550953299023e-05
tp2157
ag2
(g6
S'v<i\xc4\xd8\xdd\xdc<'
p2158
tp2159
Rp2160
aI297572544
aF1.0
aF-0.00013443725395167647
ag2
(g6
S'\x84\xb8\xcd\x9f\xdc\x08i@'
p2161
tp2162
Rp2163
a(g2
(g6
S'\xe4\x04\xac\xa8\xdc\x08i@'
p2164
tp2165
Rp2166
g2153
tp2167
a(g2166
F-1.239771547762122e-05
tp2168
aa(lp2169
(g2166
F-1.239771547762122e-05
tp2170
ag2
(g6
S'c3\xdc\xb0\xd8\xdd\xdc<'
p2171
tp2172
Rp2173
aI297572543
aF1.0
aF-0.00013467560467301997
ag2
(g6
S'DQ\x8a\xb1\xdc\x08i@'
p2174
tp2175
Rp2176
a(g2
(g6
S'\xa3\x9dh\xba\xdc\x08i@'
p2177
tp2178
Rp2179
g2166
tp2180
a(g2179
F-1.1920880022795378e-05
tp2181
aa(lp2182
(g2179
F-1.1920880022795378e-05
tp2183
ag2
(g6
S'-LF\x9d\xd8\xdd\xdc<'
p2184
tp2185
Rp2186
aI297572543
aF1.0
aF-0.0001349140492244358
ag2
(g6
S'\x02\xeaF\xc3\xdc\x08i@'
p2187
tp2188
Rp2189
a(g2
(g6
S'b6%\xcc\xdc\x08i@'
p2190
tp2191
Rp2192
g2179
tp2193
a(g2192
F-1.1444044587253182e-05
tp2194
aa(lp2195
(g2192
F-1.1444044587253182e-05
tp2196
ag2
(g6
S'\xc2\x86\xa7\x89\xd8\xdd\xdc<'
p2197
tp2198
Rp2199
aI297572543
aF1.0
aF-0.00013515239904221977
ag2
(g6
S'\xc2\x82\x03\xd5\xdc\x08i@'
p2200
tp2201
Rp2202
a(g2
(g6
S'!\xcf\xe1\xdd\xdc\x08i@'
p2203
tp2204
Rp2205
g2192
tp2206
a(g2205
F-1.0967209171028739e-05
tp2207
aa(lp2208
(g2205
F-1.0967209171028739e-05
tp2209
ag2
(g6
S'\x05\xe3\xffu\xd8\xdd\xdc<'
p2210
tp2211
Rp2212
aI297572543
aF1.0
aF-0.0001353908435936356
ag2
(g6
S'\x80\x1b\xc0\xe6\xdc\x08i@'
p2213
tp2214
Rp2215
a(g2
(g6
S'\xe0g\x9e\xef\xdc\x08i@'
p2216
tp2217
Rp2218
g2205
tp2219
a(g2218
F-1.0490373774156158e-05
tp2220
aa(lp2221
(g2218
F-1.0490373774156158e-05
tp2222
ag2
(g6
S'GaOb\xd8\xdd\xdc<'
p2223
tp2224
Rp2225
aI297572544
aF1.0
aF-0.00013562919249984897
ag2
(g6
S'@\xb4|\xf8\xdc\x08i@'
p2226
tp2227
Rp2228
a(g2
(g6
S'\xa0\x00[\x01\xdd\x08i@'
p2229
tp2230
Rp2231
g2218
tp2232
a(g2231
F-1.0013538395067126e-05
tp2233
aa(lp2234
(g2231
F-1.0013538395067126e-05
tp2235
ag2
(g6
S'B\x01\x96N\xd8\xdd\xdc<'
p2236
tp2237
Rp2238
aI297572543
aF1.0
aF-0.00013586754322920356
ag2
(g6
S'\x00M9\n\xdd\x08i@'
p2239
tp2240
Rp2241
a(g2
(g6
S'_\x99\x17\x13\xdd\x08i@'
p2242
tp2243
Rp2244
g2231
tp2245
a(g2244
F-9.536703037000584e-06
tp2246
aa(lp2247
(g2244
F-9.536703037000584e-06
tp2248
ag2
(g6
S'\x1f\xc3\xd3:\xd8\xdd\xdc<'
p2249
tp2250
Rp2251
aI297572543
aF1.0
aF-0.00013610608251425128
ag2
(g6
S'\xbe\xe5\xf5\x1b\xdd\x08i@'
p2252
tp2253
Rp2254
a(g2
(g6
S'\x1e2\xd4$\xdd\x08i@'
p2255
tp2256
Rp2257
g2244
tp2258
a(g2257
F-9.05986769838822e-06
tp2259
aa(lp2260
(g2257
F-9.05986769838822e-06
tp2261
ag2
(g6
S"\xc5\xa6\x08'\xd8\xdd\xdc<"
p2262
tp2263
Rp2264
aI297572544
aF1.0
aF-0.00013634443141565748
ag2
(g6
S'~~\xb2-\xdd\x08i@'
p2265
tp2266
Rp2267
a(g2
(g6
S'\xde\xca\x906\xdd\x08i@'
p2268
tp2269
Rp2270
g2257
tp2271
a(g2270
F-8.583032377661725e-06
tp2272
aa(lp2273
(g2270
F-8.583032377661725e-06
tp2274
ag2
(g6
S';\xac4\x13\xd8\xdd\xdc<'
p2275
tp2276
Rp2277
aI297572543
aF1.0
aF-0.00013658287688345108
ag2
(g6
S'>\x17o?\xdd\x08i@'
p2278
tp2279
Rp2280
a(g2
(g6
S'\x9dcMH\xdd\x08i@'
p2281
tp2282
Rp2283
g2270
tp2284
a(g2283
F-8.106197078060038e-06
tp2285
aa(lp2286
(g2
(g6
S'\\\xfc\tZ\xdd\x08i@'
p2287
tp2288
Rp2289
F-7.6293617980148475e-06
tp2290
ag2
(g6
S'\x96\xd3W\xff\xd7\xdd\xdc<'
p2291
tp2292
Rp2293
aI297572543
aF1.0
aF-0.00013682122670123504
ag2
(g6
S'\xfc\xaf+Q\xdd\x08i@'
p2294
tp2295
Rp2296
a(g2289
g2283
tp2297
a(g2283
F-8.106197078060038e-06
tp2298
aa(lp2299
(g2289
F-7.6293617980148475e-06
tp2300
ag2
(g6
S'/\xa6l\xf0\xd7\xdd\xdc<'
p2301
tp2302
Rp2303
aI148786272
aF1.0
aF-0.0001369999881437892
ag2
(g6
S'\x8c"y^\xdd\x08i@'
p2304
tp2305
Rp2306
a(g2
(g6
S'\xbcH\xe8b\xdd\x08i@'
p2307
tp2308
Rp2309
g2289
tp2310
a(g2309
F-7.390944164535389e-06
tp2311
aa(lp2312
(g2309
F-7.390944164535389e-06
tp2313
ag2
(g6
S'+\x93w\xe6\xd7\xdd\xdc<'
p2314
tp2315
Rp2316
aI148786271
aF1.0
aF-0.00013711935436231483
ag2
(g6
S'\xecnWg\xdd\x08i@'
p2317
tp2318
Rp2319
a(g2
(g6
S'\x1b\x95\xc6k\xdd\x08i@'
p2320
tp2321
Rp2322
g2309
tp2323
a(g2322
F-7.152526537560261e-06
tp2324
aa(lp2325
(g2322
F-7.152526537560261e-06
tp2326
ag2
(g6
S'\xc0H\x80\xdc\xd7\xdd\xdc<'
p2327
tp2328
Rp2329
aI148786271
aF1.0
aF-0.0001372385292720078
ag2
(g6
S'J\xbb5p\xdd\x08i@'
p2330
tp2331
Rp2332
a(g2
(g6
S'z\xe1\xa4t\xdd\x08i@'
p2333
tp2334
Rp2335
g2322
tp2336
a(g2335
F-6.91410891549131e-06
tp2337
aa(lp2338
(g2335
F-6.91410891549131e-06
tp2339
ag2
(g6
S'}\xc6\x86\xd2\xd7\xdd\xdc<'
p2340
tp2341
Rp2342
aI148786272
aF1.0
aF-0.0001373577023353247
ag2
(g6
S'\xaa\x07\x14y\xdd\x08i@'
p2343
tp2344
Rp2345
a(g2
(g6
S'\xda-\x83}\xdd\x08i@'
p2346
tp2347
Rp2348
g2335
tp2349
a(g2348
F-6.675691296730385e-06
tp2350
aa(lp2351
(g2348
F-6.675691296730385e-06
tp2352
ag2
(g6
S'\x07\r\x8b\xc8\xd7\xdd\xdc<'
p2353
tp2354
Rp2355
aI148786272
aF1.0
aF-0.0001374768772434157
ag2
(g6
S'\nT\xf2\x81\xdd\x08i@'
p2356
tp2357
Rp2358
a(g2
(g6
S':za\x86\xdd\x08i@'
p2359
tp2360
Rp2361
g2348
tp2362
a(g2361
F-6.437273682884162e-06
tp2363
aa(lp2364
(g2361
F-6.437273682884162e-06
tp2365
ag2
(g6
S'\xd1\x1b\x8d\xbe\xd7\xdd\xdc<'
p2366
tp2367
Rp2368
aI148786272
aF1.0
aF-0.00013759605215150672
ag2
(g6
S'j\xa0\xd0\x8a\xdd\x08i@'
p2369
tp2370
Rp2371
a(g2
(g6
S'\x9a\xc6?\x8f\xdd\x08i@'
p2372
tp2373
Rp2374
g2361
tp2375
a(g2374
F-6.198856073956907e-06
tp2376
aa(lp2377
(g2374
F-6.198856073956907e-06
tp2378
ag2
(g6
S'\x15\xf3\x8c\xb4\xd7\xdd\xdc<'
p2379
tp2380
Rp2381
aI148786272
aF1.0
aF-0.00013771541652686018
ag2
(g6
S'\xca\xec\xae\x93\xdd\x08i@'
p2382
tp2383
Rp2384
a(g2
(g6
S'\xfa\x12\x1e\x98\xdd\x08i@'
p2385
tp2386
Rp2387
g2374
tp2388
a(g2387
F-5.960438469952883e-06
tp2389
aa(lp2390
(g2387
F-5.960438469952883e-06
tp2391
ag2
(g6
S'\xe6\x92\x8a\xaa\xd7\xdd\xdc<'
p2392
tp2393
Rp2394
aI148786271
aF1.0
aF-0.0001378344038204726
ag2
(g6
S'*9\x8d\x9c\xdd\x08i@'
p2395
tp2396
Rp2397
a(g2
(g6
S'Y_\xfc\xa0\xdd\x08i@'
p2398
tp2399
Rp2400
g2387
tp2401
a(g2400
F-5.722020872478768e-06
tp2402
aa(lp2403
(g2400
F-5.722020872478768e-06
tp2404
ag2
(g6
S'\x1d\xfb\x85\xa0\xd7\xdd\xdc<'
p2405
tp2406
Rp2407
aI148786271
aF1.0
aF-0.00013795357873016558
ag2
(g6
S'\x88\x85k\xa5\xdd\x08i@'
p2408
tp2409
Rp2410
a(g2
(g6
S'\xb8\xab\xda\xa9\xdd\x08i@'
p2411
tp2412
Rp2413
g2400
tp2414
a(g2413
F-5.483603279936411e-06
tp2415
aa(lp2416
(g2413
F-5.483603279936411e-06
tp2417
ag2
(g6
S'\xbc+\x7f\x96\xd7\xdd\xdc<'
p2418
tp2419
Rp2420
aI148786272
aF1.0
aF-0.00013807275178387074
ag2
(g6
S'\xe8\xd1I\xae\xdd\x08i@'
p2421
tp2422
Rp2423
a(g2
(g6
S'\x18\xf8\xb8\xb2\xdd\x08i@'
p2424
tp2425
Rp2426
g2413
tp2427
a(g2426
F-5.245185690727658e-06
tp2428
aa(lp2429
(g2426
F-5.245185690727658e-06
tp2430
ag2
(g6
S'\xcb$v\x8c\xd7\xdd\xdc<'
p2431
tp2432
Rp2433
aI148786272
aF1.0
aF-0.0001381921161592242
ag2
(g6
S'H\x1e(\xb7\xdd\x08i@'
p2434
tp2435
Rp2436
a(g2
(g6
S'xD\x97\xbb\xdd\x08i@'
p2437
tp2438
Rp2439
g2426
tp2440
a(g2439
F-5.006768106459189e-06
tp2441
aa(lp2442
(g2439
F-5.006768106459189e-06
tp2443
ag2
(g6
S'q\xe6j\x82\xd7\xdd\xdc<'
p2444
tp2445
Rp2446
aI148786272
aF1.0
aF-0.0001383112910673152
ag2
(g6
S'\xa8j\x06\xc0\xdd\x08i@'
p2447
tp2448
Rp2449
a(g2
(g6
S'\xd8\x90u\xc4\xdd\x08i@'
p2450
tp2451
Rp2452
g2439
tp2453
a(g2452
F-4.768350527135266e-06
tp2454
aa(lp2455
(g2452
F-4.768350527135266e-06
tp2456
ag2
(g6
S'sp]x\xd7\xdd\xdc<'
p2457
tp2458
Rp2459
aI148786272
aF1.0
aF-0.0001384304659754062
ag2
(g6
S'\x08\xb7\xe4\xc8\xdd\x08i@'
p2460
tp2461
Rp2462
a(g2
(g6
S'8\xddS\xcd\xdd\x08i@'
p2463
tp2464
Rp2465
g2452
tp2466
a(g2465
F-4.529932952760153e-06
tp2467
aa(lp2468
(g2465
F-4.529932952760153e-06
tp2469
ag2
(g6
S'\xfd\xc2Mn\xd7\xdd\xdc<'
p2470
tp2471
Rp2472
aI148786271
aF1.0
aF-0.00013854964274589543
ag2
(g6
S'h\x03\xc3\xd1\xdd\x08i@'
p2473
tp2474
Rp2475
a(g2
(g6
S'\x97)2\xd6\xdd\x08i@'
p2476
tp2477
Rp2478
g2465
tp2479
a(g2478
F-4.29151538494053e-06
tp2480
aa(lp2481
(g2478
F-4.29151538494053e-06
tp2482
ag2
(g6
S'\xf2\xdd;d\xd7\xdd\xdc<'
p2483
tp2484
Rp2485
aI148786271
aF1.0
aF-0.00013866881765558839
ag2
(g6
S'\xc6O\xa1\xda\xdd\x08i@'
p2486
tp2487
Rp2488
a(g2
(g6
S'\xf6u\x10\xdf\xdd\x08i@'
p2489
tp2490
Rp2491
g2478
tp2492
a(g2491
F-4.053097822078244e-06
tp2493
aa(lp2494
(g2
(g6
S'V\xc2\xee\xe7\xdd\x08i@'
p2495
tp2496
Rp2497
F-3.814680262575142e-06
tp2498
ag2
(g6
S":\xc1'Z\xd7\xdd\xdc<"
p2499
tp2500
Rp2501
aI148786272
aF1.0
aF-0.00013878818016694168
ag2
(g6
S'&\x9c\x7f\xe3\xdd\x08i@'
p2502
tp2503
Rp2504
a(g2497
g2491
tp2505
a(g2491
F-4.053097822078244e-06
tp2506
aa(lp2507
(g2497
F-3.814680262575142e-06
tp2508
ag2
(g6
S'%m\x11P\xd7\xdd\xdc<'
p2509
tp2510
Rp2511
aI148786272
aF1.0
aF-0.00013890735507503268
ag2
(g6
S'\x86\xe8]\xec\xdd\x08i@'
p2512
tp2513
Rp2514
a(g2
(g6
S'\xb6\x0e\xcd\xf0\xdd\x08i@'
p2515
tp2516
Rp2517
g2497
tp2518
a(g2517
F-3.576262708037903e-06
tp2519
aa(lp2520
(g2517
F-3.576262708037903e-06
tp2521
ag2
(g6
S't\xe1\xf8E\xd7\xdd\xdc<'
p2522
tp2523
Rp2524
aI148786271
aF1.0
aF-0.00013902653185193228
ag2
(g6
S'\xe64<\xf5\xdd\x08i@'
p2525
tp2526
Rp2527
a(g2
(g6
S'\x15[\xab\xf9\xdd\x08i@'
p2528
tp2529
Rp2530
g2517
tp2531
a(g2530
F-3.3378451600732065e-06
tp2532
aa(lp2533
(g2530
F-3.3378451600732065e-06
tp2534
ag2
(g6
S'C\x1e\xde;\xd7\xdd\xdc<'
p2535
tp2536
Rp2537
aI148786271
aF1.0
aF-0.00013914570676162524
ag2
(g6
S'D\x81\x1a\xfe\xdd\x08i@'
p2538
tp2539
Rp2540
a(g2
(g6
S't\xa7\x89\x02\xde\x08i@'
p2541
tp2542
Rp2543
g2530
tp2544
a(g2543
F-3.0994276170828996e-06
tp2545
aa(lp2546
(g2543
F-3.0994276170828996e-06
tp2547
ag2
(g6
S'x#\xc11\xd7\xdd\xdc<'
p2548
tp2549
Rp2550
aI148786272
aF1.0
aF-0.00013926478506567447
ag2
(g6
S'\xa4\xcd\xf8\x06\xde\x08i@'
p2551
tp2552
Rp2553
a(g2
(g6
S'\xd4\xf3g\x0b\xde\x08i@'
p2554
tp2555
Rp2556
g2543
tp2557
a(g2556
F-2.8610100774688296e-06
tp2558
aa(lp2559
(g2556
F-2.8610100774688296e-06
tp2560
ag2
(g6
S"\x1f\xf1\xa1'\xd7\xdd\xdc<"
p2561
tp2562
Rp2563
aI148786272
aF1.0
aF-0.0001393840547073967
ag2
(g6
S'\x04\x1a\xd7\x0f\xde\x08i@'
p2564
tp2565
Rp2566
a(g2
(g6
S'4@F\x14\xde\x08i@'
p2567
tp2568
Rp2569
g2556
tp2570
a(g2569
F-2.622592542837676e-06
tp2571
aa(lp2572
(g2569
F-2.622592542837676e-06
tp2573
ag2
(g6
S'C\x87\x80\x1d\xd7\xdd\xdc<'
p2574
tp2575
Rp2576
aI148786271
aF1.0
aF-0.00013950323149070415
ag2
(g6
S'df\xb5\x18\xde\x08i@'
p2577
tp2578
Rp2579
a(g2
(g6
S'\x93\x8c$\x1d\xde\x08i@'
p2580
tp2581
Rp2582
g2569
tp2583
a(g2582
F-2.3841750147961184e-06
tp2584
aa(lp2585
(g2582
F-2.3841750147961184e-06
tp2586
ag2
(g6
S'\xce\xe5\\\x13\xd7\xdd\xdc<'
p2587
tp2588
Rp2589
aI148786271
aF1.0
aF-0.00013962259586766212
ag2
(g6
S'\xc2\xb2\x93!\xde\x08i@'
p2590
tp2591
Rp2592
a(g2
(g6
S'\xf2\xd8\x02&\xde\x08i@'
p2593
tp2594
Rp2595
g2582
tp2596
a(g2595
F-2.145757491746004e-06
tp2597
aa(lp2598
(g2
(g6
S'R%\xe1.\xde\x08i@'
p2599
tp2600
Rp2601
F-1.9073399720891787e-06
tp2602
ag2
(g6
S'\xef\x0c7\t\xd7\xdd\xdc<'
p2603
tp2604
Rp2605
aI148786272
aF1.0
aF-0.00013974167416530095
ag2
(g6
S'"\xffq*\xde\x08i@'
p2606
tp2607
Rp2608
a(g2601
g2595
tp2609
a(g2595
F-2.145757491746004e-06
tp2610
aa(lp2611
(g2601
F-1.9073399720891787e-06
tp2612
ag2
(g6
S'i\xfc\x0e\xff\xd6\xdd\xdc<'
p2613
tp2614
Rp2615
aI148786272
aF1.0
aF-0.00013986094380702318
ag2
(g6
S'\x82KP3\xde\x08i@'
p2616
tp2617
Rp2618
a(g2
(g6
S'\xb2q\xbf7\xde\x08i@'
p2619
tp2620
Rp2621
g2601
tp2622
a(g2621
F-1.6689224574323231e-06
tp2623
aa(lp2624
(g2621
F-1.6689224574323231e-06
tp2625
ag2
(g6
S'Z\xb4\xe4\xf4\xd6\xdd\xdc<'
p2626
tp2627
Rp2628
aI148786271
aF1.0
aF-0.00013998012059674103
ag2
(g6
S'\xe2\x97.<\xde\x08i@'
p2629
tp2630
Rp2631
a(g2
(g6
S'\x11\xbe\x9d@\xde\x08i@'
p2632
tp2633
Rp2634
g2621
tp2635
a(g2634
F-1.4305049493821164e-06
tp2636
aa(lp2637
(g2634
F-1.4305049493821164e-06
tp2638
ag2
(g6
S'\xc64\xb8\xea\xd6\xdd\xdc<'
p2639
tp2640
Rp2641
aI148786271
aF1.0
aF-0.000140099295506434
ag2
(g6
S'@\xe4\x0cE\xde\x08i@'
p2642
tp2643
Rp2644
a(g2
(g6
S'p\n|I\xde\x08i@'
p2645
tp2646
Rp2647
g2634
tp2648
a(g2647
F-1.1920874463404056e-06
tp2649
aa(lp2650
(g2
(g6
S'\xd0VZR\xde\x08i@'
p2651
tp2652
Rp2653
F-9.536699467090377e-07
tp2654
ag2
(g6
S'\xac}\x89\xe0\xd6\xdd\xdc<'
p2655
tp2656
Rp2657
aI148786272
aF1.0
aF-0.0001402185158981118
ag2
(g6
S'\xa00\xebM\xde\x08i@'
p2658
tp2659
Rp2660
a(g2653
g2647
tp2661
a(g2647
F-1.1920874463404056e-06
tp2662
aa(lp2663
(g2653
F-9.536699467090377e-07
tp2664
ag2
(g6
S'\x95\x11\xe5\xd8\xd6\xdd\xdc<'
p2665
tp2666
Rp2667
aI74393136
aF1.0
aF-0.00014030780234554883
ag2
(g6
S'\xe8\xe9\x91T\xde\x08i@'
p2668
tp2669
Rp2670
a(g2
(g6
S'\x00}\xc9V\xde\x08i@'
p2671
tp2672
Rp2673
g2653
tp2674
a(g2673
F-8.344611987744709e-07
tp2675
aa(lp2676
(g2673
F-8.344611987744709e-07
tp2677
ag2
(g6
S'a\x0c\xcc\xd3\xd6\xdd\xdc<'
p2678
tp2679
Rp2680
aI74393136
aF1.0
aF-0.00014036748453322557
ag2
(g6
S'\x18\x10\x01Y\xde\x08i@'
p2681
tp2682
Rp2683
a(g2
(g6
S'0\xa38[\xde\x08i@'
p2684
tp2685
Rp2686
g2673
tp2687
a(g2686
F-7.152524520946925e-07
tp2688
aa(lp2689
(g2686
F-7.152524520946925e-07
tp2690
ag2
(g6
S'Cy\xb2\xce\xd6\xdd\xdc<'
p2691
tp2692
Rp2693
aI74393136
aF1.0
aF-0.00014042716672090232
ag2
(g6
S'H6p]\xde\x08i@'
p2694
tp2695
Rp2696
a(g2
(g6
S'`\xc9\xa7_\xde\x08i@'
p2697
tp2698
Rp2699
g2686
tp2700
a(g2699
F-5.960437066702356e-07
tp2701
aa(lp2702
(g2
(g6
S'\x90\xef\x16d\xde\x08i@'
p2703
tp2704
Rp2705
F-4.768349625016331e-07
tp2706
ag2
(g6
S'AX\x98\xc9\xd6\xdd\xdc<'
p2707
tp2708
Rp2709
aI74393136
aF1.0
aF-0.00014048665944131657
ag2
(g6
S'x\\\xdfa\xde\x08i@'
p2710
tp2711
Rp2712
a(g2705
g2699
tp2713
a(g2699
F-5.960437066702356e-07
tp2714
aa(lp2715
(g2705
F-4.768349625016331e-07
tp2716
ag2
(g6
S'd\xa9}\xc4\xd6\xdd\xdc<'
p2717
tp2718
Rp2719
aI74393136
aF1.0
aF-0.00014054634162899332
ag2
(g6
S'\xa8\x82Nf\xde\x08i@'
p2720
tp2721
Rp2722
a(g2
(g6
S'\xc0\x15\x86h\xde\x08i@'
p2723
tp2724
Rp2725
g2705
tp2726
a(g2725
F-3.576262195894178e-07
tp2727
aa(lp2728
(g2
(g6
S'\xf0;\xf5l\xde\x08i@'
p2729
tp2730
Rp2731
F-2.3841747793412264e-07
tp2732
ag2
(g6
S'\x9elb\xbf\xd6\xdd\xdc<'
p2733
tp2734
Rp2735
aI74393136
aF1.0
aF-0.0001406058817162232
ag2
(g6
S'\xd8\xa8\xbdj\xde\x08i@'
p2736
tp2737
Rp2738
a(g2731
g2725
tp2739
a(g2725
F-3.576262195894178e-07
tp2740
aa(lp2741
(g2
(g6
S' bdq\xde\x08i@'
p2742
tp2743
Rp2744
F-1.1920873753628058e-07
tp2745
ag2
(g6
S'\xf7\xa1F\xba\xd6\xdd\xdc<'
p2746
tp2747
Rp2748
aI74393136
aF1.0
aF-0.00014066551653708431
ag2
(g6
S'\x08\xcf,o\xde\x08i@'
p2749
tp2750
Rp2751
a(g2744
g2731
tp2752
a(g2731
F-2.3841747793412264e-07
tp2753
aa(lp2754
(g2
(g6
S'8\xf5\x9bs\xde\x08i@'
p2755
tp2756
Rp2757
F-5.960436780907099e-08
tp2758
ag2
(g6
S'Lqq\xb6\xd6\xdd\xdc<'
p2759
tp2760
Rp2761
aI37196568
aF1.0
aF-0.00014071023081102624
ag2
(g6
S'\xac+\x80r\xde\x08i@'
p2762
tp2763
Rp2764
a(g2757
g2744
tp2765
a(g2744
F-1.1920873753628058e-07
tp2766
aa(lp2767
(g2
(g6
S'\xc4\xbe\xb7t\xde\x08i@'
p2768
tp2769
Rp2770
F-2.9802183063423197e-08
tp2771
ag2
(g6
S'\xed\xb9\x86\xb4\xd6\xdd\xdc<'
p2772
tp2773
Rp2774
aI18598284
aF1.0
aF-0.00014073258794799722
ag2
(g6
S'\xfe\xd9)t\xde\x08i@'
p2775
tp2776
Rp2777
a(g2770
g2757
tp2778
a(g2757
F-5.960436780907099e-08
tp2779
aa(lp2780
(g2
(g6
S'\x8a\xa3Eu\xde\x08i@'
p2781
tp2782
Rp2783
F-1.4901090720092192e-08
tp2784
ag2
(g6
S'|V\x91\xb3\xd6\xdd\xdc<'
p2785
tp2786
Rp2787
aI9299142
aF1.0
aF-0.00014074367178285146
ag2
(g6
S"'\xb1\xfet\xde\x08i@"
p2788
tp2789
Rp2790
a(g2783
g2770
tp2791
a(g2770
F-2.9802183063423197e-08
tp2792
aa(lp2793
(F200.2771557933324
F1.1596684941724138e-18
tp2794
ag2
(g6
S'\xe6\xbb\xed\xb2\xd6\xdd\xdc<'
p2795
tp2796
Rp2797
aI9299141
aF1.0
aF-0.00014075123337840977
ag2
(g6
S'\xec\x95\x8cu\xde\x08i@'
p2798
tp2799
Rp2800
a(F200.2771557933324
g2783
tp2801
a(g2783
F-1.4901090720092192e-08
tp2802
aa(lp2803
(F200.2771557933324
F1.1596684941724138e-18
tp2804
ag2
(g6
S'\xdf\x1eJ\xb2\xd6\xdd\xdc<'
p2805
tp2806
Rp2807
aI9299243
aF1.0
aF-0.00014075851880489176
ag2
(g6
S'\xe4z\x1av\xde\x08i@'
p2808
tp2809
Rp2810
a(g2
(g6
S'zmav\xde\x08i@'
p2811
tp2812
Rp2813
F200.2771557933324
tp2814
a(g2813
F1.4901254149161265e-08
tp2815
aa(lp2816
(g2813
F1.4901254149161265e-08
tp2817
ag2
(g6
S'g\x7f\xa6\xb1\xd6\xdd\xdc<'
p2818
tp2819
Rp2820
aI9299242
aF1.0
aF-0.00014076584341073063
ag2
(g6
S'\x0f`\xa8v\xde\x08i@'
p2821
tp2822
Rp2823
a(g2
(g6
S'\xa4R\xefv\xde\x08i@'
p2824
tp2825
Rp2826
g2813
tp2827
a(g2826
F2.9802506675081216e-08
tp2828
aa(lp2829
(g2826
F2.9802506675081216e-08
tp2830
ag2
(g6
S'\xbf\x0b\xb1\xb0\xd6\xdd\xdc<'
p2831
tp2832
Rp2833
aI18598484
aF1.0
aF-0.0001407772112019861
ag2
(g6
S'\xce7}w\xde\x08i@'
p2834
tp2835
Rp2836
a(g2
(g6
S'\xf8\x1c\x0bx\xde\x08i@'
p2837
tp2838
Rp2839
g2826
tp2840
a(g2839
F5.960501166791948e-08
tp2841
aa(lp2842
(g2839
F5.960501166791948e-08
tp2843
ag2
(g6
S'\xf4\x14\xc6\xae\xd6\xdd\xdc<'
p2844
tp2845
Rp2846
aI37196970
aF1.0
aF-0.0001407996948145259
ag2
(g6
S'M\xe7&y\xde\x08i@'
p2847
tp2848
Rp2849
a(g2
(g6
S'\xa2\xb1Bz\xde\x08i@'
p2850
tp2851
Rp2852
g2839
tp2853
a(g2852
F1.1921002462239198e-07
tp2854
aa(lp2855
(g2852
F1.1921002462239198e-07
tp2856
ag2
(g6
S'F\xe9\xef\xaa\xd6\xdd\xdc<'
p2857
tp2858
Rp2859
aI74393940
aF1.0
aF-0.00014084433707330134
ag2
(g6
S'LFz|\xde\x08i@'
p2860
tp2861
Rp2862
a(g2
(g6
S'\xf6\xda\xb1~\xde\x08i@'
p2863
tp2864
Rp2865
g2852
tp2866
a(g2865
F2.384200495869611e-07
tp2867
aa(lp2868
(g2865
F2.384200495869611e-07
tp2869
ag2
(g6
S'o\xe3\xd1\xa5\xd6\xdd\xdc<'
p2870
tp2871
Rp2872
aI74393940
aF1.0
aF-0.00014090394692228692
ag2
(g6
S'\xa0o\xe9\x80\xde\x08i@'
p2873
tp2874
Rp2875
a(g2
(g6
S'J\x04!\x83\xde\x08i@'
p2876
tp2877
Rp2878
g2865
tp2879
a(g2878
F3.5763007329191827e-07
tp2880
aa(lp2881
(g2878
F3.5763007329191827e-07
tp2882
ag2
(g6
S'\xbeO\xb3\xa0\xd6\xdd\xdc<'
p2883
tp2884
Rp2885
aI74393940
aF1.0
aF-0.0001409635330883766
ag2
(g6
S'\xf4\x98X\x85\xde\x08i@'
p2886
tp2887
Rp2888
a(g2
(g6
S'\x9e-\x90\x87\xde\x08i@'
p2889
tp2890
Rp2891
g2878
tp2892
a(g2891
F4.768400957367306e-07
tp2893
aa(lp2894
(g2891
F4.768400957367306e-07
tp2895
ag2
(g6
S'\x1e.\x94\x9b\xd6\xdd\xdc<'
p2896
tp2897
Rp2898
aI74393940
aF1.0
aF-0.00014102311925446627
ag2
(g6
S'H\xc2\xc7\x89\xde\x08i@'
p2899
tp2900
Rp2901
a(g2
(g6
S'\xf2V\xff\x8b\xde\x08i@'
p2902
tp2903
Rp2904
g2891
tp2905
a(g2904
F5.960501169208651e-07
tp2906
aa(lp2907
(g2904
F5.960501169208651e-07
tp2908
ag2
(g6
S'\xa4~t\x96\xd6\xdd\xdc<'
p2909
tp2910
Rp2911
aI74393940
aF1.0
aF-0.00014108270542055596
ag2
(g6
S'\x9c\xeb6\x8e\xde\x08i@'
p2912
tp2913
Rp2914
a(g2
(g6
S'F\x80n\x90\xde\x08i@'
p2915
tp2916
Rp2917
g2904
tp2918
a(g2917
F7.152601368437889e-07
tp2919
aa(lp2920
(g2917
F7.152601368437889e-07
tp2921
ag2
(g6
S'BAT\x91\xd6\xdd\xdc<'
p2922
tp2923
Rp2924
aI74393940
aF1.0
aF-0.00014114238631822925
ag2
(g6
S'\xf0\x14\xa6\x92\xde\x08i@'
p2925
tp2926
Rp2927
a(g2
(g6
S'\x9a\xa9\xdd\x94\xde\x08i@'
p2928
tp2929
Rp2930
g2917
tp2931
a(g2930
F8.34470155504969e-07
tp2932
aa(lp2933
(g2930
F8.34470155504969e-07
tp2934
ag2
(g6
S'\xfeu3\x8c\xd6\xdd\xdc<'
p2935
tp2936
Rp2937
aI74393940
aF1.0
aF-0.0001412019724843189
ag2
(g6
S'D>\x15\x97\xde\x08i@'
p2938
tp2939
Rp2940
a(g2
(g6
S'\xee\xd2L\x99\xde\x08i@'
p2941
tp2942
Rp2943
g2930
tp2944
a(g2943
F9.536801729038726e-07
tp2945
aa(lp2946
(g2943
F9.536801729038726e-07
tp2947
ag2
(g6
S'S)\x81\x84\xd6\xdd\xdc<'
p2948
tp2949
Rp2950
aI148787880
aF1.0
aF-0.00014129130436766162
ag2
(g6
S'B\xfc\xbb\x9d\xde\x08i@'
p2951
tp2952
Rp2953
a(g2
(g6
S'\x96%+\xa2\xde\x08i@'
p2954
tp2955
Rp2956
g2943
tp2957
a(g2956
F1.1921002039127184e-06
tp2958
aa(lp2959
(g2956
F1.1921002039127184e-06
tp2960
ag2
(g6
S'o?<z\xd6\xdd\xdc<'
p2961
tp2962
Rp2963
aI148787880
aF1.0
aF-0.00014141052406563278
ag2
(g6
S'\xeaN\x9a\xa6\xde\x08i@'
p2964
tp2965
Rp2966
a(g2
(g6
S'>x\t\xab\xde\x08i@'
p2967
tp2968
Rp2969
g2956
tp2970
a(g2969
F1.4305202298660627e-06
tp2971
aa(lp2972
(g2969
F1.4305202298660627e-06
tp2973
ag2
(g6
S'\x00\x1e\xf5o\xd6\xdd\xdc<'
p2974
tp2975
Rp2976
aI148787880
aF1.0
aF-0.00014152974376360395
ag2
(g6
S'\x92\xa1x\xaf\xde\x08i@'
p2977
tp2978
Rp2979
a(g2
(g6
S'\xe6\xca\xe7\xb3\xde\x08i@'
p2980
tp2981
Rp2982
g2969
tp2983
a(g2982
F1.6689402507596421e-06
tp2984
aa(lp2985
(g2982
F1.6689402507596421e-06
tp2986
ag2
(g6
S'\x05\xc5\xabe\xd6\xdd\xdc<'
p2987
tp2988
Rp2989
aI148787880
aF1.0
aF-0.0001416490108273669
ag2
(g6
S':\xf4V\xb8\xde\x08i@'
p2990
tp2991
Rp2992
a(g2
(g6
S'\x8e\x1d\xc6\xbc\xde\x08i@'
p2993
tp2994
Rp2995
g2982
tp2996
a(g2995
F1.9073602665891934e-06
tp2997
aa(lp2998
(g2995
F1.9073602665891934e-06
tp2999
ag2
(g6
S'\x864`[\xd6\xdd\xdc<'
p3000
tp3001
Rp3002
aI148787880
aF1.0
aF-0.00014176808842796267
ag2
(g6
S'\xe2F5\xc1\xde\x08i@'
p3003
tp3004
Rp3005
a(g2
(g6
S'6p\xa4\xc5\xde\x08i@'
p3006
tp3007
Rp3008
g2995
tp3009
a(g3008
F2.1457802773504533e-06
tp3010
aa(lp3011
(g3008
F2.1457802773504533e-06
tp3012
ag2
(g6
S'^l\x12Q\xd6\xdd\xdc<'
p3013
tp3014
Rp3015
aI148787880
aF1.0
aF-0.00014188735549172562
ag2
(g6
S'\x8a\x99\x13\xca\xde\x08i@'
p3016
tp3017
Rp3018
a(g2
(g6
S'\xde\xc2\x82\xce\xde\x08i@'
p3019
tp3020
Rp3021
g3008
tp3022
a(g3021
F2.3842002830391577e-06
tp3023
aa(lp3024
(g3021
F2.3842002830391577e-06
tp3025
ag2
(g6
S'\xbfl\xc2F\xd6\xdd\xdc<'
p3026
tp3027
Rp3028
aI148787880
aF1.0
aF-0.0001420066225554886
ag2
(g6
S'2\xec\xf1\xd2\xde\x08i@'
p3029
tp3030
Rp3031
a(g2
(g6
S'\x86\x15a\xd7\xde\x08i@'
p3032
tp3033
Rp3034
g3021
tp3035
a(g3034
F2.622620283651044e-06
tp3036
aa(lp3037
(g3034
F2.622620283651044e-06
tp3038
ag2
(g6
S'\x8e5p<\xd6\xdd\xdc<'
p3039
tp3040
Rp3041
aI148787880
aF1.0
aF-0.00014212588961925155
ag2
(g6
S'\xda>\xd0\xdb\xde\x08i@'
p3042
tp3043
Rp3044
a(g2
(g6
S'.h?\xe0\xde\x08i@'
p3045
tp3046
Rp3047
g3034
tp3048
a(g3047
F2.8610402791818486e-06
tp3049
aa(lp3050
(g3047
F2.8610402791818486e-06
tp3051
ag2
(g6
S'\xcb\xc6\x1b2\xd6\xdd\xdc<'
p3052
tp3053
Rp3054
aI148787880
aF1.0
aF-0.0001422449672198473
ag2
(g6
S'\x82\x91\xae\xe4\xde\x08i@'
p3055
tp3056
Rp3057
a(g2
(g6
S'\xd6\xba\x1d\xe9\xde\x08i@'
p3058
tp3059
Rp3060
g3047
tp3061
a(g3060
F3.099460269627308e-06
tp3062
aa(lp3063
(g3060
F3.099460269627308e-06
tp3064
ag2
(g6
S"t \xc5'\xd6\xdd\xdc<"
p3065
tp3066
Rp3067
aI148787880
aF1.0
aF-0.00014236423428361027
ag2
(g6
S'*\xe4\x8c\xed\xde\x08i@'
p3068
tp3069
Rp3070
a(g2
(g6
S'~\r\xfc\xf1\xde\x08i@'
p3071
tp3072
Rp3073
g3060
tp3074
a(g3073
F3.3378802549831583e-06
tp3075
aa(lp3076
(g3073
F3.3378802549831583e-06
tp3077
ag2
(g6
S'\x98Bl\x1d\xd6\xdd\xdc<'
p3078
tp3079
Rp3080
aI148787880
aF1.0
aF-0.00014248350134737323
ag2
(g6
S'\xd26k\xf6\xde\x08i@'
p3081
tp3082
Rp3083
a(g2
(g6
S'&`\xda\xfa\xde\x08i@'
p3084
tp3085
Rp3086
g3073
tp3087
a(g3086
F3.576300235245137e-06
tp3088
aa(lp3089
(g3086
F3.576300235245137e-06
tp3090
ag2
(g6
S'*-\x11\x13\xd6\xdd\xdc<'
p3091
tp3092
Rp3093
aI148787880
aF1.0
aF-0.00014260257894796897
ag2
(g6
S'z\x89I\xff\xde\x08i@'
p3094
tp3095
Rp3096
a(g2
(g6
S'\xce\xb2\xb8\x03\xdf\x08i@'
p3097
tp3098
Rp3099
g3086
tp3100
a(g3099
F3.81472021040898e-06
tp3101
aa(lp3102
(g3099
F3.81472021040898e-06
tp3103
ag2
(g6
S')\xe0\xb3\x08\xd6\xdd\xdc<'
p3104
tp3105
Rp3106
aI148787880
aF1.0
aF-0.00014272203547489916
ag2
(g6
S'"\xdc\'\x08\xdf\x08i@'
p3107
tp3108
Rp3109
a(g2
(g6
S'v\x05\x97\x0c\xdf\x08i@'
p3110
tp3111
Rp3112
g3099
tp3113
a(g3112
F4.053140180470424e-06
tp3114
aa(lp3115
(g3112
F4.053140180470424e-06
tp3116
ag2
(g6
S'\xb2[T\xfe\xd5\xdd\xdc<'
p3117
tp3118
Rp3119
aI148787880
aF1.0
aF-0.0001428412078070785
ag2
(g6
S'\xca.\x06\x11\xdf\x08i@'
p3120
tp3121
Rp3122
a(g2
(g6
S'\x1eXu\x15\xdf\x08i@'
p3123
tp3124
Rp3125
g3112
tp3126
a(g3125
F4.291560145425207e-06
tp3127
aa(lp3128
(g3125
F4.291560145425207e-06
tp3129
ag2
(g6
S'\x99\x9f\xf2\xf3\xd5\xdd\xdc<'
p3130
tp3131
Rp3132
aI148787880
aF1.0
aF-0.00014296000121292342
ag2
(g6
S'r\x81\xe4\x19\xdf\x08i@'
p3133
tp3134
Rp3135
a(g2
(g6
S'\xc6\xaaS\x1e\xdf\x08i@'
p3136
tp3137
Rp3138
g3125
tp3139
a(g3138
F4.529980105269063e-06
tp3140
aa(lp3141
(g3138
F4.529980105269063e-06
tp3142
ag2
(g6
S'\xdf\xab\x8e\xe9\xd5\xdd\xdc<'
p3143
tp3144
Rp3145
aI148787880
aF1.0
aF-0.00014307917354510277
ag2
(g6
S'\x1a\xd4\xc2"\xdf\x08i@'
p3146
tp3147
Rp3148
a(g2
(g6
S"n\xfd1'\xdf\x08i@"
p3149
tp3150
Rp3151
g3138
tp3152
a(g3151
F4.7684000599977305e-06
tp3153
aa(lp3154
(g3151
F4.7684000599977305e-06
tp3155
ag2
(g6
S'\xa1\x80(\xdf\xd5\xdd\xdc<'
p3156
tp3157
Rp3158
aI148787880
aF1.0
aF-0.00014319853534044936
ag2
(g6
S'\xc2&\xa1+\xdf\x08i@'
p3159
tp3160
Rp3161
a(g2
(g6
S'\x16P\x100\xdf\x08i@'
p3162
tp3163
Rp3164
g3151
tp3165
a(g3164
F5.006820009606945e-06
tp3166
aa(lp3167
(g3164
F5.006820009606945e-06
tp3168
ag2
(g6
S'\xfb\x1d\xc0\xd4\xd5\xdd\xdc<'
p3169
tp3170
Rp3171
aI148787880
aF1.0
aF-0.0001433177076726287
ag2
(g6
S'jy\x7f4\xdf\x08i@'
p3172
tp3173
Rp3174
a(g2
(g6
S'\xbe\xa2\xee8\xdf\x08i@'
p3175
tp3176
Rp3177
g3164
tp3178
a(g3177
F5.245239954092444e-06
tp3179
aa(lp3180
(g3177
F5.245239954092444e-06
tp3181
ag2
(g6
S'\x97\x83U\xca\xd5\xdd\xdc<'
p3182
tp3183
Rp3184
aI148787880
aF1.0
aF-0.00014343688000480805
ag2
(g6
S'\x12\xcc]=\xdf\x08i@'
p3185
tp3186
Rp3187
a(g2
(g6
S'f\xf5\xccA\xdf\x08i@'
p3188
tp3189
Rp3190
g3177
tp3191
a(g3190
F5.483659893449964e-06
tp3192
aa(lp3193
(g3190
F5.483659893449964e-06
tp3194
ag2
(g6
S'\xcb\xb1\xe8\xbf\xd5\xdd\xdc<'
p3195
tp3196
Rp3197
aI148787880
aF1.0
aF-0.00014355605233698742
ag2
(g6
S'\xba\x1e<F\xdf\x08i@'
p3198
tp3199
Rp3200
a(g2
(g6
S'\x0eH\xabJ\xdf\x08i@'
p3201
tp3202
Rp3203
g3190
tp3204
a(g3203
F5.7220798276752415e-06
tp3205
aa(lp3206
(g3203
F5.7220798276752415e-06
tp3207
ag2
(g6
S'A\xa8y\xb5\xd5\xdd\xdc<'
p3208
tp3209
Rp3210
aI148787880
aF1.0
aF-0.00014367541413233399
ag2
(g6
S'bq\x1aO\xdf\x08i@'
p3211
tp3212
Rp3213
a(g2
(g6
S'\xb6\x9a\x89S\xdf\x08i@'
p3214
tp3215
Rp3216
g3203
tp3217
a(g3216
F5.960499756764012e-06
tp3218
aa(lp3219
(g3216
F5.960499756764012e-06
tp3220
ag2
(g6
S'lg\x08\xab\xd5\xdd\xdc<'
p3221
tp3222
Rp3223
aI148787880
aF1.0
aF-0.00014379458646451336
ag2
(g6
S'\n\xc4\xf8W\xdf\x08i@'
p3224
tp3225
Rp3226
a(g2
(g6
S'^\xedg\\\xdf\x08i@'
p3227
tp3228
Rp3229
g3216
tp3230
a(g3229
F6.1989196807120145e-06
tp3231
aa(lp3232
(g3229
F6.1989196807120145e-06
tp3233
ag2
(g6
S'\xbc\xee\x94\xa0\xd5\xdd\xdc<'
p3234
tp3235
Rp3236
aI148787880
aF1.0
aF-0.0001439137587966927
ag2
(g6
S'\xb2\x16\xd7`\xdf\x08i@'
p3237
tp3238
Rp3239
a(g2
(g6
S'\x06@Fe\xdf\x08i@'
p3240
tp3241
Rp3242
g3229
tp3243
a(g3242
F6.437339599514983e-06
tp3244
aa(lp3245
(g3242
F6.437339599514983e-06
tp3246
ag2
(g6
S'\xc2>\x1f\x96\xd5\xdd\xdc<'
p3247
tp3248
Rp3249
aI148787880
aF1.0
aF-0.00014403312059203927
ag2
(g6
S'Zi\xb5i\xdf\x08i@'
p3250
tp3251
Rp3252
a(g2
(g6
S'\xae\x92$n\xdf\x08i@'
p3253
tp3254
Rp3255
g3242
tp3256
a(g3255
F6.675759513168656e-06
tp3257
aa(lp3258
(g3255
F6.675759513168656e-06
tp3259
ag2
(g6
S'\tW\xa7\x8b\xd5\xdd\xdc<'
p3260
tp3261
Rp3262
aI148787880
aF1.0
aF-0.00014415229292421864
ag2
(g6
S'\x02\xbc\x93r\xdf\x08i@'
p3263
tp3264
Rp3265
a(g2
(g6
S'V\xe5\x02w\xdf\x08i@'
p3266
tp3267
Rp3268
g3255
tp3269
a(g3268
F6.9141794216687685e-06
tp3270
aa(lp3271
(g3268
F6.9141794216687685e-06
tp3272
ag2
(g6
S'\xe87-\x81\xd5\xdd\xdc<'
p3273
tp3274
Rp3275
aI148787880
aF1.0
aF-0.00014427146525639798
ag2
(g6
S'\xaa\x0er{\xdf\x08i@'
p3276
tp3277
Rp3278
a(g2
(g6
S'\xfe7\xe1\x7f\xdf\x08i@'
p3279
tp3280
Rp3281
g3268
tp3282
a(g3281
F7.152599325011059e-06
tp3283
aa(lp3284
(g3281
F7.152599325011059e-06
tp3285
ag2
(g6
S'\n\xe1\xb0v\xd5\xdd\xdc<'
p3286
tp3287
Rp3288
aI148787880
aF1.0
aF-0.00014439063758857733
ag2
(g6
S'RaP\x84\xdf\x08i@'
p3289
tp3290
Rp3291
a(g2
(g6
S'\xa6\x8a\xbf\x88\xdf\x08i@'
p3292
tp3293
Rp3294
g3281
tp3295
a(g3294
F7.391019223191262e-06
tp3296
aa(lp3297
(g3294
F7.391019223191262e-06
tp3298
ag2
(g6
S'\xe0R2l\xd5\xdd\xdc<'
p3299
tp3300
Rp3301
aI148787880
aF1.0
aF-0.0001445098099207567
ag2
(g6
S'\xfa\xb3.\x8d\xdf\x08i@'
p3302
tp3303
Rp3304
a(g2
(g6
S'N\xdd\x9d\x91\xdf\x08i@'
p3305
tp3306
Rp3307
g3294
tp3308
a(g3307
F7.629439116205116e-06
tp3309
aa(lp3310
(g3307
F7.629439116205116e-06
tp3311
ag2
(g6
S'&\x0ep\\\xd5\xdd\xdc<'
p3312
tp3313
Rp3314
aI297575760
aF1.0
aF-0.00014468866315060934
ag2
(g6
S'\xf6/|\x9a\xdf\x08i@'
p3315
tp3316
Rp3317
a(g2
(g6
S'\x9e\x82Z\xa3\xdf\x08i@'
p3318
tp3319
Rp3320
g3307
tp3321
a(g3320
F8.106278886716719e-06
tp3322
aa(lp3323
(g3320
F8.106278886716719e-06
tp3324
ag2
(g6
S'D\xa4eG\xd5\xdd\xdc<'
p3325
tp3326
Rp3327
aI297575760
aF1.0
aF-0.00014492710254655164
ag2
(g6
S'F\xd58\xac\xdf\x08i@'
p3328
tp3329
Rp3330
a(g2
(g6
S"\xee'\x17\xb5\xdf\x08i@"
p3331
tp3332
Rp3333
g3320
tp3334
a(g3333
F8.583118636511763e-06
tp3335
aa(lp3336
(g3333
F8.583118636511763e-06
tp3337
ag2
(g6
S'\x18\\R2\xd5\xdd\xdc<'
p3338
tp3339
Rp3340
aI297575760
aF1.0
aF-0.00014516544721091036
ag2
(g6
S'\x96z\xf5\xbd\xdf\x08i@'
p3341
tp3342
Rp3343
a(g2
(g6
S'>\xcd\xd3\xc6\xdf\x08i@'
p3344
tp3345
Rp3346
g3333
tp3347
a(g3346
F9.05995836555614e-06
tp3348
aa(lp3349
(g3346
F9.05995836555614e-06
tp3350
ag2
(g6
S'\x9f56\x1d\xd5\xdd\xdc<'
p3351
tp3352
Rp3353
aI297575760
aF1.0
aF-0.0001454038866068527
ag2
(g6
S'\xe6\x1f\xb2\xcf\xdf\x08i@'
p3354
tp3355
Rp3356
a(g2
(g6
S'\x8er\x90\xd8\xdf\x08i@'
p3357
tp3358
Rp3359
g3346
tp3360
a(g3359
F9.536798073815741e-06
tp3361
aa(lp3362
(g3359
F9.536798073815741e-06
tp3363
ag2
(g6
S'\x141\x11\x08\xd5\xdd\xdc<'
p3364
tp3365
Rp3366
aI297575760
aF1.0
aF-0.000145642326002795
ag2
(g6
S'6\xc5n\xe1\xdf\x08i@'
p3367
tp3368
Rp3369
a(g2
(g6
S'\xde\x17M\xea\xdf\x08i@'
p3370
tp3371
Rp3372
g3359
tp3373
a(g3372
F1.0013637761256461e-05
tp3374
aa(lp3375
(g3372
F1.0013637761256461e-05
tp3376
ag2
(g6
S'>N\xe3\xf2\xd4\xdd\xdc<'
p3377
tp3378
Rp3379
aI297575760
aF1.0
aF-0.0001458806706671537
ag2
(g6
S'\x86j+\xf3\xdf\x08i@'
p3380
tp3381
Rp3382
a(g2
(g6
S'.\xbd\t\xfc\xdf\x08i@'
p3383
tp3384
Rp3385
g3372
tp3386
a(g3385
F1.0490477427844193e-05
tp3387
aa(lp3388
(g3385
F1.0490477427844193e-05
tp3389
ag2
(g6
S'\x1c\x8d\xac\xdd\xd4\xdd\xdc<'
p3390
tp3391
Rp3392
aI297575760
aF1.0
aF-0.00014611911006309604
ag2
(g6
S'\xd6\x0f\xe8\x04\xe0\x08i@'
p3393
tp3394
Rp3395
a(g2
(g6
S'~b\xc6\r\xe0\x08i@'
p3396
tp3397
Rp3398
g3385
tp3399
a(g3398
F1.0967317073544827e-05
tp3400
aa(lp3401
(g3398
F1.0967317073544827e-05
tp3402
ag2
(g6
S'\xe9\xedl\xc8\xd4\xdd\xdc<'
p3403
tp3404
Rp3405
aI297575760
aF1.0
aF-0.00014635754945903834
ag2
(g6
S'&\xb5\xa4\x16\xe0\x08i@'
p3406
tp3407
Rp3408
a(g2
(g6
S'\xce\x07\x83\x1f\xe0\x08i@'
p3409
tp3410
Rp3411
g3398
tp3412
a(g3411
F1.144415669832426e-05
tp3413
aa(lp3414
(g3411
F1.144415669832426e-05
tp3415
ag2
(g6
S'ip$\xb3\xd4\xdd\xdc<'
p3416
tp3417
Rp3418
aI297575760
aF1.0
aF-0.00014659589412339705
ag2
(g6
S'vZa(\xe0\x08i@'
p3419
tp3420
Rp3421
a(g2
(g6
S'\x1e\xad?1\xe0\x08i@'
p3422
tp3423
Rp3424
g3411
tp3425
a(g3424
F1.1920996302148381e-05
tp3426
aa(lp3427
(g3424
F1.1920996302148381e-05
tp3428
ag2
(g6
S'\x9e\x14\xd3\x9d\xd4\xdd\xdc<'
p3429
tp3430
Rp3431
aI297575760
aF1.0
aF-0.00014683433351933938
ag2
(g6
S'\xc6\xff\x1d:\xe0\x08i@'
p3432
tp3433
Rp3434
a(g2
(g6
S'nR\xfcB\xe0\x08i@'
p3435
tp3436
Rp3437
g3424
tp3438
a(g3437
F1.2397835884983084e-05
tp3439
aa(lp3440
(g3437
F1.2397835884983084e-05
tp3441
ag2
(g6
S'\xc1\xdax\x88\xd4\xdd\xdc<'
p3442
tp3443
Rp3444
aI297575760
aF1.0
aF-0.00014707277291528168
ag2
(g6
S'\x16\xa5\xdaK\xe0\x08i@'
p3445
tp3446
Rp3447
a(g2
(g6
S'\xbe\xf7\xb8T\xe0\x08i@'
p3448
tp3449
Rp3450
g3437
tp3451
a(g3450
F1.2874675446794263e-05
tp3452
aa(lp3453
(g3450
F1.2874675446794263e-05
tp3454
ag2
(g6
S'\x98\xc2\x15s\xd4\xdd\xdc<'
p3455
tp3456
Rp3457
aI297575760
aF1.0
aF-0.0001473111175796404
ag2
(g6
S'fJ\x97]\xe0\x08i@'
p3458
tp3459
Rp3460
a(g2
(g6
S'\x0e\x9duf\xe0\x08i@'
p3461
tp3462
Rp3463
g3450
tp3464
a(g3463
F1.335151498754781e-05
tp3465
aa(lp3466
(g3463
F1.335151498754781e-05
tp3467
ag2
(g6
S'A\xcc\xa9]\xd4\xdd\xdc<'
p3468
tp3469
Rp3470
aI297575760
aF1.0
aF-0.00014754946224399912
ag2
(g6
S'\xb6\xefSo\xe0\x08i@'
p3471
tp3472
Rp3473
a(g2
(g6
S'^B2x\xe0\x08i@'
p3474
tp3475
Rp3476
g3463
tp3477
a(g3476
F1.3828354507209618e-05
tp3478
aa(lp3479
(g3476
F1.3828354507209618e-05
tp3480
ag2
(g6
S'\x9d\xf74H\xd4\xdd\xdc<'
p3481
tp3482
Rp3483
aI297575760
aF1.0
aF-0.00014778790163994142
ag2
(g6
S'\x06\x95\x10\x81\xe0\x08i@'
p3484
tp3485
Rp3486
a(g2
(g6
S'\xae\xe7\xee\x89\xe0\x08i@'
p3487
tp3488
Rp3489
g3476
tp3490
a(g3489
F1.4305194005745579e-05
tp3491
aa(lp3492
(g3489
F1.4305194005745579e-05
tp3493
ag2
(g6
S'\xcbD\xb72\xd4\xdd\xdc<'
p3494
tp3495
Rp3496
aI297575760
aF1.0
aF-0.00014802634103588375
ag2
(g6
S'V:\xcd\x92\xe0\x08i@'
p3497
tp3498
Rp3499
a(g2
(g6
S'\xfe\x8c\xab\x9b\xe0\x08i@'
p3500
tp3501
Rp3502
g3489
tp3503
a(g3502
F1.4782033483121586e-05
tp3504
aa(lp3505
(g3502
F1.4782033483121586e-05
tp3506
ag2
(g6
S'\xcb\xb30\x1d\xd4\xdd\xdc<'
p3507
tp3508
Rp3509
aI297575760
aF1.0
aF-0.00014826478043182607
ag2
(g6
S'\xa6\xdf\x89\xa4\xe0\x08i@'
p3510
tp3511
Rp3512
a(g2
(g6
S'N2h\xad\xe0\x08i@'
p3513
tp3514
Rp3515
g3502
tp3516
a(g3515
F1.5258872939303533e-05
tp3517
aa(lp3518
(g3515
F1.5258872939303533e-05
tp3519
ag2
(g6
S'~D\xa1\x07\xd4\xdd\xdc<'
p3520
tp3521
Rp3522
aI297575760
aF1.0
aF-0.00014850312509618476
ag2
(g6
S'\xf6\x84F\xb6\xe0\x08i@'
p3523
tp3524
Rp3525
a(g2
(g6
S'\x9e\xd7$\xbf\xe0\x08i@'
p3526
tp3527
Rp3528
g3515
tp3529
a(g3528
F1.5735712374257312e-05
tp3530
aa(lp3531
(g3528
F1.5735712374257312e-05
tp3532
ag2
(g6
S'=\xf7\x08\xf2\xd3\xdd\xdc<'
p3533
tp3534
Rp3535
aI297575760
aF1.0
aF-0.00014874146976054348
ag2
(g6
S'F*\x03\xc8\xe0\x08i@'
p3536
tp3537
Rp3538
a(g2
(g6
S'\xee|\xe1\xd0\xe0\x08i@'
p3539
tp3540
Rp3541
g3528
tp3542
a(g3541
F1.621255178794882e-05
tp3543
aa(lp3544
(g3541
F1.621255178794882e-05
tp3545
ag2
(g6
S'<\xcbg\xdc\xd3\xdd\xdc<'
p3546
tp3547
Rp3548
aI297575760
aF1.0
aF-0.00014898000388806942
ag2
(g6
S'\x96\xcf\xbf\xd9\xe0\x08i@'
p3549
tp3550
Rp3551
a(g2
(g6
S'>"\x9e\xe2\xe0\x08i@'
p3552
tp3553
Rp3554
g3541
tp3555
a(g3554
F1.6689391180343938e-05
tp3556
aa(lp3557
(g3554
F1.6689391180343938e-05
tp3558
ag2
(g6
S'\x9d\xc1\xbd\xc6\xd3\xdd\xdc<'
p3559
tp3560
Rp3561
aI297575760
aF1.0
aF-0.0001492183485524281
ag2
(g6
S'\xe6t|\xeb\xe0\x08i@'
p3562
tp3563
Rp3564
a(g2
(g6
S'\x8e\xc7Z\xf4\xe0\x08i@'
p3565
tp3566
Rp3567
g3554
tp3568
a(g3567
F1.7166230551408573e-05
tp3569
aa(lp3570
(g3567
F1.7166230551408573e-05
tp3571
ag2
(g6
S'x\xd9\n\xb1\xd3\xdd\xdc<'
p3572
tp3573
Rp3574
aI297575760
aF1.0
aF-0.00014945688267995404
ag2
(g6
S'6\x1a9\xfd\xe0\x08i@'
p3575
tp3576
Rp3577
a(g2
(g6
S'\xdel\x17\x06\xe1\x08i@'
p3578
tp3579
Rp3580
g3567
tp3581
a(g3580
F1.764306990110861e-05
tp3582
aa(lp3583
(g3580
F1.764306990110861e-05
tp3584
ag2
(g6
S'\x08\x13O\x9b\xd3\xdd\xdc<'
p3585
tp3586
Rp3587
aI297575760
aF1.0
aF-0.00014969522734431276
ag2
(g6
S'\x86\xbf\xf5\x0e\xe1\x08i@'
p3588
tp3589
Rp3590
a(g2
(g6
S'.\x12\xd4\x17\xe1\x08i@'
p3591
tp3592
Rp3593
g3580
tp3594
a(g3593
F1.8119909229409943e-05
tp3595
aa(lp3596
(g3593
F1.8119909229409943e-05
tp3597
ag2
(g6
S'\x86n\x8a\x85\xd3\xdd\xdc<'
p3598
tp3599
Rp3600
aI297575760
aF1.0
aF-0.00014993357200867148
ag2
(g6
S'\xd6d\xb2 \xe1\x08i@'
p3601
tp3602
Rp3603
a(g2
(g6
S'~\xb7\x90)\xe1\x08i@'
p3604
tp3605
Rp3606
g3593
tp3607
a(g3606
F1.8596748536278466e-05
tp3608
aa(lp3609
(g3606
F1.8596748536278466e-05
tp3610
ag2
(g6
S'\xb8\xeb\xbco\xd3\xdd\xdc<'
p3611
tp3612
Rp3613
aI297575760
aF1.0
aF-0.0001501721061361974
ag2
(g6
S'&\no2\xe1\x08i@'
p3614
tp3615
Rp3616
a(g2
(g6
S'\xce\\M;\xe1\x08i@'
p3617
tp3618
Rp3619
g3606
tp3620
a(g3619
F1.907358782168007e-05
tp3621
aa(lp3622
(g3619
F1.907358782168007e-05
tp3623
ag2
(g6
S'\xd8\x8a\xe6Y\xd3\xdd\xdc<'
p3624
tp3625
Rp3626
aI297575760
aF1.0
aF-0.00015041064026372332
ag2
(g6
S'v\xaf+D\xe1\x08i@'
p3627
tp3628
Rp3629
a(g2
(g6
S'\x1e\x02\nM\xe1\x08i@'
p3630
tp3631
Rp3632
g3619
tp3633
a(g3632
F1.955042708558065e-05
tp3634
aa(lp3635
(g3632
F1.955042708558065e-05
tp3636
ag2
(g6
S'\xadK\x07D\xd3\xdd\xdc<'
p3637
tp3638
Rp3639
aI297575760
aF1.0
aF-0.00015064879546491483
ag2
(g6
S'\xc6T\xe8U\xe1\x08i@'
p3640
tp3641
Rp3642
a(g2
(g6
S'n\xa7\xc6^\xe1\x08i@'
p3643
tp3644
Rp3645
g3632
tp3646
a(g3645
F2.00272663279461e-05
tp3647
aa(lp3648
(g3645
F2.00272663279461e-05
tp3649
ag2
(g6
S'6.\x1f.\xd3\xdd\xdc<'
p3650
tp3651
Rp3652
aI297575760
aF1.0
aF-0.00015088714012927352
ag2
(g6
S'\x16\xfa\xa4g\xe1\x08i@'
p3653
tp3654
Rp3655
a(g2
(g6
S'\xbeL\x83p\xe1\x08i@'
p3656
tp3657
Rp3658
g3645
tp3659
a(g3658
F2.050410554874231e-05
tp3660
aa(lp3661
(g3658
F2.050410554874231e-05
tp3662
ag2
(g6
S's2.\x18\xd3\xdd\xdc<'
p3663
tp3664
Rp3665
aI297575760
aF1.0
aF-0.00015112548479363224
ag2
(g6
S'f\x9fay\xe1\x08i@'
p3666
tp3667
Rp3668
a(g2
(g6
S'\x0e\xf2?\x82\xe1\x08i@'
p3669
tp3670
Rp3671
g3658
tp3672
a(g3671
F2.098094474793517e-05
tp3673
aa(lp3674
(g3671
F2.098094474793517e-05
tp3675
ag2
(g6
S'\xd8X4\x02\xd3\xdd\xdc<'
p3676
tp3677
Rp3678
aI297575760
aF1.0
aF-0.0001513642083843254
ag2
(g6
S'\xb6D\x1e\x8b\xe1\x08i@'
p3679
tp3680
Rp3681
a(g2
(g6
S'^\x97\xfc\x93\xe1\x08i@'
p3682
tp3683
Rp3684
g3671
tp3685
a(g3684
F2.145778392549058e-05
tp3686
aa(lp3687
(g3684
F2.145778392549058e-05
tp3688
ag2
(g6
S'\xb7\xa01\xec\xd2\xdd\xdc<'
p3689
tp3690
Rp3691
aI297575760
aF1.0
aF-0.00015160236358551687
ag2
(g6
S'\x06\xea\xda\x9c\xe1\x08i@'
p3692
tp3693
Rp3694
a(g2
(g6
S'\xae<\xb9\xa5\xe1\x08i@'
p3695
tp3696
Rp3697
g3684
tp3698
a(g3697
F2.193462308137443e-05
tp3699
aa(lp3700
(g3697
F2.193462308137443e-05
tp3701
ag2
(g6
S'K\n&\xd6\xd2\xdd\xdc<'
p3702
tp3703
Rp3704
aI297575760
aF1.0
aF-0.0001518408977130428
ag2
(g6
S'V\x8f\x97\xae\xe1\x08i@'
p3705
tp3706
Rp3707
a(g2
(g6
S'\xfe\xe1u\xb7\xe1\x08i@'
p3708
tp3709
Rp3710
g3697
tp3711
a(g3710
F2.241146221555261e-05
tp3712
aa(lp3713
(g3710
F2.241146221555261e-05
tp3714
ag2
(g6
S'\xf5\x95\x11\xc0\xd2\xdd\xdc<'
p3715
tp3716
Rp3717
aI297575759
aF1.0
aF-0.00015207924339952268
ag2
(g6
S'\xa64T\xc0\xe1\x08i@'
p3718
tp3719
Rp3720
a(g2
(g6
S'M\x872\xc9\xe1\x08i@'
p3721
tp3722
Rp3723
g3710
tp3724
a(g3723
F2.2888301326388603e-05
tp3725
aa(lp3726
(g3723
F2.2888301326388603e-05
tp3727
ag2
(g6
S'*C\xf4\xa9\xd2\xdd\xdc<'
p3728
tp3729
Rp3730
aI297575759
aF1.0
aF-0.0001523177775286518
ag2
(g6
S'\xf4\xd9\x10\xd2\xe1\x08i@'
p3731
tp3732
Rp3733
a(g2
(g6
S'\x9c,\xef\xda\xe1\x08i@'
p3734
tp3735
Rp3736
g3723
tp3737
a(g3736
F2.3365140415450715e-05
tp3738
aa(lp3739
(g3736
F2.3365140415450715e-05
tp3740
ag2
(g6
S'b\x12\xce\x93\xd2\xdd\xdc<'
p3741
tp3742
Rp3743
aI297575760
aF1.0
aF-0.00015255612116928615
ag2
(g6
S'D\x7f\xcd\xe3\xe1\x08i@'
p3744
tp3745
Rp3746
a(g2
(g6
S'\xec\xd1\xab\xec\xe1\x08i@'
p3747
tp3748
Rp3749
g3736
tp3750
a(g3749
F2.384197948430725e-05
tp3751
aa(lp3752
(g3749
F2.384197948430725e-05
tp3753
ag2
(g6
S':\x03\x9f}\xd2\xdd\xdc<'
p3754
tp3755
Rp3756
aI297575760
aF1.0
aF-0.00015279446583364487
ag2
(g6
S'\x94$\x8a\xf5\xe1\x08i@'
p3757
tp3758
Rp3759
a(g2
(g6
S'<wh\xfe\xe1\x08i@'
p3760
tp3761
Rp3762
g3749
tp3763
a(g3762
F2.431881853132169e-05
tp3764
aa(lp3765
(g3762
F2.431881853132169e-05
tp3766
ag2
(g6
S'\xc8\x15gg\xd2\xdd\xdc<'
p3767
tp3768
Rp3769
aI297575760
aF1.0
aF-0.00015303299996117077
ag2
(g6
S'\xe4\xc9F\x07\xe2\x08i@'
p3770
tp3771
Rp3772
a(g2
(g6
S'\x8c\x1c%\x10\xe2\x08i@'
p3773
tp3774
Rp3775
g3762
tp3776
a(g3775
F2.4795657556459927e-05
tp3777
aa(lp3778
(g3775
F2.4795657556459927e-05
tp3779
ag2
(g6
S'|J&Q\xd2\xdd\xdc<'
p3780
tp3781
Rp3782
aI297575760
aF1.0
aF-0.0001532713446255295
ag2
(g6
S'4o\x03\x19\xe2\x08i@'
p3783
tp3784
Rp3785
a(g2
(g6
S'\xdc\xc1\xe1!\xe2\x08i@'
p3786
tp3787
Rp3788
g3775
tp3789
a(g3788
F2.5272496559687857e-05
tp3790
aa(lp3791
(g3788
F2.5272496559687857e-05
tp3792
ag2
(g6
S'r\xa0\xdc:\xd2\xdd\xdc<'
p3793
tp3794
Rp3795
aI297575760
aF1.0
aF-0.0001535096892898882
ag2
(g6
S'\x84\x14\xc0*\xe2\x08i@'
p3796
tp3797
Rp3798
a(g2
(g6
S',g\x9e3\xe2\x08i@'
p3799
tp3800
Rp3801
g3788
tp3802
a(g3801
F2.5749335540971365e-05
tp3803
aa(lp3804
(g3801
F2.5749335540971365e-05
tp3805
ag2
(g6
S'\x90\x18\x8a$\xd2\xdd\xdc<'
p3806
tp3807
Rp3808
aI297575760
aF1.0
aF-0.00015374822341741412
ag2
(g6
S'\xd4\xb9|<\xe2\x08i@'
p3809
tp3810
Rp3811
a(g2
(g6
S'|\x0c[E\xe2\x08i@'
p3812
tp3813
Rp3814
g3801
tp3815
a(g3814
F2.622617450027635e-05
tp3816
aa(lp3817
(g3814
F2.622617450027635e-05
tp3818
ag2
(g6
S'a\xb2.\x0e\xd2\xdd\xdc<'
p3819
tp3820
Rp3821
aI297575760
aF1.0
aF-0.00015398675754494005
ag2
(g6
S'$_9N\xe2\x08i@'
p3822
tp3823
Rp3824
a(g2
(g6
S'\xcc\xb1\x17W\xe2\x08i@'
p3825
tp3826
Rp3827
g3814
tp3828
a(g3827
F2.6703013437568703e-05
tp3829
aa(lp3830
(g3827
F2.6703013437568703e-05
tp3831
ag2
(g6
S'!n\xca\xf7\xd1\xdd\xdc<'
p3832
tp3833
Rp3834
aI297575760
aF1.0
aF-0.00015422491274613156
ag2
(g6
S't\x04\xf6_\xe2\x08i@'
p3835
tp3836
Rp3837
a(g2
(g6
S'\x1cW\xd4h\xe2\x08i@'
p3838
tp3839
Rp3840
g3827
tp3841
a(g3840
F2.717985235281432e-05
tp3842
aa(lp3843
(g3840
F2.717985235281432e-05
tp3844
ag2
(g6
S'\\K]\xe1\xd1\xdd\xdc<'
p3845
tp3846
Rp3847
aI297575760
aF1.0
aF-0.00015446344687365746
ag2
(g6
S'\xc4\xa9\xb2q\xe2\x08i@'
p3848
tp3849
Rp3850
a(g2
(g6
S'l\xfc\x90z\xe2\x08i@'
p3851
tp3852
Rp3853
g3840
tp3854
a(g3853
F2.765669124597909e-05
tp3855
aa(lp3856
(g3853
F2.765669124597909e-05
tp3857
ag2
(g6
S'\x84J\xe7\xca\xd1\xdd\xdc<'
p3858
tp3859
Rp3860
aI297575760
aF1.0
aF-0.00015470179153801618
ag2
(g6
S'\x14Oo\x83\xe2\x08i@'
p3861
tp3862
Rp3863
a(g2
(g6
S'\xbc\xa1M\x8c\xe2\x08i@'
p3864
tp3865
Rp3866
g3853
tp3867
a(g3866
F2.8133530117028907e-05
tp3868
aa(lp3869
(g3866
F2.8133530117028907e-05
tp3870
ag2
(g6
S'akh\xb4\xd1\xdd\xdc<'
p3871
tp3872
Rp3873
aI297575760
aF1.0
aF-0.0001549401362023749
ag2
(g6
S'd\xf4+\x95\xe2\x08i@'
p3874
tp3875
Rp3876
a(g2
(g6
S'\x0cG\n\x9e\xe2\x08i@'
p3877
tp3878
Rp3879
g3866
tp3880
a(g3879
F2.8610368965929663e-05
tp3881
aa(lp3882
(g3879
F2.8610368965929663e-05
tp3883
ag2
(g6
S',\xae\xe0\x9d\xd1\xdd\xdc<'
p3884
tp3885
Rp3886
aI297575760
aF1.0
aF-0.0001551784808667336
ag2
(g6
S'\xb4\x99\xe8\xa6\xe2\x08i@'
p3887
tp3888
Rp3889
a(g2
(g6
S'\\\xec\xc6\xaf\xe2\x08i@'
p3890
tp3891
Rp3892
g3879
tp3893
a(g3892
F2.9087207792647253e-05
tp3894
aa(lp3895
(g3892
F2.9087207792647253e-05
tp3896
ag2
(g6
S'\xe5\x12P\x87\xd1\xdd\xdc<'
p3897
tp3898
Rp3899
aI297575760
aF1.0
aF-0.00015541701499425953
ag2
(g6
S'\x04?\xa5\xb8\xe2\x08i@'
p3900
tp3901
Rp3902
a(g2
(g6
S'\xac\x91\x83\xc1\xe2\x08i@'
p3903
tp3904
Rp3905
g3892
tp3906
a(g3905
F2.956404659714757e-05
tp3907
aa(lp3908
(g3905
F2.956404659714757e-05
tp3909
ag2
(g6
S'\x19\x99\xb6p\xd1\xdd\xdc<'
p3910
tp3911
Rp3912
aI297575760
aF1.0
aF-0.00015565517019545103
ag2
(g6
S'T\xe4a\xca\xe2\x08i@'
p3913
tp3914
Rp3915
a(g2
(g6
S'\xfc6@\xd3\xe2\x08i@'
p3916
tp3917
Rp3918
g3905
tp3919
a(g3918
F3.0040885379396507e-05
tp3920
aa(lp3921
(g3918
F3.0040885379396507e-05
tp3922
ag2
(g6
S'\x01A\x14Z\xd1\xdd\xdc<'
p3923
tp3924
Rp3925
aI297575760
aF1.0
aF-0.00015589389378614418
ag2
(g6
S'\xa4\x89\x1e\xdc\xe2\x08i@'
p3926
tp3927
Rp3928
a(g2
(g6
S'L\xdc\xfc\xe4\xe2\x08i@'
p3929
tp3930
Rp3931
g3918
tp3932
a(g3931
F3.051772413935995e-05
tp3933
aa(lp3934
(g3931
F3.051772413935995e-05
tp3935
ag2
(g6
S'\x11\x0biC\xd1\xdd\xdc<'
p3936
tp3937
Rp3938
aI297575760
aF1.0
aF-0.0001561324279136701
ag2
(g6
S'\xf4.\xdb\xed\xe2\x08i@'
p3939
tp3940
Rp3941
a(g2
(g6
S'\x9c\x81\xb9\xf6\xe2\x08i@'
p3942
tp3943
Rp3944
g3931
tp3945
a(g3944
F3.0994562877003804e-05
tp3946
aa(lp3947
(g3944
F3.0994562877003804e-05
tp3948
ag2
(g6
S'\xd5\xf6\xb4,\xd1\xdd\xdc<'
p3949
tp3950
Rp3951
aI297575760
aF1.0
aF-0.00015637039365169438
ag2
(g6
S'D\xd4\x97\xff\xe2\x08i@'
p3952
tp3953
Rp3954
a(g2
(g6
S'\xec&v\x08\xe3\x08i@'
p3955
tp3956
Rp3957
g3944
tp3958
a(g3957
F3.1471401592293956e-05
tp3959
aa(lp3960
(g3957
F3.1471401592293956e-05
tp3961
ag2
(g6
S'\x87\x04\xf8\x15\xd1\xdd\xdc<'
p3962
tp3963
Rp3964
aI297575760
aF1.0
aF-0.00015660911724238753
ag2
(g6
S'\x94yT\x11\xe3\x08i@'
p3965
tp3966
Rp3967
a(g2
(g6
S'<\xcc2\x1a\xe3\x08i@'
p3968
tp3969
Rp3970
g3957
tp3971
a(g3970
F3.19482402851963e-05
tp3972
aa(lp3973
(g3970
F3.19482402851963e-05
tp3974
ag2
(g6
S'@32\xff\xd0\xdd\xdc<'
p3975
tp3976
Rp3977
aI297575760
aF1.0
aF-0.00015684746190674622
ag2
(g6
S'\xe4\x1e\x11#\xe3\x08i@'
p3978
tp3979
Rp3980
a(g2
(g6
S'\x8cq\xef+\xe3\x08i@'
p3981
tp3982
Rp3983
g3970
tp3984
a(g3983
F3.242507895567672e-05
tp3985
aa(lp3986
(g3983
F3.242507895567672e-05
tp3987
ag2
(g6
S'\xce\x84c\xe8\xd0\xdd\xdc<'
p3988
tp3989
Rp3990
aI297575760
aF1.0
aF-0.00015708618549743937
ag2
(g6
S'4\xc4\xcd4\xe3\x08i@'
p3991
tp3992
Rp3993
a(g2
(g6
S'\xdc\x16\xac=\xe3\x08i@'
p3994
tp3995
Rp3996
g3983
tp3997
a(g3996
F3.290191760370113e-05
tp3998
aa(lp3999
(g3996
F3.290191760370113e-05
tp4000
ag2
(g6
S'd\xf7\x8b\xd1\xd0\xdd\xdc<'
p4001
tp4002
Rp4003
aI297575760
aF1.0
aF-0.0001573245301617981
ag2
(g6
S'\x84i\x8aF\xe3\x08i@'
p4004
tp4005
Rp4006
a(g2
(g6
S',\xbchO\xe3\x08i@'
p4007
tp4008
Rp4009
g3996
tp4010
a(g4009
F3.33787562292354e-05
tp4011
aa(lp4012
(g4009
F3.33787562292354e-05
tp4013
ag2
(g6
S'\xe7\x8b\xab\xba\xd0\xdd\xdc<'
p4014
tp4015
Rp4016
aI297575760
aF1.0
aF-0.00015756249589982235
ag2
(g6
S'\xd4\x0eGX\xe3\x08i@'
p4017
tp4018
Rp4019
a(g2
(g6
S'|a%a\xe3\x08i@'
p4020
tp4021
Rp4022
g4009
tp4023
a(g4022
F3.385559483224543e-05
tp4024
aa(lp4025
(g4022
F3.385559483224543e-05
tp4026
ag2
(g6
S'\xccB\xc2\xa3\xd0\xdd\xdc<'
p4027
tp4028
Rp4029
aI297575760
aF1.0
aF-0.0001578012194905155
ag2
(g6
S'$\xb4\x03j\xe3\x08i@'
p4030
tp4031
Rp4032
a(g2
(g6
S'\xcc\x06\xe2r\xe3\x08i@'
p4033
tp4034
Rp4035
g4022
tp4036
a(g4035
F3.4332433412697126e-05
tp4037
aa(lp4038
(g4035
F3.4332433412697126e-05
tp4039
ag2
(g6
S'\xb8\x1a\xd0\x8c\xd0\xdd\xdc<'
p4040
tp4041
Rp4042
aI297575760
aF1.0
aF-0.00015803956415487422
ag2
(g6
S'tY\xc0{\xe3\x08i@'
p4043
tp4044
Rp4045
a(g2
(g6
S'\x1c\xac\x9e\x84\xe3\x08i@'
p4046
tp4047
Rp4048
g4035
tp4049
a(g4048
F3.4809271970556365e-05
tp4050
aa(lp4051
(g4048
F3.4809271970556365e-05
tp4052
ag2
(g6
S'\x93\x14\xd5u\xd0\xdd\xdc<'
p4053
tp4054
Rp4055
aI297575760
aF1.0
aF-0.0001582779088192329
ag2
(g6
S'\xc4\xfe|\x8d\xe3\x08i@'
p4056
tp4057
Rp4058
a(g2
(g6
S'lQ[\x96\xe3\x08i@'
p4059
tp4060
Rp4061
g4048
tp4062
a(g4061
F3.528611050578904e-05
tp4063
aa(lp4064
(g4061
F3.528611050578904e-05
tp4065
ag2
(g6
S'[0\xd1^\xd0\xdd\xdc<'
p4066
tp4067
Rp4068
aI297575760
aF1.0
aF-0.00015851625348359163
ag2
(g6
S'\x14\xa49\x9f\xe3\x08i@'
p4069
tp4070
Rp4071
a(g2
(g6
S'\xbc\xf6\x17\xa8\xe3\x08i@'
p4072
tp4073
Rp4074
g4061
tp4075
a(g4074
F3.5762949018361055e-05
tp4076
aa(lp4077
(g4074
F3.5762949018361055e-05
tp4078
ag2
(g6
S'\x11n\xc4G\xd0\xdd\xdc<'
p4079
tp4080
Rp4081
aI297575760
aF1.0
aF-0.00015875459814795035
ag2
(g6
S'dI\xf6\xb0\xe3\x08i@'
p4082
tp4083
Rp4084
a(g2
(g6
S'\x0c\x9c\xd4\xb9\xe3\x08i@'
p4085
tp4086
Rp4087
g4074
tp4088
a(g4087
F3.62397875082383e-05
tp4089
aa(lp4090
(g4087
F3.62397875082383e-05
tp4091
ag2
(g6
S'\xb5\xcd\xae0\xd0\xdd\xdc<'
p4092
tp4093
Rp4094
aI297575760
aF1.0
aF-0.00015899294281230904
ag2
(g6
S'\xb4\xee\xb2\xc2\xe3\x08i@'
p4095
tp4096
Rp4097
a(g2
(g6
S'\\A\x91\xcb\xe3\x08i@'
p4098
tp4099
Rp4100
g4087
tp4101
a(g4100
F3.6716625975386664e-05
tp4102
aa(lp4103
(g4100
F3.6716625975386664e-05
tp4104
ag2
(g6
S'aN\x90\x19\xd0\xdd\xdc<'
p4105
tp4106
Rp4107
aI297575760
aF1.0
aF-0.0001592316664030022
ag2
(g6
S'\x04\x94o\xd4\xe3\x08i@'
p4108
tp4109
Rp4110
a(g2
(g6
S'\xac\xe6M\xdd\xe3\x08i@'
p4111
tp4112
Rp4113
g4100
tp4114
a(g4113
F3.7193464419772036e-05
tp4115
aa(lp4116
(g4113
F3.7193464419772036e-05
tp4117
ag2
(g6
S'\xe2\xf1h\x02\xd0\xdd\xdc<'
p4118
tp4119
Rp4120
aI297575760
aF1.0
aF-0.0001594700110673609
ag2
(g6
S'T9,\xe6\xe3\x08i@'
p4121
tp4122
Rp4123
a(g2
(g6
S'\xfc\x8b\n\xef\xe3\x08i@'
p4124
tp4125
Rp4126
g4113
tp4127
a(g4126
F3.767030284136032e-05
tp4128
aa(lp4129
(g4126
F3.767030284136032e-05
tp4130
ag2
(g6
S'i\xb68\xeb\xcf\xdd\xdc<'
p4131
tp4132
Rp4133
aI297575760
aF1.0
aF-0.0001597083557317196
ag2
(g6
S'\xa4\xde\xe8\xf7\xe3\x08i@'
p4134
tp4135
Rp4136
a(g2
(g6
S'L1\xc7\x00\xe4\x08i@'
p4137
tp4138
Rp4139
g4126
tp4140
a(g4139
F3.8147141240117406e-05
tp4141
aa(lp4142
(g4139
F3.8147141240117406e-05
tp4143
ag2
(g6
S'\xdf\x9c\xff\xd3\xcf\xdd\xdc<'
p4144
tp4145
Rp4146
aI297575760
aF1.0
aF-0.0001599463214697439
ag2
(g6
S'\xf4\x83\xa5\t\xe4\x08i@'
p4147
tp4148
Rp4149
a(g2
(g6
S'\x9c\xd6\x83\x12\xe4\x08i@'
p4150
tp4151
Rp4152
g4139
tp4153
a(g4152
F3.862397961600918e-05
tp4154
aa(lp4155
(g4152
F3.862397961600918e-05
tp4156
ag2
(g6
S'C\xa5\xbd\xbc\xcf\xdd\xdc<'
p4157
tp4158
Rp4159
aI297575760
aF1.0
aF-0.00016018504506043704
ag2
(g6
S'D)b\x1b\xe4\x08i@'
p4160
tp4161
Rp4162
a(g2
(g6
S'\xec{@$\xe4\x08i@'
p4163
tp4164
Rp4165
g4152
tp4166
a(g4165
F3.910081796900154e-05
tp4167
aa(lp4168
(g4165
F3.910081796900154e-05
tp4169
ag2
(g6
S'!\xcfr\xa5\xcf\xdd\xdc<'
p4170
tp4171
Rp4172
aI297575760
aF1.0
aF-0.00016042376865113016
ag2
(g6
S'\x94\xce\x1e-\xe4\x08i@'
p4173
tp4174
Rp4175
a(g2
(g6
S'<!\xfd5\xe4\x08i@'
p4176
tp4177
Rp4178
g4165
tp4179
a(g4178
F3.9577656299060376e-05
tp4180
aa(lp4181
(g4178
F3.9577656299060376e-05
tp4182
ag2
(g6
S'a\x1b\x1f\x8e\xcf\xdd\xdc<'
p4183
tp4184
Rp4185
aI297575760
aF1.0
aF-0.00016066211331548888
ag2
(g6
S'\xe4s\xdb>\xe4\x08i@'
p4186
tp4187
Rp4188
a(g2
(g6
S'\x8c\xc6\xb9G\xe4\x08i@'
p4189
tp4190
Rp4191
g4178
tp4192
a(g4191
F4.005449460615159e-05
tp4193
aa(lp4194
(g4191
F4.005449460615159e-05
tp4195
ag2
(g6
S'\x1b\x89\xc2v\xcf\xdd\xdc<'
p4196
tp4197
Rp4198
aI297575760
aF1.0
aF-0.0001609004579798476
ag2
(g6
S'4\x19\x98P\xe4\x08i@'
p4199
tp4200
Rp4201
a(g2
(g6
S'\xdckvY\xe4\x08i@'
p4202
tp4203
Rp4204
g4191
tp4205
a(g4204
F4.0531332890241064e-05
tp4206
aa(lp4207
(g4204
F4.0531332890241064e-05
tp4208
ag2
(g6
S'\xc4\x18]_\xcf\xdd\xdc<'
p4209
tp4210
Rp4211
aI297575760
aF1.0
aF-0.00016113842371787187
ag2
(g6
S'\x84\xbeTb\xe4\x08i@'
p4212
tp4213
Rp4214
a(g2
(g6
S',\x113k\xe4\x08i@'
p4215
tp4216
Rp4217
g4204
tp4218
a(g4217
F4.10081711512947e-05
tp4219
aa(lp4220
(g4217
F4.10081711512947e-05
tp4221
ag2
(g6
S'\xe7\xc9\xeeG\xcf\xdd\xdc<'
p4222
tp4223
Rp4224
aI297575760
aF1.0
aF-0.00016137714730856501
ag2
(g6
S'\xd4c\x11t\xe4\x08i@'
p4225
tp4226
Rp4227
a(g2
(g6
S'|\xb6\xef|\xe4\x08i@'
p4228
tp4229
Rp4230
g4217
tp4231
a(g4230
F4.1485009389278383e-05
tp4232
aa(lp4233
(g4230
F4.1485009389278383e-05
tp4234
ag2
(g6
S'\xf8\x9cw0\xcf\xdd\xdc<'
p4235
tp4236
Rp4237
aI297575760
aF1.0
aF-0.00016161549197292373
ag2
(g6
S'$\t\xce\x85\xe4\x08i@'
p4238
tp4239
Rp4240
a(g2
(g6
S'\xcc[\xac\x8e\xe4\x08i@'
p4241
tp4242
Rp4243
g4230
tp4244
a(g4243
F4.196184760415801e-05
tp4245
aa(lp4246
(g4243
F4.196184760415801e-05
tp4247
ag2
(g6
S'\x84\x91\xf7\x18\xcf\xdd\xdc<'
p4248
tp4249
Rp4250
aI297575760
aF1.0
aF-0.00016185383663728243
ag2
(g6
S't\xae\x8a\x97\xe4\x08i@'
p4251
tp4252
Rp4253
a(g2
(g6
S'\x1c\x01i\xa0\xe4\x08i@'
p4254
tp4255
Rp4256
g4243
tp4257
a(g4256
F4.243868579589947e-05
tp4258
aa(lp4259
(g4256
F4.243868579589947e-05
tp4260
ag2
(g6
S'\xe5\xa8n\x01\xcf\xdd\xdc<'
p4261
tp4262
Rp4263
aI297575760
aF1.0
aF-0.00016209218130164115
ag2
(g6
S'\xc4SG\xa9\xe4\x08i@'
p4264
tp4265
Rp4266
a(g2
(g6
S'l\xa6%\xb2\xe4\x08i@'
p4267
tp4268
Rp4269
g4256
tp4270
a(g4269
F4.291552396446867e-05
tp4271
aa(lp4272
(g4269
F4.291552396446867e-05
tp4273
ag2
(g6
S'\xd9\xe0\xdc\xe9\xce\xdd\xdc<'
p4274
tp4275
Rp4276
aI297575760
aF1.0
aF-0.00016233052596599987
ag2
(g6
S'\x14\xf9\x03\xbb\xe4\x08i@'
p4277
tp4278
Rp4279
a(g2
(g6
S'\xbcK\xe2\xc3\xe4\x08i@'
p4280
tp4281
Rp4282
g4269
tp4283
a(g4282
F4.339236210983148e-05
tp4284
aa(lp4285
(g4282
F4.339236210983148e-05
tp4286
ag2
(g6
S'/;B\xd2\xce\xdd\xdc<'
p4287
tp4288
Rp4289
aI297575760
aF1.0
aF-0.00016256887063035856
ag2
(g6
S'd\x9e\xc0\xcc\xe4\x08i@'
p4290
tp4291
Rp4292
a(g2
(g6
S'\x0c\xf1\x9e\xd5\xe4\x08i@'
p4293
tp4294
Rp4295
g4282
tp4296
a(g4295
F4.386920023195381e-05
tp4297
aa(lp4298
(g4295
F4.386920023195381e-05
tp4299
ag2
(g6
S's\xb7\x9e\xba\xce\xdd\xdc<'
p4300
tp4301
Rp4302
aI297575760
aF1.0
aF-0.0001628075942210517
ag2
(g6
S'\xb4C}\xde\xe4\x08i@'
p4303
tp4304
Rp4305
a(g2
(g6
S'\\\x96[\xe7\xe4\x08i@'
p4306
tp4307
Rp4308
g4295
tp4309
a(g4308
F4.434603833080155e-05
tp4310
aa(lp4311
(g4308
F4.434603833080155e-05
tp4312
ag2
(g6
S'2U\xf2\xa2\xce\xdd\xdc<'
p4313
tp4314
Rp4315
aI297575760
aF1.0
aF-0.00016304631781174485
ag2
(g6
S'\x04\xe99\xf0\xe4\x08i@'
p4316
tp4317
Rp4318
a(g2
(g6
S'\xac;\x18\xf9\xe4\x08i@'
p4319
tp4320
Rp4321
g4308
tp4322
a(g4321
F4.482287640634059e-05
tp4323
aa(lp4324
(g4321
F4.482287640634059e-05
tp4325
ag2
(g6
S'\xdf\x14=\x8b\xce\xdd\xdc<'
p4326
tp4327
Rp4328
aI297575760
aF1.0
aF-0.00016328466247610357
ag2
(g6
S'T\x8e\xf6\x01\xe5\x08i@'
p4329
tp4330
Rp4331
a(g2
(g6
S'\xfc\xe0\xd4\n\xe5\x08i@'
p4332
tp4333
Rp4334
g4321
tp4335
a(g4334
F4.529971445853683e-05
tp4336
aa(lp4337
(g4334
F4.529971445853683e-05
tp4338
ag2
(g6
S'c\xf6~s\xce\xdd\xdc<'
p4339
tp4340
Rp4341
aI297575759
aF1.0
aF-0.00016352262931315975
ag2
(g6
S'\xa43\xb3\x13\xe5\x08i@'
p4342
tp4343
Rp4344
a(g2
(g6
S'K\x86\x91\x1c\xe5\x08i@'
p4345
tp4346
Rp4347
g4334
tp4348
a(g4347
F4.5776552485753744e-05
tp4349
aa(lp4350
(g4347
F4.5776552485753744e-05
tp4351
ag2
(g6
S'w\xf9\xb7[\xce\xdd\xdc<'
p4352
tp4353
Rp4354
aI297575759
aF1.0
aF-0.00016376097397912038
ag2
(g6
S'\xf2\xd8o%\xe5\x08i@'
p4355
tp4356
Rp4357
a(g2
(g6
S'\x9a+N.\xe5\x08i@'
p4358
tp4359
Rp4360
g4347
tp4361
a(g4360
F4.625339048955964e-05
tp4362
aa(lp4363
(g4360
F4.625339048955964e-05
tp4364
ag2
(g6
S'\x92\x1e\xe8C\xce\xdd\xdc<'
p4365
tp4366
Rp4367
aI297575760
aF1.0
aF-0.00016399931754284525
ag2
(g6
S'B~,7\xe5\x08i@'
p4368
tp4369
Rp4370
a(g2
(g6
S'\xea\xd0\n@\xe5\x08i@'
p4371
tp4372
Rp4373
g4360
tp4374
a(g4373
F4.6730228471522817e-05
tp4375
aa(lp4376
(g4373
F4.6730228471522817e-05
tp4377
ag2
(g6
S'\x84e\x0f,\xce\xdd\xdc<'
p4378
tp4379
Rp4380
aI297575760
aF1.0
aF-0.0001642380411335384
ag2
(g6
S'\x92#\xe9H\xe5\x08i@'
p4381
tp4382
Rp4383
a(g2
(g6
S':v\xc7Q\xe5\x08i@'
p4384
tp4385
Rp4386
g4373
tp4387
a(g4386
F4.720706643000676e-05
tp4388
aa(lp4389
(g4386
F4.720706643000676e-05
tp4390
ag2
(g6
S'\xf0\xcd-\x14\xce\xdd\xdc<'
p4391
tp4392
Rp4393
aI297575760
aF1.0
aF-0.00016447676472423155
ag2
(g6
S'\xe2\xc8\xa5Z\xe5\x08i@'
p4394
tp4395
Rp4396
a(g2
(g6
S'\x8a\x1b\x84c\xe5\x08i@'
p4397
tp4398
Rp4399
g4386
tp4400
a(g4399
F4.7683904364977366e-05
tp4401
aa(lp4402
(g4399
F4.7683904364977366e-05
tp4403
ag2
(g6
S'\xbeXC\xfc\xcd\xdd\xdc<'
p4404
tp4405
Rp4406
aI297575760
aF1.0
aF-0.00016471473046225584
ag2
(g6
S'2nbl\xe5\x08i@'
p4407
tp4408
Rp4409
a(g2
(g6
S'\xda\xc0@u\xe5\x08i@'
p4410
tp4411
Rp4412
g4399
tp4413
a(g4412
F4.816074227640053e-05
tp4414
aa(lp4415
(g4412
F4.816074227640053e-05
tp4416
ag2
(g6
S'\x92\x04P\xe4\xcd\xdd\xdc<'
p4417
tp4418
Rp4419
aI297575760
aF1.0
aF-0.00016495345405294896
ag2
(g6
S'\x82\x13\x1f~\xe5\x08i@'
p4420
tp4421
Rp4422
a(g2
(g6
S'*f\xfd\x86\xe5\x08i@'
p4423
tp4424
Rp4425
g4412
tp4426
a(g4425
F4.863758016424213e-05
tp4427
aa(lp4428
(g4425
F4.863758016424213e-05
tp4429
ag2
(g6
S'\xc9\xd2S\xcc\xcd\xdd\xdc<'
p4430
tp4431
Rp4432
aI297575760
aF1.0
aF-0.00016519179871730768
ag2
(g6
S'\xd2\xb8\xdb\x8f\xe5\x08i@'
p4433
tp4434
Rp4435
a(g2
(g6
S'z\x0b\xba\x98\xe5\x08i@'
p4436
tp4437
Rp4438
g4425
tp4439
a(g4438
F4.9114418028468074e-05
tp4440
aa(lp4441
(g4438
F4.9114418028468074e-05
tp4442
ag2
(g6
S'\xed\xc2N\xb4\xcd\xdd\xdc<'
p4443
tp4444
Rp4445
aI297575760
aF1.0
aF-0.0001654301433816664
ag2
(g6
S'"^\x98\xa1\xe5\x08i@'
p4446
tp4447
Rp4448
a(g2
(g6
S'\xca\xb0v\xaa\xe5\x08i@'
p4449
tp4450
Rp4451
g4438
tp4452
a(g4451
F4.9591255869044255e-05
tp4453
aa(lp4454
(g4451
F4.9591255869044255e-05
tp4455
ag2
(g6
S'\x19\xd4@\x9c\xcd\xdd\xdc<'
p4456
tp4457
Rp4458
aI297575760
aF1.0
aF-0.00016566810911969066
ag2
(g6
S'r\x03U\xb3\xe5\x08i@'
p4459
tp4460
Rp4461
a(g2
(g6
S'\x1aV3\xbc\xe5\x08i@'
p4462
tp4463
Rp4464
g4451
tp4465
a(g4464
F5.0068093685936554e-05
tp4466
aa(lp4467
(g4464
F5.0068093685936554e-05
tp4468
ag2
(g6
S'\xa6\x07*\x84\xcd\xdd\xdc<'
p4469
tp4470
Rp4471
aI297575760
aF1.0
aF-0.00016590721163671824
ag2
(g6
S'\xc2\xa8\x11\xc5\xe5\x08i@'
p4472
tp4473
Rp4474
a(g2
(g6
S'j\xfb\xef\xcd\xe5\x08i@'
p4475
tp4476
Rp4477
g4464
tp4478
a(g4477
F5.0544931479110874e-05
tp4479
aa(lp4480
(g4477
F5.0544931479110874e-05
tp4481
ag2
(g6
S'\xad\\\nl\xcd\xdd\xdc<'
p4482
tp4483
Rp4484
aI297575760
aF1.0
aF-0.00016614555630107696
ag2
(g6
S'\x12N\xce\xd6\xe5\x08i@'
p4485
tp4486
Rp4487
a(g2
(g6
S'\xba\xa0\xac\xdf\xe5\x08i@'
p4488
tp4489
Rp4490
g4477
tp4491
a(g4490
F5.10217692485331e-05
tp4492
aa(lp4493
(g4490
F5.10217692485331e-05
tp4494
ag2
(g6
S'\x16\xd4\xe1S\xcd\xdd\xdc<'
p4495
tp4496
Rp4497
aI297575760
aF1.0
aF-0.00016638390096543565
ag2
(g6
S'b\xf3\x8a\xe8\xe5\x08i@'
p4498
tp4499
Rp4500
a(g2
(g6
S'\nFi\xf1\xe5\x08i@'
p4501
tp4502
Rp4503
g4490
tp4504
a(g4503
F5.149860699416914e-05
tp4505
aa(lp4506
(g4503
F5.149860699416914e-05
tp4507
ag2
(g6
S'\x87l\xb0;\xcd\xdd\xdc<'
p4508
tp4509
Rp4510
aI297575760
aF1.0
aF-0.00016662224562979437
ag2
(g6
S'\xb2\x98G\xfa\xe5\x08i@'
p4511
tp4512
Rp4513
a(g2
(g6
S'Z\xeb%\x03\xe6\x08i@'
p4514
tp4515
Rp4516
g4503
tp4517
a(g4516
F5.197544471598487e-05
tp4518
aa(lp4519
(g4516
F5.197544471598487e-05
tp4520
ag2
(g6
S"X'v#\xcd\xdd\xdc<"
p4521
tp4522
Rp4523
aI297575760
aF1.0
aF-0.0001668605902941531
ag2
(g6
S'\x02>\x04\x0c\xe6\x08i@'
p4524
tp4525
Rp4526
a(g2
(g6
S'\xaa\x90\xe2\x14\xe6\x08i@'
p4527
tp4528
Rp4529
g4516
tp4530
a(g4529
F5.24522824139462e-05
tp4531
aa(lp4532
(g4529
F5.24522824139462e-05
tp4533
ag2
(g6
S'\xa5\x033\x0b\xcd\xdd\xdc<'
p4534
tp4535
Rp4536
aI297575760
aF1.0
aF-0.00016709893495851178
ag2
(g6
S'R\xe3\xc0\x1d\xe6\x08i@'
p4537
tp4538
Rp4539
a(g2
(g6
S'\xfa5\x9f&\xe6\x08i@'
p4540
tp4541
Rp4542
g4529
tp4543
a(g4542
F5.2929120088019004e-05
tp4544
aa(lp4545
(g4542
F5.2929120088019004e-05
tp4546
ag2
(g6
S'\xdf\x01\xe7\xf2\xcc\xdd\xdc<'
p4547
tp4548
Rp4549
aI297575760
aF1.0
aF-0.0001673372796228705
ag2
(g6
S'\xa2\x88}/\xe6\x08i@'
p4550
tp4551
Rp4552
a(g2
(g6
S'J\xdb[8\xe6\x08i@'
p4553
tp4554
Rp4555
g4542
tp4556
a(g4555
F5.340595773816919e-05
tp4557
aa(lp4558
(g4555
F5.340595773816919e-05
tp4559
ag2
(g6
S'\x08"\x92\xda\xcc\xdd\xdc<'
p4560
tp4561
Rp4562
aI297575760
aF1.0
aF-0.00016757562428722922
ag2
(g6
S'\xf2-:A\xe6\x08i@'
p4563
tp4564
Rp4565
a(g2
(g6
S'\x9a\x80\x18J\xe6\x08i@'
p4566
tp4567
Rp4568
g4555
tp4569
a(g4568
F5.3882795364362645e-05
tp4570
aa(lp4571
(g4568
F5.3882795364362645e-05
tp4572
ag2
(g6
S'\xabc4\xc2\xcc\xdd\xdc<'
p4573
tp4574
Rp4575
aI297575760
aF1.0
aF-0.0001678139689515879
ag2
(g6
S'B\xd3\xf6R\xe6\x08i@'
p4576
tp4577
Rp4578
a(g2
(g6
S'\xea%\xd5[\xe6\x08i@'
p4579
tp4580
Rp4581
g4568
tp4582
a(g4581
F5.435963296656526e-05
tp4583
aa(lp4584
(g4581
F5.435963296656526e-05
tp4585
ag2
(g6
S'<\xc7\xcd\xa9\xcc\xdd\xdc<'
p4586
tp4587
Rp4588
aI297575760
aF1.0
aF-0.00016805231361594663
ag2
(g6
S'\x92x\xb3d\xe6\x08i@'
p4589
tp4590
Rp4591
a(g2
(g6
S':\xcb\x91m\xe6\x08i@'
p4592
tp4593
Rp4594
g4581
tp4595
a(g4594
F5.4836470544742935e-05
tp4596
aa(lp4597
(g4594
F5.4836470544742935e-05
tp4598
ag2
(g6
S'\xbbL^\x91\xcc\xdd\xdc<'
p4599
tp4600
Rp4601
aI297575760
aF1.0
aF-0.00016829103720663978
ag2
(g6
S'\xe2\x1dpv\xe6\x08i@'
p4602
tp4603
Rp4604
a(g2
(g6
S'\x8apN\x7f\xe6\x08i@'
p4605
tp4606
Rp4607
g4594
tp4608
a(g4607
F5.531330809886156e-05
tp4609
aa(lp4610
(g4607
F5.531330809886156e-05
tp4611
ag2
(g6
S'\xb5\xf3\xe5x\xcc\xdd\xdc<'
p4612
tp4613
Rp4614
aI297575760
aF1.0
aF-0.00016852938187099847
ag2
(g6
S'2\xc3,\x88\xe6\x08i@'
p4615
tp4616
Rp4617
a(g2
(g6
S'\xda\x15\x0b\x91\xe6\x08i@'
p4618
tp4619
Rp4620
g4607
tp4621
a(g4620
F5.579014562888702e-05
tp4622
aa(lp4623
(g4620
F5.579014562888702e-05
tp4624
ag2
(g6
S'\x11\xbdd`\xcc\xdd\xdc<'
p4625
tp4626
Rp4627
aI297575760
aF1.0
aF-0.00016876810546169162
ag2
(g6
S'\x82h\xe9\x99\xe6\x08i@'
p4628
tp4629
Rp4630
a(g2
(g6
S'*\xbb\xc7\xa2\xe6\x08i@'
p4631
tp4632
Rp4633
g4620
tp4634
a(g4633
F5.6266983134785224e-05
tp4635
aa(lp4636
(g4633
F5.6266983134785224e-05
tp4637
ag2
(g6
S's\xa7\xdaG\xcc\xdd\xdc<'
p4638
tp4639
Rp4640
aI297575760
aF1.0
aF-0.00016900645012605034
ag2
(g6
S'\xd2\r\xa6\xab\xe6\x08i@'
p4641
tp4642
Rp4643
a(g2
(g6
S'z`\x84\xb4\xe6\x08i@'
p4644
tp4645
Rp4646
g4633
tp4647
a(g4646
F5.674382061652205e-05
tp4648
aa(lp4649
(g4646
F5.674382061652205e-05
tp4650
ag2
(g6
S'\xab\xb4G/\xcc\xdd\xdc<'
p4651
tp4652
Rp4653
aI297575760
aF1.0
aF-0.0001692444158640746
ag2
(g6
S'"\xb3b\xbd\xe6\x08i@'
p4654
tp4655
Rp4656
a(g2
(g6
S'\xca\x05A\xc6\xe6\x08i@'
p4657
tp4658
Rp4659
g4646
tp4660
a(g4659
F5.7220658074063407e-05
tp4661
aa(lp4662
(g4659
F5.7220658074063407e-05
tp4663
ag2
(g6
S'v\xe2\xab\x16\xcc\xdd\xdc<'
p4664
tp4665
Rp4666
aI297575760
aF1.0
aF-0.00016948313945476775
ag2
(g6
S'rX\x1f\xcf\xe6\x08i@'
p4667
tp4668
Rp4669
a(g2
(g6
S'\x1a\xab\xfd\xd7\xe6\x08i@'
p4670
tp4671
Rp4672
g4659
tp4673
a(g4672
F5.769749550737517e-05
tp4674
aa(lp4675
(g4672
F5.769749550737517e-05
tp4676
ag2
(g6
S'\x163\x07\xfe\xcb\xdd\xdc<'
p4677
tp4678
Rp4679
aI297575760
aF1.0
aF-0.00016972110519279204
ag2
(g6
S'\xc2\xfd\xdb\xe0\xe6\x08i@'
p4680
tp4681
Rp4682
a(g2
(g6
S'jP\xba\xe9\xe6\x08i@'
p4683
tp4684
Rp4685
g4672
tp4686
a(g4685
F5.8174332916423245e-05
tp4687
aa(lp4688
(g4685
F5.8174332916423245e-05
tp4689
ag2
(g6
S'\xbd\xa4Y\xe5\xcb\xdd\xdc<'
p4690
tp4691
Rp4692
aI297575760
aF1.0
aF-0.00016995982878348516
ag2
(g6
S'\x12\xa3\x98\xf2\xe6\x08i@'
p4693
tp4694
Rp4695
a(g2
(g6
S'\xba\xf5v\xfb\xe6\x08i@'
p4696
tp4697
Rp4698
g4685
tp4699
a(g4698
F5.865117030117352e-05
tp4700
aa(lp4701
(g4698
F5.865117030117352e-05
tp4702
ag2
(g6
S'\xc68\xa3\xcc\xcb\xdd\xdc<'
p4703
tp4704
Rp4705
aI297575760
aF1.0
aF-0.00017019779452150945
ag2
(g6
S'bHU\x04\xe7\x08i@'
p4706
tp4707
Rp4708
a(g2
(g6
S'\n\x9b3\r\xe7\x08i@'
p4709
tp4710
Rp4711
g4698
tp4712
a(g4711
F5.912800766159189e-05
tp4713
aa(lp4714
(g4711
F5.912800766159189e-05
tp4715
ag2
(g6
S'J\xee\xe3\xb3\xcb\xdd\xdc<'
p4716
tp4717
Rp4718
aI297575760
aF1.0
aF-0.0001704365181122026
ag2
(g6
S'\xb2\xed\x11\x16\xe7\x08i@'
p4719
tp4720
Rp4721
a(g2
(g6
S'Z@\xf0\x1e\xe7\x08i@'
p4722
tp4723
Rp4724
g4711
tp4725
a(g4724
F5.9604844997644244e-05
tp4726
aa(lp4727
(g4724
F5.9604844997644244e-05
tp4728
ag2
(g6
S'\xbb\xc5\x1b\x9b\xcb\xdd\xdc<'
p4729
tp4730
Rp4731
aI297575760
aF1.0
aF-0.0001706748627765613
ag2
(g6
S"\x02\x93\xce'\xe7\x08i@"
p4732
tp4733
Rp4734
a(g2
(g6
S'\xaa\xe5\xac0\xe7\x08i@'
p4735
tp4736
Rp4737
g4724
tp4738
a(g4737
F6.008168230929648e-05
tp4739
aa(lp4740
(g4737
F6.008168230929648e-05
tp4741
ag2
(g6
S'\xa7\xbeJ\x82\xcb\xdd\xdc<'
p4742
tp4743
Rp4744
aI297575760
aF1.0
aF-0.00017091320744092
ag2
(g6
S'R8\x8b9\xe7\x08i@'
p4745
tp4746
Rp4747
a(g2
(g6
S'\xfa\x8aiB\xe7\x08i@'
p4748
tp4749
Rp4750
g4737
tp4751
a(g4750
F6.055851959651449e-05
tp4752
aa(lp4753
(g4750
F6.055851959651449e-05
tp4754
ag2
(g6
S'h\xdapi\xcb\xdd\xdc<'
p4755
tp4756
Rp4757
aI297575760
aF1.0
aF-0.00017115155210527873
ag2
(g6
S'\xa2\xddGK\xe7\x08i@'
p4758
tp4759
Rp4760
a(g2
(g6
S'J0&T\xe7\x08i@'
p4761
tp4762
Rp4763
g4750
tp4764
a(g4763
F6.103535685926417e-05
tp4765
aa(lp4766
(g4763
F6.103535685926417e-05
tp4767
ag2
(g6
S'\xdeE\x18D\xcb\xdd\xdc<'
p4768
tp4769
Rp4770
aI595151520
aF1.0
aF-0.000171509258564984
ag2
(g6
S'\x9a\xd5\xe2e\xe7\x08i@'
p4771
tp4772
Rp4773
a(g2
(g6
S'\xeaz\x9fw\xe7\x08i@'
p4774
tp4775
Rp4776
g4763
tp4777
a(g4776
F6.19890313112221e-05
tp4778
aa(lp4779
(g4776
F6.19890313112221e-05
tp4780
ag2
(g6
S'\xb4F/\x12\xcb\xdd\xdc<'
p4781
tp4782
Rp4783
aI595151520
aF1.0
aF-0.00017198613735686864
ag2
(g6
S': \\\x89\xe7\x08i@'
p4784
tp4785
Rp4786
a(g2
(g6
S'\x8a\xc5\x18\x9b\xe7\x08i@'
p4787
tp4788
Rp4789
g4776
tp4790
a(g4789
F6.29427056648974e-05
tp4791
aa(lp4792
(g4789
F6.29427056648974e-05
tp4793
ag2
(g6
S'\xce\xce"\xe0\xca\xdd\xdc<'
p4794
tp4795
Rp4796
aI595151520
aF1.0
aF-0.0001724630161487533
ag2
(g6
S'\xdaj\xd5\xac\xe7\x08i@'
p4797
tp4798
Rp4799
a(g2
(g6
S'*\x10\x92\xbe\xe7\x08i@'
p4800
tp4801
Rp4802
g4789
tp4803
a(g4802
F6.389637992001724e-05
tp4804
aa(lp4805
(g4802
F6.389637992001724e-05
tp4806
ag2
(g6
S',\xde\xf2\xad\xca\xdd\xdc<'
p4807
tp4808
Rp4809
aI595151520
aF1.0
aF-0.00017293989494063792
ag2
(g6
S'z\xb5N\xd0\xe7\x08i@'
p4810
tp4811
Rp4812
a(g2
(g6
S'\xcaZ\x0b\xe2\xe7\x08i@'
p4813
tp4814
Rp4815
g4802
tp4816
a(g4815
F6.485005407630876e-05
tp4817
aa(lp4818
(g4815
F6.485005407630876e-05
tp4819
ag2
(g6
S'\xd0t\x9f{\xca\xdd\xdc<'
p4820
tp4821
Rp4822
aI595151520
aF1.0
aF-0.00017341658426935533
ag2
(g6
S'\x1a\x00\xc8\xf3\xe7\x08i@'
p4823
tp4824
Rp4825
a(g2
(g6
S'j\xa5\x84\x05\xe8\x08i@'
p4826
tp4827
Rp4828
g4815
tp4829
a(g4828
F6.58037281334991e-05
tp4830
aa(lp4831
(g4828
F6.58037281334991e-05
tp4832
ag2
(g6
S'E\x92(I\xca\xdd\xdc<'
p4833
tp4834
Rp4835
aI595151520
aF1.0
aF-0.00017389346306123998
ag2
(g6
S'\xbaJA\x17\xe8\x08i@'
p4836
tp4837
Rp4838
a(g2
(g6
S'\n\xf0\xfd(\xe8\x08i@'
p4839
tp4840
Rp4841
g4828
tp4842
a(g4841
F6.67574020913154e-05
tp4843
aa(lp4844
(g4841
F6.67574020913154e-05
tp4845
ag2
(g6
S'\xa2\xb5\x8c\x16\xca\xdd\xdc<'
p4846
tp4847
Rp4848
aI595289594
aF1.0
aF-0.00017437032608448315
ag2
(g6
S'\x07\xa3\xbb:\xe8\x08i@'
p4849
tp4850
Rp4851
a(g2
(g6
S'\x04VyL\xe8\x08i@'
p4852
tp4853
Rp4854
g4841
tp4855
a(g4854
F6.771129719996133e-05
tp4856
aa(lp4857
(g4854
F6.771129719996133e-05
tp4858
ag2
(g6
S'P\xe1\xce\xe3\xc9\xdd\xdc<'
p4859
tp4860
Rp4861
aI595013446
aF1.0
aF-0.00017484724944510251
ag2
(g6
S'\xa7\xed4^\xe8\x08i@'
p4862
tp4863
Rp4864
a(g2
(g6
S'J\x85\xf0o\xe8\x08i@'
p4865
tp4866
Rp4867
g4854
tp4868
a(g4867
F6.866474970773448e-05
tp4869
aa(lp4870
(g4867
F6.866474970773448e-05
tp4871
ag2
(g6
S'\xb4\x16\xef\xb0\xc9\xdd\xdc<'
p4872
tp4873
Rp4874
aI595151520
aF1.0
aF-0.00017532372051055946
ag2
(g6
S'\x9a*\xad\x81\xe8\x08i@'
p4875
tp4876
Rp4877
a(g2
(g6
S'\xea\xcfi\x93\xe8\x08i@'
p4878
tp4879
Rp4880
g4867
tp4881
a(g4880
F6.961842336579156e-05
tp4882
aa(lp4883
(g4880
F6.961842336579156e-05
tp4884
ag2
(g6
S'<Q\xea}\xc9\xdd\xdc<'
p4885
tp4886
Rp4887
aI595151520
aF1.0
aF-0.0001758005993024441
ag2
(g6
S':u&\xa5\xe8\x08i@'
p4888
tp4889
Rp4890
a(g2
(g6
S'\x8a\x1a\xe3\xb6\xe8\x08i@'
p4891
tp4892
Rp4893
g4880
tp4894
a(g4893
F7.057209692338318e-05
tp4895
aa(lp4896
(g4893
F7.057209692338318e-05
tp4897
ag2
(g6
S'\t\x13\xc2J\xc9\xdd\xdc<'
p4898
tp4899
Rp4900
aI595151520
aF1.0
aF-0.0001762774780943287
ag2
(g6
S'\xda\xbf\x9f\xc8\xe8\x08i@'
p4901
tp4902
Rp4903
a(g2
(g6
S'*e\\\xda\xe8\x08i@'
p4904
tp4905
Rp4906
g4893
tp4907
a(g4906
F7.15257703802365e-05
tp4908
aa(lp4909
(g4906
F7.15257703802365e-05
tp4910
ag2
(g6
S'\x1a\\v\x17\xc9\xdd\xdc<'
p4911
tp4912
Rp4913
aI595151520
aF1.0
aF-0.00017675435688621337
ag2
(g6
S'z\n\x19\xec\xe8\x08i@'
p4914
tp4915
Rp4916
a(g2
(g6
S'\xca\xaf\xd5\xfd\xe8\x08i@'
p4917
tp4918
Rp4919
g4906
tp4920
a(g4919
F7.247944373607865e-05
tp4921
aa(lp4922
(g4919
F7.247944373607865e-05
tp4923
ag2
(g6
S'\xfd+\x07\xe4\xc8\xdd\xdc<'
p4924
tp4925
Rp4926
aI595151520
aF1.0
aF-0.00017723104621493078
ag2
(g6
S'\x1aU\x92\x0f\xe9\x08i@'
p4927
tp4928
Rp4929
a(g2
(g6
S'j\xfaN!\xe9\x08i@'
p4930
tp4931
Rp4932
g4919
tp4933
a(g4932
F7.343311699063678e-05
tp4934
aa(lp4935
(g4932
F7.343311699063678e-05
tp4936
ag2
(g6
S'\x0c\x84t\xb0\xc8\xdd\xdc<'
p4937
tp4938
Rp4939
aI595151520
aF1.0
aF-0.0001777077355436482
ag2
(g6
S'\xba\x9f\x0b3\xe9\x08i@'
p4940
tp4941
Rp4942
a(g2
(g6
S'\nE\xc8D\xe9\x08i@'
p4943
tp4944
Rp4945
g4932
tp4946
a(g4945
F7.438679014363806e-05
tp4947
aa(lp4948
(g4945
F7.438679014363806e-05
tp4949
ag2
(g6
S'xb\xbe|\xc8\xdd\xdc<'
p4950
tp4951
Rp4952
aI595151520
aF1.0
aF-0.00017818480379870006
ag2
(g6
S'Z\xea\x84V\xe9\x08i@'
p4953
tp4954
Rp4955
a(g2
(g6
S'\xaa\x8fAh\xe9\x08i@'
p4956
tp4957
Rp4958
g4945
tp4959
a(g4958
F7.534046319480961e-05
tp4960
aa(lp4961
(g4958
F7.534046319480961e-05
tp4962
ag2
(g6
S'e\xc8\xe4H\xc8\xdd\xdc<'
p4963
tp4964
Rp4965
aI595151519
aF1.0
aF-0.0001786614937278074
ag2
(g6
S'\xfa4\xfey\xe9\x08i@'
p4966
tp4967
Rp4968
a(g2
(g6
S'I\xda\xba\x8b\xe9\x08i@'
p4969
tp4970
Rp4971
g4958
tp4972
a(g4971
F7.629413614227618e-05
tp4973
aa(lp4974
(g4971
F7.629413614227618e-05
tp4975
ag2
(g6
S'Z\xb5\xe7\x14\xc8\xdd\xdc<'
p4976
tp4977
Rp4978
aI595151519
aF1.0
aF-0.0001791383725212946
ag2
(g6
S'\x98\x7fw\x9d\xe9\x08i@'
p4979
tp4980
Rp4981
a(g2
(g6
S'\xe8$4\xaf\xe9\x08i@'
p4982
tp4983
Rp4984
g4971
tp4985
a(g4984
F7.72478089873673e-05
tp4986
aa(lp4987
(g4984
F7.72478089873673e-05
tp4988
ag2
(g6
S'\xce)\xc7\xe0\xc7\xdd\xdc<'
p4989
tp4990
Rp4991
aI595151520
aF1.0
aF-0.00017961525071118675
ag2
(g6
S'8\xca\xf0\xc0\xe9\x08i@'
p4992
tp4993
Rp4994
a(g2
(g6
S'\x88o\xad\xd2\xe9\x08i@'
p4995
tp4996
Rp4997
g4984
tp4998
a(g4997
F7.820148173141255e-05
tp4999
aa(lp5000
(g4997
F7.820148173141255e-05
tp5001
ag2
(g6
S'\xd4&\x80\xac\xc7\xdd\xdc<'
p5002
tp5003
Rp5004
aI595417597
aF1.0
aF-0.0001800921080621643
ag2
(g6
S'\x86\x1cl\xe4\xe9\x08i@'
p5005
tp5006
Rp5007
a(g2
(g6
S'\x85\xc9*\xf6\xe9\x08i@'
p5008
tp5009
Rp5010
g4997
tp5011
a(g5010
F7.915558073512348e-05
tp5012
aa(lp5013
(g5010
F7.915558073512348e-05
tp5014
ag2
(g6
S'\x08\xa8\x18x\xc7\xdd\xdc<'
p5015
tp5016
Rp5017
aI594885443
aF1.0
aF-0.00018056881550645215
ag2
(g6
S'&g\xe5\x07\xea\x08i@'
p5018
tp5019
Rp5020
a(g2
(g6
S'\xc8\x04\xa0\x19\xea\x08i@'
p5021
tp5022
Rp5023
g5010
tp5024
a(g5023
F8.010882691046679e-05
tp5025
aa(lp5026
(g5023
F8.010882691046679e-05
tp5027
ag2
(g6
S'\x8f\xb2\x90C\xc7\xdd\xdc<'
p5028
tp5029
Rp5030
aI595151520
aF1.0
aF-0.00018104569762367344
ag2
(g6
S'\x18\xaa\\+\xea\x08i@'
p5031
tp5032
Rp5033
a(g2
(g6
S'hO\x19=\xea\x08i@'
p5034
tp5035
Rp5036
g5023
tp5037
a(g5036
F8.106249934493006e-05
tp5038
aa(lp5039
(g5036
F8.106249934493006e-05
tp5040
ag2
(g6
S'PD\xe2\x0e\xc7\xdd\xdc<'
p5041
tp5042
Rp5043
aI595151520
aF1.0
aF-0.00018152238695239085
ag2
(g6
S'\xb8\xf4\xd5N\xea\x08i@'
p5044
tp5045
Rp5046
a(g2
(g6
S'\x08\x9a\x92`\xea\x08i@'
p5047
tp5048
Rp5049
g5036
tp5050
a(g5049
F8.201617167565364e-05
tp5051
aa(lp5052
(g5049
F8.201617167565364e-05
tp5053
ag2
(g6
S'p\\\x10\xda\xc6\xdd\xdc<'
p5054
tp5055
Rp5056
aI595151520
aF1.0
aF-0.0001819990762811083
ag2
(g6
S'X?Or\xea\x08i@'
p5057
tp5058
Rp5059
a(g2
(g6
S'\xa8\xe4\x0b\x84\xea\x08i@'
p5060
tp5061
Rp5062
g5049
tp5063
a(g5062
F8.296984390236465e-05
tp5064
aa(lp5065
(g5062
F8.296984390236465e-05
tp5066
ag2
(g6
S'\xbb\xfc\x1a\xa5\xc6\xdd\xdc<'
p5067
tp5068
Rp5069
aI595151520
aF1.0
aF-0.00018247614453616013
ag2
(g6
S'\xf8\x89\xc8\x95\xea\x08i@'
p5070
tp5071
Rp5072
a(g2
(g6
S'H/\x85\xa7\xea\x08i@'
p5073
tp5074
Rp5075
g5062
tp5076
a(g5075
F8.392351602479027e-05
tp5077
aa(lp5078
(g5075
F8.392351602479027e-05
tp5079
ag2
(g6
S'\xd7#\x02p\xc6\xdd\xdc<'
p5080
tp5081
Rp5082
aI595151520
aF1.0
aF-0.00018295283386487754
ag2
(g6
S'\x98\xd4A\xb9\xea\x08i@'
p5083
tp5084
Rp5085
a(g2
(g6
S'\xe8y\xfe\xca\xea\x08i@'
p5086
tp5087
Rp5088
g5075
tp5089
a(g5088
F8.487718804265762e-05
tp5090
aa(lp5091
(g5088
F8.487718804265762e-05
tp5092
ag2
(g6
S'\xc5\xd1\xc5:\xc6\xdd\xdc<'
p5093
tp5094
Rp5095
aI595151520
aF1.0
aF-0.00018342952319359498
ag2
(g6
S'8\x1f\xbb\xdc\xea\x08i@'
p5096
tp5097
Rp5098
a(g2
(g6
S'\x88\xc4w\xee\xea\x08i@'
p5099
tp5100
Rp5101
g5088
tp5102
a(g5101
F8.583085995569385e-05
tp5103
aa(lp5104
(g5101
F8.583085995569385e-05
tp5105
ag2
(g6
S'\xde\x07f\x05\xc6\xdd\xdc<'
p5106
tp5107
Rp5108
aI595151520
aF1.0
aF-0.0001839064019854796
ag2
(g6
S'\xd8i4\x00\xeb\x08i@'
p5109
tp5110
Rp5111
a(g2
(g6
S'(\x0f\xf1\x11\xeb\x08i@'
p5112
tp5113
Rp5114
g5101
tp5115
a(g5114
F8.678453176362612e-05
tp5116
aa(lp5117
(g5114
F8.678453176362612e-05
tp5118
ag2
(g6
S'V\xc4\xe2\xcf\xc5\xdd\xdc<'
p5119
tp5120
Rp5121
aI595151520
aF1.0
aF-0.00018438328077736424
ag2
(g6
S'x\xb4\xad#\xeb\x08i@'
p5122
tp5123
Rp5124
a(g2
(g6
S'\xc8Yj5\xeb\x08i@'
p5125
tp5126
Rp5127
g5114
tp5128
a(g5127
F8.773820346618156e-05
tp5129
aa(lp5130
(g5127
F8.773820346618156e-05
tp5131
ag2
(g6
S'\xf9\x08<\x9a\xc5\xdd\xdc<'
p5132
tp5133
Rp5134
aI595151520
aF1.0
aF-0.00018485997010608167
ag2
(g6
S'\x18\xff&G\xeb\x08i@'
p5135
tp5136
Rp5137
a(g2
(g6
S'h\xa4\xe3X\xeb\x08i@'
p5138
tp5139
Rp5140
g5127
tp5141
a(g5140
F8.869187506308733e-05
tp5142
aa(lp5143
(g5140
F8.869187506308733e-05
tp5144
ag2
(g6
S'\xfa\xd3qd\xc5\xdd\xdc<'
p5145
tp5146
Rp5147
aI595151520
aF1.0
aF-0.0001853368488979663
ag2
(g6
S'\xb8I\xa0j\xeb\x08i@'
p5148
tp5149
Rp5150
a(g2
(g6
S'\x08\xef\\|\xeb\x08i@'
p5151
tp5152
Rp5153
g5140
tp5154
a(g5153
F8.964554655407057e-05
tp5155
aa(lp5156
(g5153
F8.964554655407057e-05
tp5157
ag2
(g6
S'\xb3&\x84.\xc5\xdd\xdc<'
p5158
tp5159
Rp5160
aI595151520
aF1.0
aF-0.0001858135382266837
ag2
(g6
S'X\x94\x19\x8e\xeb\x08i@'
p5161
tp5162
Rp5163
a(g2
(g6
S'\xa89\xd6\x9f\xeb\x08i@'
p5164
tp5165
Rp5166
g5153
tp5167
a(g5166
F9.059921793885843e-05
tp5168
aa(lp5169
(g5166
F9.059921793885843e-05
tp5170
ag2
(g6
S'\xb1\x00s\xf8\xc4\xdd\xdc<'
p5171
tp5172
Rp5173
aI595151520
aF1.0
aF-0.00018629041701856837
ag2
(g6
S'\xf8\xde\x92\xb1\xeb\x08i@'
p5174
tp5175
Rp5176
a(g2
(g6
S'H\x84O\xc3\xeb\x08i@'
p5177
tp5178
Rp5179
g5166
tp5180
a(g5179
F9.155288921717805e-05
tp5181
aa(lp5182
(g5179
F9.155288921717805e-05
tp5183
ag2
(g6
S'\xf3a>\xc2\xc4\xdd\xdc<'
p5184
tp5185
Rp5186
aI595151520
aF1.0
aF-0.000186767295810453
ag2
(g6
S'\x98)\x0c\xd5\xeb\x08i@'
p5187
tp5188
Rp5189
a(g2
(g6
S'\xe8\xce\xc8\xe6\xeb\x08i@'
p5190
tp5191
Rp5192
g5179
tp5193
a(g5192
F9.250656038875658e-05
tp5194
aa(lp5195
(g5192
F9.250656038875658e-05
tp5196
ag2
(g6
S'\x07J\xe6\x8b\xc4\xdd\xdc<'
p5197
tp5198
Rp5199
aI595151520
aF1.0
aF-0.00018724417460233765
ag2
(g6
S'8t\x85\xf8\xeb\x08i@'
p5200
tp5201
Rp5202
a(g2
(g6
S'\x88\x19B\n\xec\x08i@'
p5203
tp5204
Rp5205
g5192
tp5206
a(g5205
F9.346023145332117e-05
tp5207
aa(lp5208
(g5205
F9.346023145332117e-05
tp5209
ag2
(g6
S'G\xbajU\xc4\xdd\xdc<'
p5210
tp5211
Rp5212
aI595151520
aF1.0
aF-0.00018772086393105506
ag2
(g6
S'\xd8\xbe\xfe\x1b\xec\x08i@'
p5213
tp5214
Rp5215
a(g2
(g6
S'(d\xbb-\xec\x08i@'
p5216
tp5217
Rp5218
g5205
tp5219
a(g5218
F9.441390241059897e-05
tp5220
aa(lp5221
(g5218
F9.441390241059897e-05
tp5222
ag2
(g6
S'\xe5\xb0\xcb\x1e\xc4\xdd\xdc<'
p5223
tp5224
Rp5225
aI595151520
aF1.0
aF-0.00018819755325977247
ag2
(g6
S'x\tx?\xec\x08i@'
p5226
tp5227
Rp5228
a(g2
(g6
S'\xc8\xae4Q\xec\x08i@'
p5229
tp5230
Rp5231
g5218
tp5232
a(g5231
F9.536757326031712e-05
tp5233
aa(lp5234
(g5231
F9.536757326031712e-05
tp5235
ag2
(g6
S';/\t\xe8\xc3\xdd\xdc<'
p5236
tp5237
Rp5238
aI595151520
aF1.0
aF-0.00018867443205165712
ag2
(g6
S'\x18T\xf1b\xec\x08i@'
p5239
tp5240
Rp5241
a(g2
(g6
S'h\xf9\xadt\xec\x08i@'
p5242
tp5243
Rp5244
g5231
tp5245
a(g5244
F9.632124400220276e-05
tp5246
aa(lp5247
(g5244
F9.632124400220276e-05
tp5248
ag2
(g6
S'b4#\xb1\xc3\xdd\xdc<'
p5249
tp5250
Rp5251
aI595151520
aF1.0
aF-0.00018915150030670896
ag2
(g6
S'\xb8\x9ej\x86\xec\x08i@'
p5252
tp5253
Rp5254
a(g2
(g6
S"\x08D'\x98\xec\x08i@"
p5255
tp5256
Rp5257
g5244
tp5258
a(g5257
F9.727491463598304e-05
tp5259
aa(lp5260
(g5257
F9.727491463598304e-05
tp5261
ag2
(g6
S'\xb5\xc1\x19z\xc3\xdd\xdc<'
p5262
tp5263
Rp5264
aI595151520
aF1.0
aF-0.00018962818963542637
ag2
(g6
S'X\xe9\xe3\xa9\xec\x08i@'
p5265
tp5266
Rp5267
a(g2
(g6
S'\xa8\x8e\xa0\xbb\xec\x08i@'
p5268
tp5269
Rp5270
g5257
tp5271
a(g5270
F9.822858516138514e-05
tp5272
aa(lp5273
(g5270
F9.822858516138514e-05
tp5274
ag2
(g6
S'}\xd5\xecB\xc3\xdd\xdc<'
p5275
tp5276
Rp5277
aI595151519
aF1.0
aF-0.00019010506906615697
ag2
(g6
S'\xf83]\xcd\xec\x08i@'
p5278
tp5279
Rp5280
a(g2
(g6
S'G\xd9\x19\xdf\xec\x08i@'
p5281
tp5282
Rp5283
g5270
tp5284
a(g5283
F9.918225557653376e-05
tp5285
aa(lp5286
(g5283
F9.918225557653376e-05
tp5287
ag2
(g6
S'Xq\x9c\x0b\xc3\xdd\xdc<'
p5288
tp5289
Rp5290
aI595151519
aF1.0
aF-0.0001905817583964763
ag2
(g6
S'\x96~\xd6\xf0\xec\x08i@'
p5291
tp5292
Rp5293
a(g2
(g6
S'\xe6#\x93\x02\xed\x08i@'
p5294
tp5295
Rp5296
g5283
tp5297
a(g5296
F0.00010013592588275849
tp5298
aa(lp5299
(g5296
F0.00010013592588275849
tp5300
ag2
(g6
S'|\x93(\xd4\xc2\xdd\xdc<'
p5301
tp5302
Rp5303
aI595151520
aF1.0
aF-0.00019105844708474585
ag2
(g6
S'6\xc9O\x14\xed\x08i@'
p5304
tp5305
Rp5306
a(g2
(g6
S'\x86n\x0c&\xed\x08i@'
p5307
tp5308
Rp5309
g5296
tp5310
a(g5309
F0.00010108959608138883
tp5311
aa(lp5312
(g5309
F0.00010108959608138883
tp5313
ag2
(g6
S'\xe7\xbe\x8f\x9c\xc2\xdd\xdc<'
p5314
tp5315
Rp5316
aI595276307
aF1.0
aF-0.00019153533039619996
ag2
(g6
S'\x90\x07\xca7\xed\x08i@'
p5317
tp5318
Rp5319
a(g2
(g6
S'\x99\xa0\x87I\xed\x08i@'
p5320
tp5321
Rp5322
g5309
tp5323
a(g5322
F0.00010204346612907873
tp5324
aa(lp5325
(g5322
F0.00010204346612907873
tp5326
ag2
(g6
S'd\xef\xd4d\xc2\xdd\xdc<'
p5327
tp5328
Rp5329
aI595026733
aF1.0
aF-0.00019201219379445399
ag2
(g6
S'0RC[\xed\x08i@'
p5330
tp5331
Rp5332
a(g2
(g6
S'\xc6\x03\xffl\xed\x08i@'
p5333
tp5334
Rp5335
g5322
tp5336
a(g5335
F0.00010299693614996782
tp5337
aa(lp5338
(g5335
F0.00010299693614996782
tp5339
ag2
(g6
S'"\'\xf8,\xc2\xdd\xdc<'
p5340
tp5341
Rp5342
aI595151520
aF1.0
aF-0.00019248908346039976
ag2
(g6
S'\x16\xa9\xbb~\xed\x08i@'
p5343
tp5344
Rp5345
a(g2
(g6
S'fNx\x90\xed\x08i@'
p5346
tp5347
Rp5348
g5335
tp5349
a(g5348
F0.00010395060601937076
tp5350
aa(lp5351
(g5348
F0.00010395060601937076
tp5352
ag2
(g6
S'Wg\xf6\xf4\xc1\xdd\xdc<'
p5353
tp5354
Rp5355
aI595151520
aF1.0
aF-0.0001929657727891172
ag2
(g6
S'\xb6\xf34\xa2\xed\x08i@'
p5356
tp5357
Rp5358
a(g2
(g6
S'\x06\x99\xf1\xb3\xed\x08i@'
p5359
tp5360
Rp5361
g5348
tp5362
a(g5361
F0.00010490427577848553
tp5363
aa(lp5364
(g5361
F0.00010490427577848553
tp5365
ag2
(g6
S'\xe9-\xd1\xbc\xc1\xdd\xdc<'
p5366
tp5367
Rp5368
aI595151520
aF1.0
aF-0.00019344265158100182
ag2
(g6
S'V>\xae\xc5\xed\x08i@'
p5369
tp5370
Rp5371
a(g2
(g6
S'\xa6\xe3j\xd7\xed\x08i@'
p5372
tp5373
Rp5374
g5361
tp5375
a(g5374
F0.00010585794542703927
tp5376
aa(lp5377
(g5374
F0.00010585794542703927
tp5378
ag2
(g6
S'3|\x88\x84\xc1\xdd\xdc<'
p5379
tp5380
Rp5381
aI595151520
aF1.0
aF-0.00019391934090971923
ag2
(g6
S"\xf6\x88'\xe9\xed\x08i@"
p5382
tp5383
Rp5384
a(g2
(g6
S'F.\xe4\xfa\xed\x08i@'
p5385
tp5386
Rp5387
g5374
tp5388
a(g5387
F0.00010681161496475912
tp5389
aa(lp5390
(g5387
F0.00010681161496475912
tp5391
ag2
(g6
S'6R\x1cL\xc1\xdd\xdc<'
p5392
tp5393
Rp5394
aI595151520
aF1.0
aF-0.0001943964091647711
ag2
(g6
S'\x96\xd3\xa0\x0c\xee\x08i@'
p5395
tp5396
Rp5397
a(g2
(g6
S'\xe6x]\x1e\xee\x08i@'
p5398
tp5399
Rp5400
g5387
tp5401
a(g5400
F0.00010776528439137225
tp5402
aa(lp5403
(g5400
F0.00010776528439137225
tp5404
ag2
(g6
S'\n\xaf\x8c\x13\xc1\xdd\xdc<'
p5405
tp5406
Rp5407
aI595151520
aF1.0
aF-0.0001948729090303213
ag2
(g6
S'6\x1e\x1a0\xee\x08i@'
p5408
tp5409
Rp5410
a(g2
(g6
S'\x86\xc3\xd6A\xee\x08i@'
p5411
tp5412
Rp5413
g5400
tp5414
a(g5413
F0.00010871895370660579
tp5415
aa(lp5416
(g5413
F0.00010871895370660579
tp5417
ag2
(g6
S'#\x93\xd9\xda\xc0\xdd\xdc<'
p5418
tp5419
Rp5420
aI595151520
aF1.0
aF-0.00019534978782220595
ag2
(g6
S'\xd6h\x93S\xee\x08i@'
p5421
tp5422
Rp5423
a(g2
(g6
S'&\x0ePe\xee\x08i@'
p5424
tp5425
Rp5426
g5413
tp5427
a(g5426
F0.0001096726229101869
tp5428
aa(lp5429
(g5426
F0.0001096726229101869
tp5430
ag2
(g6
S'\x81\xfe\x02\xa2\xc0\xdd\xdc<'
p5431
tp5432
Rp5433
aI595151520
aF1.0
aF-0.00019582647715092336
ag2
(g6
S'v\xb3\x0cw\xee\x08i@'
p5434
tp5435
Rp5436
a(g2
(g6
S'\xc6X\xc9\x88\xee\x08i@'
p5437
tp5438
Rp5439
g5426
tp5440
a(g5439
F0.0001106262920018427
tp5441
aa(lp5442
(g5439
F0.0001106262920018427
tp5443
ag2
(g6
S'\x97\xf1\x08i\xc0\xdd\xdc<'
p5444
tp5445
Rp5446
aI595151520
aF1.0
aF-0.0001963035454059752
ag2
(g6
S'\x16\xfe\x85\x9a\xee\x08i@'
p5447
tp5448
Rp5449
a(g2
(g6
S'f\xa3B\xac\xee\x08i@'
p5450
tp5451
Rp5452
g5439
tp5453
a(g5452
F0.00011157996098130038
tp5454
aa(lp5455
(g5452
F0.00011157996098130038
tp5456
ag2
(g6
S'~k\xeb/\xc0\xdd\xdc<'
p5457
tp5458
Rp5459
aI595151520
aF1.0
aF-0.00019678042419785986
ag2
(g6
S'\xb6H\xff\xbd\xee\x08i@'
p5460
tp5461
Rp5462
a(g2
(g6
S'\x06\xee\xbb\xcf\xee\x08i@'
p5463
tp5464
Rp5465
g5452
tp5466
a(g5465
F0.00011253362984828705
tp5467
aa(lp5468
(g5465
F0.00011253362984828705
tp5469
ag2
(g6
S'\x1dm\xaa\xf6\xbf\xdd\xdc<'
p5470
tp5471
Rp5472
aI595151520
aF1.0
aF-0.00019725711352657727
ag2
(g6
S'V\x93x\xe1\xee\x08i@'
p5473
tp5474
Rp5475
a(g2
(g6
S'\xa685\xf3\xee\x08i@'
p5476
tp5477
Rp5478
g5465
tp5479
a(g5478
F0.00011348729860252989
tp5480
aa(lp5481
(g5478
F0.00011348729860252989
tp5482
ag2
(g6
S'\x01\xf6E\xbd\xbf\xdd\xdc<'
p5483
tp5484
Rp5485
aI595151520
aF1.0
aF-0.00019773380285529468
ag2
(g6
S'\xf6\xdd\xf1\x04\xef\x08i@'
p5486
tp5487
Rp5488
a(g2
(g6
S'F\x83\xae\x16\xef\x08i@'
p5489
tp5490
Rp5491
g5478
tp5492
a(g5491
F0.00011444096724375603
tp5493
aa(lp5494
(g5491
F0.00011444096724375603
tp5495
ag2
(g6
S'\xb7\x05\xbe\x83\xbf\xdd\xdc<'
p5496
tp5497
Rp5498
aI595151520
aF1.0
aF-0.00019821068164717934
ag2
(g6
S'\x96(k(\xef\x08i@'
p5499
tp5500
Rp5501
a(g2
(g6
S"\xe6\xcd':\xef\x08i@"
p5502
tp5503
Rp5504
g5491
tp5505
a(g5504
F0.00011539463577169262
tp5506
aa(lp5507
(g5504
F0.00011539463577169262
tp5508
ag2
(g6
S'%\x9d\x12J\xbf\xdd\xdc<'
p5509
tp5510
Rp5511
aI595151520
aF1.0
aF-0.00019868756043906396
ag2
(g6
S'6s\xe4K\xef\x08i@'
p5512
tp5513
Rp5514
a(g2
(g6
S'\x86\x18\xa1]\xef\x08i@'
p5515
tp5516
Rp5517
g5504
tp5518
a(g5517
F0.0001163483041860668
tp5519
aa(lp5520
(g5517
F0.0001163483041860668
tp5521
ag2
(g6
S'K\xbcC\x10\xbf\xdd\xdc<'
p5522
tp5523
Rp5524
aI595151520
aF1.0
aF-0.00019916424976778137
ag2
(g6
S'\xd6\xbd]o\xef\x08i@'
p5525
tp5526
Rp5527
a(g2
(g6
S'&c\x1a\x81\xef\x08i@'
p5528
tp5529
Rp5530
g5517
tp5531
a(g5530
F0.00011730197248660575
tp5532
aa(lp5533
(g5530
F0.00011730197248660575
tp5534
ag2
(g6
S'\xcfaQ\xd6\xbe\xdd\xdc<'
p5535
tp5536
Rp5537
aI595151520
aF1.0
aF-0.00019964112855966603
ag2
(g6
S'v\x08\xd7\x92\xef\x08i@'
p5538
tp5539
Rp5540
a(g2
(g6
S'\xc6\xad\x93\xa4\xef\x08i@'
p5541
tp5542
Rp5543
g5530
tp5544
a(g5543
F0.00011825564067303658
tp5545
aa(lp5546
(g5543
F0.00011825564067303658
tp5547
ag2
(g6
S'\x0b\x8f;\x9c\xbe\xdd\xdc<'
p5548
tp5549
Rp5550
aI595151520
aF1.0
aF-0.00020011781788838344
ag2
(g6
S'\x16SP\xb6\xef\x08i@'
p5551
tp5552
Rp5553
a(g2
(g6
S'f\xf8\x0c\xc8\xef\x08i@'
p5554
tp5555
Rp5556
g5543
tp5557
a(g5556
F0.00011920930874508645
tp5558
aa(lp5559
(g5556
F0.00011920930874508645
tp5560
ag2
(g6
S'\x8cC\x02b\xbe\xdd\xdc<'
p5561
tp5562
Rp5563
aI595151520
aF1.0
aF-0.00020059469668026807
ag2
(g6
S'\xb6\x9d\xc9\xd9\xef\x08i@'
p5564
tp5565
Rp5566
a(g2
(g6
S'\x06C\x86\xeb\xef\x08i@'
p5567
tp5568
Rp5569
g5556
tp5570
a(g5569
F0.00012016297670248251
tp5571
aa(lp5572
(g5569
F0.00012016297670248251
tp5573
ag2
(g6
S"\xc5\x7f\xa5'\xbe\xdd\xdc<"
p5574
tp5575
Rp5576
aI595151520
aF1.0
aF-0.00020107157547215272
ag2
(g6
S'V\xe8B\xfd\xef\x08i@'
p5577
tp5578
Rp5579
a(g2
(g6
S'\xa6\x8d\xff\x0e\xf0\x08i@'
p5580
tp5581
Rp5582
g5569
tp5583
a(g5582
F0.00012111664454495193
tp5584
aa(lp5585
(g5582
F0.00012111664454495193
tp5586
ag2
(g6
S'4C%\xed\xbd\xdd\xdc<'
p5587
tp5588
Rp5589
aI595151519
aF1.0
aF-0.00020154845494133866
ag2
(g6
S'\xf62\xbc \xf0\x08i@'
p5590
tp5591
Rp5592
a(g2
(g6
S'E\xd8x2\xf0\x08i@'
p5593
tp5594
Rp5595
g5582
tp5596
a(g5595
F0.00012207031227061944
tp5597
aa.