(lp0
(lp1
(cnumpy.core.multiarray
scalar
p2
(cnumpy
dtype
p3
(S'f8'
p4
I0
I1
tp5
Rp6
(I3
S'<'
p7
NNNI-1
I-1
I0
tp8
bS'Rk\xb7\xed\x8caz\xc0'
p9
tp10
Rp11
F-0.0004882812463950301
tp12
ag2
(g6
S'\xf4-5qEuD='
p13
tp14
Rp15
aI419877810
aF1.0
aF0.09661034065985294
ag2
(g6
S'y\x014\xe1\x8caz\xc0'
p16
tp17
Rp18
a(g2
(g6
S'\xa0\x97\xb0\xd4\x8caz\xc0'
p19
tp20
Rp21
g11
tp22
a(g21
F-0.0004272463474139217
tp23
aa(lp24
(g21
F-0.0004272463474139217
tp25
ag2
(g6
S'0\xc3\xe8\xb2GuD='
p26
tp27
Rp28
aI419877810
aF1.0
aF0.08372900403126855
ag2
(g6
S'\xa7[W\xc8\x8caz\xc0'
p29
tp30
Rp31
a(g2
(g6
S'\xee\xc3\xa9\xbb\x8caz\xc0'
p32
tp33
Rp34
g21
tp35
a(g34
F-0.00036621134570294687
tp36
aa(lp37
(g34
F-0.00036621134570294687
tp38
ag2
(g6
S'\r\t\x15\xa2IuD='
p39
tp40
Rp41
aI419877810
aF1.0
aF0.07084764913113892
ag2
(g6
S'E\x15Y\xaf\x8caz\xc0'
p42
tp43
Rp44
a(g2
(g6
S'<\xf0\xa2\xa2\x8caz\xc0'
p45
tp46
Rp47
g34
tp48
a(g47
F-0.0003051762559377599
tp49
aa(lp50
(g47
F-0.0003051762559377599
tp51
ag2
(g6
S'M\xf8\xb9>KuD='
p52
tp53
Rp54
aI419877809
aF1.0
aF0.0579662785195174
ag2
(g6
S'\x18\x16]\x96\x8caz\xc0'
p55
tp56
Rp57
a(g2
(g6
S'\x8b\x1c\x9c\x89\x8caz\xc0'
p58
tp59
Rp60
g47
tp61
a(g60
F-0.0002441410929393988
tp62
aa(lp63
(g2
(g6
S'\xdaH\x95p\x8caz\xc0'
p64
tp65
Rp66
F-0.0001831058712381895
tp67
ag2
(g6
S'\r\x8b\xd7\x88LuD='
p68
tp69
Rp70
aI419877809
aF1.0
aF0.04508489500874052
ag2
(g6
S"5'g}\x8caz\xc0"
p71
tp72
Rp73
a(g66
g60
tp74
a(g60
F-0.0002441410929393988
tp75
aa(lp76
(g66
F-0.0001831058712381895
tp77
ag2
(g6
S'\xd3\xbcm\x80MuD='
p78
tp79
Rp80
aI419877810
aF1.0
aF0.032203502399124936
ag2
(g6
S'\xbft~d\x8caz\xc0'
p81
tp82
Rp83
a(g2
(g6
S'(u\x8eW\x8caz\xc0'
p84
tp85
Rp86
g66
tp87
a(g86
F-0.0001220706053644696
tp88
aa(lp89
(g2
(g6
S'\x9c\x83\xbcK\x8caz\xc0'
p90
tp91
Rp92
F-9.324364599045789e-05
tp93
ag2
(g6
S'\x81^\x9f\x04NuD='
p94
tp95
Rp96
aI198308236
aF1.0
aF0.0227208620034271
ag2
(g6
S'b|\xa5Q\x8caz\xc0'
p97
tp98
Rp99
a(g92
g86
tp100
a(g86
F-0.0001220706053644696
tp101
aa(lp102
(g92
F-9.324364599045789e-05
tp103
ag2
(g6
S'\xa7u\xe6BNuD='
p104
tp105
Rp106
aI221569574
aF1.0
aF0.01628016133238661
ag2
(g6
S'\x89\x12"E\x8caz\xc0'
p107
tp108
Rp109
a(g2
(g6
S'v\xa1\x87>\x8caz\xc0'
p110
tp111
Rp112
g92
tp113
a(g112
F-6.103531013931454e-05
tp114
aa(lp115
(g2
(g6
S'\x9d7\x042\x8caz\xc0'
p116
tp117
Rp118
F-3.051765610611011e-05
tp119
ag2
(g6
S't\x04\xb3mNuD='
p120
tp121
Rp122
aI209938905
aF1.0
aF0.009661052147201954
ag2
(g6
S'\x8a\xecE8\x8caz\xc0'
p123
tp124
Rp125
a(g118
g112
tp126
a(g112
F-6.103531013931454e-05
tp127
aa(lp128
(g2
(g6
S'\xb0\x82\xc2+\x8caz\xc0'
p129
tp130
Rp131
F-1.525882821424729e-05
tp132
ag2
(g6
S'\x05\xa3\xc0\x7fNuD='
p133
tp134
Rp135
aI104969453
aF1.0
aF0.004830526408239768
ag2
(g6
S'&]\xe3.\x8caz\xc0'
p136
tp137
Rp138
a(g131
g118
tp139
a(g118
F-3.051765610611011e-05
tp140
aa(lp141
(g2
(g6
S':\xa8\xa1(\x8caz\xc0'
p142
tp143
Rp144
F-7.629414240675816e-06
tp145
ag2
(g6
S'\xa9\nD\x84NuD='
p146
tp147
Rp148
aI52484726
aF1.0
aF0.0024152630598096875
ag2
(g6
S'u\x152*\x8caz\xc0'
p149
tp150
Rp151
a(g144
g131
tp152
a(g131
F-1.525882821424729e-05
tp153
aa(lp154
(F-422.09671545328115
F-2.384408282942121e-13
tp155
ag2
(g6
S'F(\x8e\x85NuD='
p156
tp157
Rp158
aI52484726
aF1.0
aF0.0008050876866032293
ag2
(g6
S"\xff:\x11'\x8caz\xc0"
p159
tp160
Rp161
a(F-422.09671545328115
g144
tp162
a(g144
F-7.629414240675816e-06
tp163
aa(lp164
(F-422.09671545328115
F-2.384408282942121e-13
tp165
ag2
(g6
S'\xb0e\x8e\x85NuD='
p166
tp167
Rp168
aI52370189
aF1.0
aF-0.0008033305239622489
ag2
(g6
S'>@\xf1#\x8caz\xc0'
p169
tp170
Rp171
a(g2
(g6
S'\xb7\xb2a"\x8caz\xc0'
p172
tp173
Rp174
F-422.09671545328115
tp175
a(g174
F7.612764154334769e-06
tp176
aa(lp177
(g174
F7.612764154334769e-06
tp178
ag2
(g6
S'\x86\xb8E\x84NuD='
p179
tp180
Rp181
aI52370189
aF1.0
aF-0.0024099919542108082
ag2
(g6
S'0%\xd2 \x8caz\xc0'
p182
tp183
Rp184
a(g2
(g6
S'\xaa\x97B\x1f\x8caz\xc0'
p185
tp186
Rp187
g174
tp188
a(g187
F1.5225528518634101e-05
tp189
aa(lp190
(g187
F1.5225528518634101e-05
tp191
ag2
(g6
S'yZ\xc7\x7fNuD='
p192
tp193
Rp194
aI104740377
aF1.0
aF-0.004819984382782471
ag2
(g6
S'\x9e|#\x1c\x8caz\xc0'
p195
tp196
Rp197
a(g2
(g6
S'\x91a\x04\x19\x8caz\xc0'
p198
tp199
Rp200
g187
tp201
a(g200
F3.0451056902534463e-05
tp202
aa(lp203
(g200
F3.0451056902534463e-05
tp204
ag2
(g6
S'G\xe2\xcdmNuD='
p205
tp206
Rp207
aI209480755
aF1.0
aF-0.009639967717717983
ag2
(g6
S'x+\xc6\x12\x8caz\xc0'
p208
tp209
Rp210
a(g2
(g6
S'^\xf5\x87\x0c\x8caz\xc0'
p211
tp212
Rp213
g200
tp214
a(g213
F6.090211222102892e-05
tp215
aa(lp216
(g213
F6.090211222102892e-05
tp217
ag2
(g6
S'A\xd6tDNuD='
p218
tp219
Rp220
aI211492044
aF1.0
aF-0.016097463871129175
ag2
(g6
S'\xf8f:\x06\x8caz\xc0'
p221
tp222
Rp223
a(g2
(g6
S'\x92\xd8\xec\xff\x8baz\xc0'
p224
tp225
Rp226
g213
tp227
a(g226
F9.164553376084952e-05
tp228
aa(lp229
(g226
F9.164553376084952e-05
tp230
ag2
(g6
S'Z\xc1X\nNuD='
p231
tp232
Rp233
aI187382935
aF1.0
aF-0.022215990525818994
ag2
(g6
S'F:W\xfa\x8baz\xc0'
p234
tp235
Rp236
a(g2
(g6
S'\xfb\x9b\xc1\xf4\x8baz\xc0'
p237
tp238
Rp239
g226
tp240
a(g239
F0.00011888434367448935
tp241
aa(lp242
(g239
F0.00011888434367448935
tp243
ag2
(g6
S'\x9e\xc4\xe4\x8dMuD='
p244
tp245
Rp246
aI408918245
aF1.0
aF-0.03136292478393085
ag2
(g6
S'E\xd0\x14\xe8\x8baz\xc0'
p247
tp248
Rp249
a(g2
(g6
S'\x16\x03b\xdc\x8baz\xc0'
p250
tp251
Rp252
g239
tp253
a(g252
F0.00017832648181298152
tp254
aa(lp255
(g252
F0.00017832648181298152
tp256
ag2
(g6
S'`0\x10\xa3LuD='
p257
tp258
Rp259
aI408918244
aF1.0
aF-0.043908081989272284
ag2
(g6
S'\x0bT\xd5\xcf\x8baz\xc0'
p260
tp261
Rp262
a(g2
(g6
S'2j\x02\xc4\x8baz\xc0'
p263
tp264
Rp265
g252
tp266
a(g265
F0.00023776857913733454
tp267
aa(lp268
(g265
F0.00023776857913733454
tp269
ag2
(g6
S'\x95\xc6\xf4iKuD='
p270
tp271
Rp272
aI408918245
aF1.0
aF-0.05645322812973452
ag2
(g6
S'j\x93\x88\xb7\x8baz\xc0'
p273
tp274
Rp275
a(g2
(g6
S'M\xd1\xa2\xab\x8baz\xc0'
p276
tp277
Rp278
g265
tp279
a(g278
F0.0002972106223820359
tp280
aa(lp281
(g278
F0.0002972106223820359
tp282
ag2
(g6
S'\x87\x8c\x92\xe2IuD='
p283
tp284
Rp285
aI408918245
aF1.0
aF-0.06899836023756073
ag2
(g6
S'\xd7u5\x9f\x8baz\xc0'
p286
tp287
Rp288
a(g2
(g6
S'h8C\x93\x8baz\xc0'
p289
tp290
Rp291
g278
tp292
a(g291
F0.00035665259784549425
tp293
aa(lp294
(g291
F0.00035665259784549425
tp295
ag2
(g6
S'\x9c\x88\xe9\x0cHuD='
p296
tp297
Rp298
aI408918244
aF1.0
aF-0.08154347468414247
ag2
(g6
S'\xed)\xec\x86\x8baz\xc0'
p299
tp300
Rp301
a(g2
(g6
S'\x84\x9f\xe3z\x8baz\xc0'
p302
tp303
Rp304
g291
tp305
a(g304
F0.0004160944918261357
tp306
aa(lp307
(g304
F0.0004160944918261357
tp308
ag2
(g6
S'l\xc2\xf9\xe8EuD='
p309
tp310
Rp311
aI408918245
aF1.0
aF-0.09408856947033398
ag2
(g6
S'\x12\xd3\xb3n\x8baz\xc0'
p312
tp313
Rp314
a(g2
(g6
S'\x9f\x06\x84b\x8baz\xc0'
p315
tp316
Rp317
g304
tp318
a(g317
F0.00047553629105849765
tp319
aa.