(lp0
(lp1
(cnumpy.core.multiarray
scalar
p2
(cnumpy
dtype
p3
(S'f8'
p4
I0
I1
tp5
Rp6
(I3
S'<'
p7
NNNI-1
I-1
I0
tp8
bS'\x97y\xa8unGt\xc0'
p9
tp10
Rp11
F0.007542811485280123
tp12
ag2
(g6
S'\x13\x0e\xc9\xc9\xe0\x90\x85\xbd'
p13
tp14
Rp15
aI202389668
aF1.0
aF-1.1974717075128016
ag2
(g6
S'\xe9\x95\xb0{nGt\xc0'
p16
tp17
Rp18
a(g11
g2
(g6
S';\xb2\xb8\x81nGt\xc0'
p19
tp20
Rp21
tp22
a(g21
F0.008039022860148615
tp23
aa(lp24
(g11
F0.007542811485280123
tp25
ag2
(g6
S'\x1f\xdf\xd0\xab\xe1\x90\x85\xbd'
p26
tp27
Rp28
aI207468441
aF1.0
aF-1.1159600347208565
ag2
(g6
S'\xca\x9dyonGt\xc0'
p29
tp30
Rp31
a(g2
(g6
S'\xfe\xc1JinGt\xc0'
p32
tp33
Rp34
g11
tp35
a(g34
F0.007034147848046989
tp36
aa(lp37
(g34
F0.007034147848046989
tp38
ag2
(g6
S'\xf7\x1e\xc9}\xe2\x90\x85\xbd'
p39
tp40
Rp41
aI201986437
aF1.0
aF-1.0345285684948546
ag2
(g6
S'<\xb9EcnGt\xc0'
p42
tp43
Rp44
a(g2
(g6
S'y\xb0@]nGt\xc0'
p45
tp46
Rp47
g34
tp48
a(g47
F0.006538924503016904
tp49
aa(lp50
(g47
F0.006538924503016904
tp51
ag2
(g6
S'\x9eN\xf7?\xe3\x90\x85\xbd'
p52
tp53
Rp54
aI207871673
aF1.0
aF-0.9530168304716726
ag2
(g6
S'\x1c\xc1\x0eWnGt\xc0'
p55
tp56
Rp57
a(g2
(g6
S'\xc0\xd1\xdcPnGt\xc0'
p58
tp59
Rp60
g47
tp61
a(g60
F0.006029271666833469
tp62
aa(lp63
(g60
F0.006029271666833469
tp64
ag2
(g6
S'+\xb9\x10\xf2\xe3\x90\x85\xbd'
p65
tp66
Rp67
aI201431502
aF1.0
aF-0.8716154264169492
ag2
(g6
S'\xd9\x04\xdcJnGt\xc0'
p68
tp69
Rp70
a(g2
(g6
S'\xf27\xdbDnGt\xc0'
p71
tp72
Rp73
g60
tp74
a(g73
F0.005535408384057087
tp75
aa(lp76
(g73
F0.005535408384057087
tp77
ag2
(g6
S'NGf\x94\xe4\x90\x85\xbd'
p78
tp79
Rp80
aI208426608
aF1.0
aF-0.7901036565338299
ag2
(g6
S'\xba\x0c\xa5>nGt\xc0'
p81
tp82
Rp83
a(g2
(g6
S'\x82\xe1n8nGt\xc0'
p84
tp85
Rp86
g73
tp87
a(g86
F0.00502439449593302
tp88
aa(lp89
(g86
F0.00502439449593302
tp90
ag2
(g6
S'\xa6?\x9f&\xe5\x90\x85\xbd'
p91
tp92
Rp93
aI200611207
aF1.0
aF-0.7087550017218103
ag2
(g6
S'\xbeVt2nGt\xc0'
p94
tp95
Rp96
a(g2
(g6
S'\xfb\xcby,nGt\xc0'
p97
tp98
Rp99
g86
tp100
a(g99
F0.004532541966623786
tp101
aa(lp102
(g99
F0.004532541966623786
tp103
ag2
(g6
S'u\xed\x1d\xa9\xe5\x90\x85\xbd'
p104
tp105
Rp106
aI209246902
aF1.0
aF-0.627243159075663
ag2
(g6
S'\xa0^=&nGt\xc0'
p107
tp108
Rp109
a(g2
(g6
S'E\xf1\x00 nGt\xc0'
p110
tp111
Rp112
g99
tp113
a(g112
F0.0040195165147707546
tp114
aa(lp115
(g2
(g6
S'\xa5\xe8\xe4\x14nGt\xc0'
p116
tp117
Rp118
F0.003562539164018831
tp119
ag2
(g6
S'\xddK+\x18\xe6\x90\x85\xbd'
p120
tp121
Rp122
aI186386592
aF1.0
aF-0.5485602508465047
ag2
(g6
S'\xf5\xecr\x1anGt\xc0'
p123
tp124
Rp125
a(g118
g112
tp126
a(g112
F0.0040195165147707546
tp127
aa(lp128
(g118
F0.003562539164018831
tp129
ag2
(g6
S'\x02"=u\xe6\x90\x85\xbd'
p130
tp131
Rp132
aI196176180
aF1.0
aF-0.47247683655246314
ag2
(g6
S'\x0b4\x0c\x0fnGt\xc0'
p133
tp134
Rp135
a(g2
(g6
S'q\x7f3\tnGt\xc0'
p136
tp137
Rp138
g118
tp139
a(g138
F0.003081559855823535
tp140
aa(lp141
(g138
F0.003081559855823535
tp142
ag2
(g6
S'\x8c\x92\xb8\xc8\xe6\x90\x85\xbd'
p143
tp144
Rp145
aI209358203
aF1.0
aF-0.3918248347455555
ag2
(g6
S'\xb48\xf6\x02nGt\xc0'
p146
tp147
Rp148
a(g2
(g6
S'\xf6\xf1\xb8\xfcmGt\xc0'
p149
tp150
Rp151
g138
tp152
a(g151
F0.002568261111410445
tp153
aa(lp154
(g151
F0.002568261111410445
tp155
ag2
(g6
S'\x10_5\x11\xe7\x90\x85\xbd'
p156
tp157
Rp158
aI227795244
aF1.0
aF-0.30488451822378837
ag2
(g6
S'`\x01\xef\xf5mGt\xc0'
p159
tp160
Rp161
a(g2
(g6
S'\xca\x10%\xefmGt\xc0'
p162
tp163
Rp164
g151
tp165
a(g164
F0.00200975881974754
tp166
aa(lp167
(g2
(g6
S'\xbe\xf8\xff\xe6mGt\xc0'
p168
tp169
Rp170
F0.0016747271059296455
tp171
ag2
(g6
S'H-k@\xe7\x90\x85\xbd'
p172
tp173
Rp174
aI136648716
aF1.0
aF-0.23240451434125187
ag2
(g6
S'\xc4\x84\x12\xebmGt\xc0'
p175
tp176
Rp177
a(g170
g164
tp178
a(g164
F0.00200975881974754
tp179
aa(lp180
(g170
F0.0016747271059296455
tp181
ag2
(g6
S'\x8c\xe4)[\xe7\x90\x85\xbd'
p182
tp183
Rp184
aI136648715
aF1.0
aF-0.17805156261172597
ag2
(g6
S'\xb8l\xed\xe2mGt\xc0'
p185
tp186
Rp187
a(g2
(g6
S'\xb3\xe0\xda\xdemGt\xc0'
p188
tp189
Rp190
g170
tp191
a(g190
F0.0013396953697985328
tp192
aa(lp193
(g2
(g6
S'\x8b\xc0\xfe\xd3mGt\xc0'
p194
tp195
Rp196
F0.0008929862989916551
tp197
ag2
(g6
S'\xed(/q\xe7\x90\x85\xbd'
p198
tp199
Rp200
aI182198312
aF1.0
aF-0.1146398102435993
ag2
(g6
S'\x9f\xd0l\xd9mGt\xc0'
p201
tp202
Rp203
a(g196
g190
tp204
a(g190
F0.0013396953697985328
tp205
aa(lp206
(g196
F0.0008929862989916551
tp207
ag2
(g6
S'j\xf8\xb3}\xe7\x90\x85\xbd'
p208
tp209
Rp210
aI121465565
aF1.0
aF-0.054247651662300875
ag2
(g6
S'\x1c\x0b`\xd0mGt\xc0'
p211
tp212
Rp213
a(g2
(g6
S'\xaeU\xc1\xccmGt\xc0'
p214
tp215
Rp216
g196
tp217
a(g216
F0.0005951801834577536
tp218
aa(lp219
(g2
(g6
S'\xfeB\x85\xc5mGt\xc0'
p220
tp221
Rp222
F0.0002975900884132235
tp223
ag2
(g6
S'WS0\x81\xe7\x90\x85\xbd'
p224
tp225
Rp226
aI121377456
aF1.0
aF-0.005951442128992906
ag2
(g6
S'VL#\xc9mGt\xc0'
p227
tp228
Rp229
a(g222
g216
tp230
a(g216
F0.0005951801834577536
tp231
aa(lp232
(g2
(g6
S'\xa69\xe7\xc1mGt\xc0'
p233
tp234
Rp235
F0.00014879504125303288
tp236
ag2
(g6
S'\xdb\xeeN\x80\xe7\x90\x85\xbd'
p237
tp238
Rp239
aI60688728
aF1.0
aF0.030257572413729526
ag2
(g6
S'R>\xb6\xc3mGt\xc0'
p240
tp241
Rp242
a(g235
g222
tp243
a(g222
F0.0002975900884132235
tp244
aa(lp245
(g2
(g6
S'\xfa4\x18\xc0mGt\xc0'
p246
tp247
Rp248
F7.439751801482416e-05
tp249
ag2
(g6
S'/H\xa5~\xe7\x90\x85\xbd'
p250
tp251
Rp252
aI30344364
aF1.0
aF0.048362081962671735
ag2
(g6
S'P\xb7\xff\xc0mGt\xc0'
p253
tp254
Rp255
a(g248
g235
tp256
a(g235
F0.00014879504125303288
tp257
aa(lp258
(F-324.4642927988943
F-2.4479269531865638e-12
tp259
ag2
(g6
S'5K\x12}\xe7\x90\x85\xbd'
p260
tp261
Rp262
aI30344363
aF1.0
aF0.06043174379448872
ag2
(g6
S'\xa4\xb20\xbfmGt\xc0'
p263
tp264
Rp265
a(F-324.4642927988943
g248
tp266
a(g248
F7.439751801482416e-05
tp267
aa(lp268
(F-324.4642927988943
F-2.4479269531865638e-12
tp269
ag2
(g6
S'Yt\xeez\xe7\x90\x85\xbd'
p270
tp271
Rp272
aI36374269
aF1.0
aF0.07370064055585267
ag2
(g6
S'\xd0\xac3\xbdmGt\xc0'
p273
tp274
Rp275
a(g2
(g6
S'R)\x1e\xbcmGt\xc0'
p276
tp277
Rp278
F-324.4642927988943
tp279
a(g278
F-8.918148917873662e-05
tp280
aa(lp281
(g278
F-8.918148917873662e-05
tp282
ag2
(g6
S'\x1a\xb8\x1fx\xe7\x90\x85\xbd'
p283
tp284
Rp285
aI36374270
aF1.0
aF0.08816874742034053
ag2
(g6
S'\xd3\xa5\x08\xbbmGt\xc0'
p286
tp287
Rp288
a(g2
(g6
S'T"\xf3\xb9mGt\xc0'
p289
tp290
Rp291
g278
tp292
a(g291
F-0.0001783629776693083
tp293
aa(lp294
(g291
F-0.0001783629776693083
tp295
ag2
(g6
S'a\xa6\xe8r\xe7\x90\x85\xbd'
p296
tp297
Rp298
aI72748538
aF1.0
aF0.10987089764611363
ag2
(g6
S'W\x1b\xc8\xb7mGt\xc0'
p299
tp300
Rp301
a(g2
(g6
S'Z\x14\x9d\xb5mGt\xc0'
p302
tp303
Rp304
g291
tp305
a(g304
F-0.000356725947176044
tp306
aa(lp307
(g304
F-0.000356725947176044
tp308
ag2
(g6
S'J!\xf7d\xe7\x90\x85\xbd'
p309
tp310
Rp311
aI145497077
aF1.0
aF0.15327519897536768
ag2
(g6
S'`\x06G\xb1mGt\xc0'
p312
tp313
Rp314
a(g2
(g6
S'e\xf8\xf0\xacmGt\xc0'
p315
tp316
Rp317
g304
tp318
a(g317
F-0.0007134518748940846
tp319
aa(lp320
(g317
F-0.0007134518748940846
tp321
ag2
(g6
S'\x19\xf8\x19M\xe7\x90\x85\xbd'
p322
tp323
Rp324
aI131906541
aF1.0
aF0.20844474358552254
ag2
(g6
S'n\x9a\x02\xa9mGt\xc0'
p325
tp326
Rp327
a(g2
(g6
S'x<\x14\xa5mGt\xc0'
p328
tp329
Rp330
g317
tp331
a(g330
F-0.0010368568605956014
tp332
aa(lp333
(g330
F-0.0010368568605956014
tp334
ag2
(g6
S'\xcat\x94/\xe7\x90\x85\xbd'
p335
tp336
Rp337
aI131906541
aF1.0
aF0.26091140790978534
ag2
(g6
S'\x82\xde%\xa1mGt\xc0'
p338
tp339
Rp340
a(g2
(g6
S'\x8b\x807\x9dmGt\xc0'
p341
tp342
Rp343
g330
tp344
a(g343
F-0.0013602618199097815
tp345
aa(lp346
(g343
F-0.0013602618199097815
tp347
ag2
(g6
S'_\xb9D\t\xe7\x90\x85\xbd'
p348
tp349
Rp350
aI146080541
aF1.0
aF0.3161969685006514
ag2
(g6
S'\xfc\xfe\xdc\x98mGt\xc0'
p351
tp352
Rp353
a(g2
(g6
S'n}\x82\x94mGt\xc0'
p354
tp355
Rp356
g343
tp357
a(g356
F-0.0017184181786327928
tp358
aa(lp359
(g356
F-0.0017184181786327928
tp360
ag2
(g6
S'\x8a\xb0+\xd9\xe6\x90\x85\xbd'
p361
tp362
Rp363
aI146080541
aF1.0
aF0.37430140706932413
ag2
(g6
S"\xe0\xfb'\x90mGt\xc0"
p364
tp365
Rp366
a(g2
(g6
S'Qz\xcd\x8bmGt\xc0'
p367
tp368
Rp369
g356
tp370
a(g369
F-0.0020765744897447507
tp371
aa(lp372
(g369
F-0.0020765744897447507
tp373
ag2
(g6
S'\xdc\xe8\x8b\x87\xe6\x90\x85\xbd'
p374
tp375
Rp376
aI262646154
aF1.0
aF0.45558819148354923
ag2
(g6
S'\x8c\xa5\xf9\x83mGt\xc0'
p377
tp378
Rp379
a(g2
(g6
S'\xc7\xd0%|mGt\xc0'
p380
tp381
Rp382
g369
tp383
a(g382
F-0.002720523066188389
tp384
aa(lp385
(g382
F-0.002720523066188389
tp386
ag2
(g6
S'\x0c\xe4/\x07\xe6\x90\x85\xbd'
p387
tp388
Rp389
aI266856843
aF1.0
aF0.5608946913486862
ag2
(g6
S'\x02\xdc1tmGt\xc0'
p390
tp391
Rp392
a(g2
(g6
S'<\xe7=lmGt\xc0'
p393
tp394
Rp395
g382
tp396
a(g395
F-0.0033747950613569385
tp397
aa(lp398
(g395
F-0.0033747950613569385
tp399
ag2
(g6
S'\x8f\x10\xa8o\xe5\x90\x85\xbd'
p400
tp401
Rp402
aI252358234
aF1.0
aF0.6641550936742233
ag2
(g6
S'\x0f\x90\xb8dmGt\xc0'
p403
tp404
Rp405
a(g2
(g6
S'\xe283]mGt\xc0'
p406
tp407
Rp408
g395
tp409
a(g408
F-0.003993519521450012
tp410
aa(lp411
(g408
F-0.003993519521450012
tp412
ag2
(g6
S'p|\xff\xbe\xe4\x90\x85\xbd'
p413
tp414
Rp415
aI265052363
aF1.0
aF0.7670565477861913
ag2
(g6
S'|\x08MUmGt\xc0'
p416
tp417
Rp418
a(g2
(g6
S'\x17\xd8fMmGt\xc0'
p419
tp420
Rp421
g408
tp422
a(g421
F-0.004643366754581294
tp423
aa(lp424
(g421
F-0.004643366754581294
tp425
ag2
(g6
S'\x92ce\xf4\xe3\x90\x85\xbd'
p426
tp427
Rp428
aI254162713
aF1.0
aF0.8703168334352303
ag2
(g6
S'\x8a\xbc\xd3EmGt\xc0'
p429
tp430
Rp431
a(g2
(g6
S'\xfe\xa0@>mGt\xc0'
p432
tp433
Rp434
g421
tp435
a(g434
F-0.00526651472976795
tp436
aa(lp437
(g434
F-0.00526651472976795
tp438
ag2
(g6
S'm\x1d\x9f\x12\xe3\x90\x85\xbd'
p439
tp440
Rp441
aI259607538
aF1.0
aF0.9724941670212365
ag2
(g6
S'\x05\xfb\x836mGt\xc0'
p442
tp443
Rp444
a(g2
(g6
S'\x0cU\xc7.mGt\xc0'
p445
tp446
Rp447
g434
tp448
a(g447
F-0.005903011754808285
tp449
aa(lp450
(g447
F-0.005903011754808285
tp451
ag2
(g6
S'0[\x11\x15\xe2\x90\x85\xbd'
p452
tp453
Rp454
aI259607539
aF1.0
aF1.0757542942061167
ag2
(g6
S"\x12\xaf\n'mGt\xc0"
p455
tp456
Rp457
a(g2
(g6
S'\x19\tN\x1fmGt\xc0'
p458
tp459
Rp460
g447
tp461
a(g460
F-0.00653950833625647
tp462
aa(lp463
(g460
F-0.00653950833625647
tp464
ag2
(g6
S'\xa6\xe5\xf2\xfd\xe0\x90\x85\xbd'
p465
tp466
Rp467
aI259607539
aF1.0
aF1.1790143014285057
ag2
(g6
S' c\x91\x17mGt\xc0'
p468
tp469
Rp470
a(g2
(g6
S'&\xbd\xd4\x0fmGt\xc0'
p471
tp472
Rp473
g460
tp474
a(g473
F-0.007176004426687165
tp475
aa(lp476
(g473
F-0.007176004426687165
tp477
ag2
(g6
S'h\xbeC\xcd\xdf\x90\x85\xbd'
p478
tp479
Rp480
aI259607538
aF1.0
aF1.2822742388703767
ag2
(g6
S'-\x17\x18\x08mGt\xc0'
p481
tp482
Rp483
a(g2
(g6
S'4q[\x00mGt\xc0'
p484
tp485
Rp486
g473
tp487
a(g486
F-0.00781249997867508
tp488
aa.