(lp0
(lp1
(cnumpy.core.multiarray
scalar
p2
(cnumpy
dtype
p3
(S'f8'
p4
I0
I1
tp5
Rp6
(I3
S'<'
p7
NNNI-1
I-1
I0
tp8
bS'\xd8{\xc5\xaegZy\xc0'
p9
tp10
Rp11
F0.0037779752306791948
tp12
ag2
(g6
S'p\xeeR\xb7\x85\x7f\x89\xbd'
p13
tp14
Rp15
aI180579874
aF1.0
aF-0.7564969656639688
ag2
(g6
S"\xe92'\xb4gZy\xc0"
p16
tp17
Rp18
a(g11
g2
(g6
S'\xfa\xe9\x88\xb9gZy\xc0'
p19
tp20
Rp21
tp22
a(g21
F0.0043014405726950625
tp23
aa(lp24
(g11
F0.0037779752306791948
tp25
ag2
(g6
S'E.i3\x86\x7f\x89\xbd'
p26
tp27
Rp28
aI190386926
aF1.0
aF-0.6474419403400911
ag2
(g6
S'a\xf2\x18\xa9gZy\xc0'
p29
tp30
Rp31
a(g2
(g6
S'\xeahl\xa3gZy\xc0'
p32
tp33
Rp34
g11
tp35
a(g34
F0.0032260810243389484
tp36
aa(lp37
(g34
F0.0032260810243389484
tp38
ag2
(g6
S'\xd1\xfb\xd5\x9b\x86\x7f\x89\xbd'
p39
tp40
Rp41
aI178402442
aF1.0
aF-0.5390270146682198
ag2
(g6
S'\xa5N\x1b\x9egZy\xc0'
p42
tp43
Rp44
a(g2
(g6
S'`4\xca\x98gZy\xc0'
p45
tp46
Rp47
g34
tp48
a(g47
F0.002708927350818732
tp49
aa(lp50
(g47
F0.002708927350818732
tp51
ag2
(g6
S'5\xa7j\xf1\x86\x7f\x89\xbd'
p52
tp53
Rp54
aI192564358
aF1.0
aF-0.42997195749421624
ag2
(g6
S'\x1d\x0e\r\x93gZy\xc0'
p55
tp56
Rp57
a(g2
(g6
S'\xda\xe7O\x8dgZy\xc0'
p58
tp59
Rp60
g47
tp61
a(g60
F0.0021507209499712306
tp62
aa(lp63
(g2
(g6
S'2W\x91~gZy\xc0'
p64
tp65
Rp66
F0.001433643889021421
tp67
ag2
(g6
S'\x1e\x80|=\x87\x7f\x89\xbd'
p68
tp69
Rp70
aI247369896
aF1.0
aF-0.30064216011998035
ag2
(g6
S'\x86\x9f\xf0\x85gZy\xc0'
p71
tp72
Rp73
a(g66
g60
tp74
a(g60
F0.0021507209499712306
tp75
aa(lp76
(g2
(g6
S'\xa6\xf6\xbctgZy\xc0'
p77
tp78
Rp79
F0.0009555923802658754
tp80
ag2
(g6
S'w\x87xm\x87\x7f\x89\xbd'
p81
tp82
Rp83
aI164913292
aF1.0
aF-0.17944108464918443
ag2
(g6
S'\xec&\xa7ygZy\xc0'
p84
tp85
Rp86
a(g79
g66
tp87
a(g66
F0.001433643889021421
tp88
aa(lp89
(g2
(g6
S'0\xee\xe9jgZy\xc0'
p90
tp91
Rp92
F0.00047779619266410245
tp93
ag2
(g6
S'\xd6\x8e\x10\x82\x87\x7f\x89\xbd'
p94
tp95
Rp96
aI164825206
aF1.0
aF-0.08250611183747313
ag2
(g6
S'kr\xd3ogZy\xc0'
p97
tp98
Rp99
a(g92
g79
tp100
a(g79
F0.0009555923802658754
tp101
aa(lp102
(g2
(g6
S'\xf5i\x00fgZy\xc0'
p103
tp104
Rp105
F0.00023889809555800425
tp106
ag2
(g6
S'\xf7\xb4\xfb\x87\x87\x7f\x89\xbd'
p107
tp108
Rp109
aI82412603
aF1.0
aF-0.009824293484807466
ag2
(g6
S'\x12,uhgZy\xc0'
p110
tp111
Rp112
a(g105
g92
tp113
a(g92
F0.00047779619266410245
tp114
aa(lp115
(g2
(g6
S'\xd8\xa7\x8bcgZy\xc0'
p116
tp117
Rp118
F0.00011944904855849872
tp119
ag2
(g6
S'_:\x9c\x87\x87\x7f\x89\xbd'
p120
tp121
Rp122
aI41206301
aF1.0
aF0.026516601513816195
ag2
(g6
S'\xe6\x08\xc6dgZy\xc0'
p123
tp124
Rp125
a(g118
g105
tp126
a(g105
F0.00023889809555800425
tp127
aa(lp128
(F-405.65023907608304
F-9.159301311564777e-13
tp129
ag2
(g6
S'L\x9a\x17\x86\x87\x7f\x89\xbd'
p130
tp131
Rp132
aI41206302
aF1.0
aF0.0507438707762687
ag2
(g6
S'\xc9FQbgZy\xc0'
p133
tp134
Rp135
a(F-405.65023907608304
g118
tp136
a(g118
F0.00011944904855849872
tp137
aa(lp138
(F-405.65023907608304
F-9.159301311564777e-13
tp139
ag2
(g6
S'U\xb7\x11\x84\x87\x7f\x89\xbd'
p140
tp141
Rp142
aI28966098
aF1.0
aF0.07137281271685805
ag2
(g6
S'Q\xe79`gZy\xc0'
p143
tp144
Rp145
a(g2
(g6
S'\xe8\xe8\\_gZy\xc0'
p146
tp147
Rp148
F-405.65023907608304
tp149
a(g148
F-8.396708092036903e-05
tp150
aa(lp151
(g148
F-8.396708092036903e-05
tp152
ag2
(g6
S'Y\xc3\xdc\x81\x87\x7f\x89\xbd'
p153
tp154
Rp155
aI28966099
aF1.0
aF0.08840345336828373
ag2
(g6
S'~\xea\x7f^gZy\xc0'
p156
tp157
Rp158
a(g2
(g6
S'\x15\xec\xa2]gZy\xc0'
p159
tp160
Rp161
g148
tp162
a(g161
F-0.00016793416339044894
tp163
aa(lp164
(g161
F-0.00016793416339044894
tp165
ag2
(g6
S'\x82u\x9c}\x87\x7f\x89\xbd'
p166
tp167
Rp168
aI57932197
aF1.0
aF0.11394941567342137
ag2
(g6
S'B\xef\xe8[gZy\xc0'
p169
tp170
Rp171
a(g2
(g6
S'p\xf2.ZgZy\xc0'
p172
tp173
Rp174
g161
tp175
a(g174
F-0.00033586832376294084
tp176
aa(lp177
(g174
F-0.00033586832376294084
tp178
ag2
(g6
S'F\xca\xd0q\x87\x7f\x89\xbd'
p179
tp180
Rp181
aI115864394
aF1.0
aF0.1650413041859949
ag2
(g6
S'\xcb\xf8\xbaVgZy\xc0'
p182
tp183
Rp184
a(g2
(g6
S'&\xffFSgZy\xc0'
p185
tp186
Rp187
g174
tp188
a(g187
F-0.0006717366352468871
tp189
aa(lp190
(g187
F-0.0006717366352468871
tp191
ag2
(g6
S'\x8b\xd57S\x87\x7f\x89\xbd'
p192
tp193
Rp194
aI185692401
aF1.0
aF0.25369152035945036
ag2
(g6
S'\xaeF\xbeMgZy\xc0'
p195
tp196
Rp197
a(g2
(g6
S'5\x8e5HgZy\xc0'
p198
tp199
Rp200
g187
tp201
a(g200
F-0.0012100227002341515
tp202
aa(lp203
(g200
F-0.0012100227002341515
tp204
ag2
(g6
S'%\xdd\xdf\x19\x87\x7f\x89\xbd'
p205
tp206
Rp207
aI200711910
aF1.0
aF0.3672847950465533
ag2
(g6
S'\xc2>:BgZy\xc0'
p208
tp209
Rp210
a(g2
(g6
S'O\xef><gZy\xc0'
p211
tp212
Rp213
g200
tp214
a(g213
F-0.001791847315380914
tp215
aa(lp216
(g213
F-0.001791847315380914
tp217
ag2
(g6
S'\x17L\xa0\xc9\x86\x7f\x89\xbd'
p218
tp219
Rp220
aI195095873
aF1.0
aF0.48364243571870796
ag2
(g6
S'\xaexn6gZy\xc0'
p221
tp222
Rp223
a(g2
(g6
S'\x0e\x02\x9e0gZy\xc0'
p224
tp225
Rp226
g213
tp227
a(g226
F-0.002357392030347902
tp228
aa(lp229
(g226
F-0.002357392030347902
tp230
ag2
(g6
S'\x9f\xeaT`\x86\x7f\x89\xbd'
p231
tp232
Rp233
aI210770008
aF1.0
aF0.60295685450581
ag2
(g6
S'\xe2\xf5U*gZy\xc0'
p234
tp235
Rp236
a(g2
(g6
S'\xb6\xe9\r$gZy\xc0'
p237
tp238
Rp239
g226
tp240
a(g239
F-0.002968372841604996
tp241
aa(lp242
(g239
F-0.002968372841604996
tp243
ag2
(g6
S'\x02\x89\xfa\xdf\x85\x7f\x89\xbd'
p244
tp245
Rp246
aI195844478
aF1.0
aF0.7224913086320217
ag2
(g6
S'\xf7\xbc7\x1egZy\xc0'
p247
tp248
Rp249
a(g2
(g6
S'8\x90a\x18gZy\xc0'
p250
tp251
Rp252
g239
tp253
a(g252
F-0.003536087305737048
tp254
aa(lp255
(g252
F-0.003536087305737048
tp256
ag2
(g6
S'\xf5\xe4\xe6H\x85\x7f\x89\xbd'
p257
tp258
Rp259
aI208979339
aF1.0
aF0.8414992916209565
ag2
(g6
S"r-'\x12gZy\xc0"
p260
tp261
Rp262
a(g2
(g6
S'\xad\xca\xec\x0bgZy\xc0'
p263
tp264
Rp265
g252
tp266
a(g265
F-0.004141876923947088
tp267
aa(lp268
(g265
F-0.004141876923947088
tp269
ag2
(g6
S'V\x9eC\x9a\x84\x7f\x89\xbd'
p270
tp271
Rp272
aI197635148
aF1.0
aF0.9610336440131383
ag2
(g6
S'\x87\xf4\x08\x06gZy\xc0'
p273
tp274
Rp275
a(g2
(g6
S'a\x1e%\x00gZy\xc0'
p276
tp277
Rp278
g265
tp279
a(g278
F-0.004714781750561352
tp280
aa.